;;; Segment .text (0000)
l0000		dw	0x0000
	dw	0x0000
	dw	0x0000
	dw	0x0000
	dw	0x0000
	dw	0x0000
	dw	0x0000
	dw	0x0000
	dw	0x0000
	dw	0x0000
	db	0x00,0x00	; padding
	dw	0x0000
	dw	0x0000
	dw	0x0000
	dw	0x03C0
	dw	0x0000
	dw	0x1DAE
	dw	0x0200
	dw	0x0000
	dw	0x0000
	dw	0x5AA2
	db	0x00,0x00,0x00,0x00,0x00,0x00,0x00,0x00,0x00,0x00	; padding
	dw	0x0000
	dw	0x0000
	db	0x00,0x00,0x00,0x00,0x00,0x00,0x00,0x00,0x00,0x00,0x00,0x00,0x00,0x00,0x00,0x00,0x00,0x00,0x00,0x00,0x00,0x00,0x00,0x00,0x00,0x00,0x00,0x00,0x00,0x00,0x00,0x00,0x00,0x00,0x00,0x00,0x00,0x00,0x00,0x00,0x00,0x00,0x00,0x00,0x00,0x00,0x00,0x00,0x00,0x00,0x00,0x00,0x00,0x00,0x00,0x00,0x00,0x00,0x00,0x00,0x00,0x00,0x00,0x00,0x00,0x00,0x00,0x00,0x00,0x00,0x00,0x00,0x00,0x00,0x00,0x00,0x00,0x00,0x00,0x00,0x00,0x00,0x00,0x00,0x00,0x00,0x00,0x00,0x00,0x00,0x00,0x00,0x00,0x00,0x00,0x00,0x00,0x00,0x00,0x00,0x00,0x00,0x00,0x00,0x00,0x00,0x00,0x00,0x00,0x00,0x00,0x00,0x00,0x00,0x00,0x00,0x00,0x00,0x00,0x00,0x00,0x00,0x00,0x00,0x00,0x00,0x00,0x00,0x00,0x00,0x00,0x00,0x00,0x00,0x00,0x00,0x00,0x00,0x00,0x00,0x00,0x00,0x00,0x00,0x00,0x00,0x00,0x00,0x00,0x00,0x00,0x00,0x00,0x00,0x00,0x00,0x00,0x00,0x00,0x00,0x00,0x00,0x00,0x00,0x00,0x00,0x00,0x00,0x00,0x00,0x00,0x00,0x00,0x00,0x00,0x00,0x00,0x00,0x00,0x00,0x00,0x00,0x00,0x00,0xFF,0xFF,0xFF,0xFF,0xFF,0xE4,0x00,0x00,0x00,0x00,0x00,0x00,0x00,0x00,0x00,0x00,0x00,0x00,0x00,0x00,0x00,0x00,0x00,0x00,0x00,0x00,0x00,0x00,0x00,0x00,0x00,0x00,0x00,0x00,0x00,0x00,0x00,0x00,0x00,0x00,0x00,0x00,0x00,0x00,0x00,0x00,0x00,0x00,0x00,0x00,0x00,0x00,0x00,0x00,0x00,0x00,0x00,0x00,0x00,0x00,0x00,0x00,0x00,0x00,0x00,0x00,0x00,0x00,0x00,0x00,0x00,0x00,0x00,0x00,0x00,0x00,0x00,0x00,0x00,0x00,0x00,0x00,0x00,0x00,0x00,0x00,0x00,0x00,0x00,0x00,0x00,0x00,0x00,0x00,0x00,0x00,0x00,0x00,0x00,0x00,0x00,0x00,0x00,0x00,0x00,0x00,0x00,0x00,0x00,0x00,0x00,0x00,0x00,0x00,0x00,0x00,0x00,0x00,0x00,0x00,0x00,0x00,0x00,0x00,0x00,0x00,0x00,0x00,0x00,0x00,0x00,0x00,0x00,0x00,0x00,0x00,0x00,0x00,0x00,0x00,0x00,0x00,0x00,0x00,0x00,0x00,0x00,0x00,0x00,0x00,0x00,0x00,0x00,0x00,0x00,0x00,0x00,0x00,0x00,0x00,0x00,0x00,0x00,0x00,0x00,0x00,0x00,0x00,0x00,0x00,0x00,0x00,0x00,0x00,0x00,0x00,0x00,0x00,0x00,0x00,0x00,0x00,0x00,0x00,0x00,0x00,0x00,0x00,0x00,0x00,0x00,0x00,0x00,0x00,0x00,0x00,0x00,0x00,0x00,0x00,0x00,0x00,0x00,0x00,0x00,0x00,0x00,0x00,0x00,0x00,0x00,0x00,0x00,0x00,0x00,0x00,0x00,0x00,0x00,0x00,0x00,0x00,0x00,0x00,0x00,0x00,0x00,0x00,0x00,0x00,0x00,0x00,0x00,0x00,0x00,0x00,0x00,0x00,0x00,0x00,0x00,0x00,0x00,0x00,0x00,0x00,0x00,0x00,0x00,0x00,0x00,0x00,0x00,0x00,0x00,0x00,0x00,0x00,0x00,0x00,0x00,0x00,0x00,0x00,0x00,0x00,0x00,0x00,0x00,0x00,0x00,0x00	; padding
0200 A0 00 C3 1D 20 52 C4 1C 68 00 C1 9C 75 00 DF 1C .... R..h...u...
0210 6A 00 28 00 02 01 C1 15                         j.(.....       

l0218:
	clr	r1
	mov	@#1DAC,r0
	beq	0222

l0220:
	jsr	pc,@r0

l0222:
	mov	@#0022,sp
	mov	r4,-(sp)
	mov	#0592,r0
	emt	#FD
	mov	@#0028,r5
	mov	r5,-(sp)
	tst	(r5)+
	clr	-(sp)
	mov	#1000,-(sp)
	mov	sp,r0
	sub	#0010,sp
	mov	sp,0012(sp)
	emt	#FD
	mov	0002(sp),r4
	tst	@#1DAC
	bne	028E

l0252:
	mov	#03B8,r0
	emt	#FD
	bit	#1000,r0
	beq	0264

l025E:
	mov	#F000,@#001E

l0264:
	bit	#0200,r0
	bne	028E

l026A:
	mov	#0200,@#0026
	tst	@#53EC
	beq	028E

l0276:
	tst	@sp
	beq	0282

l027A:
	mov	#0380,r0
	emt	#E9
	br	028E

l0282:
	mov	#03BC,r0
	emt	#FD
	mov	r0,r4
	clr	@#0026

l028E:
	tst	-(r4)
	mov	r4,r0
	emt	#EC
	mov	@#0028,r4
	cmp	r4,r5
	blos	0372

l029C:
	sub	#00B2,r4
	mov	r4,@#5426
	mov	r4,r3
	sub	@#53EA,r4
	bic	#0001,r4
	mov	r4,-(sp)
	mov	@#53EE,r2
	beq	0372

l02B6:
	sub	r2,r4
	mov	r4,-(sp)
	bic	#0001,r4

l02BE:
	sub	#0020,r4
	dec	r2
	bne	02BE

l02C6:
	mov	r4,-(sp)
	sub	#0038,r4
	mov	r4,-(sp)
	cmp	r4,r5
	blos	0372

l02D2:
	mov	r3,r2
	add	#00B2,r2

l02D8:
	clr	-(r2)
	cmp	r2,r4
	bhi	02D8

l02DE:
	movb	r1,0074(r3)
	movb	r1,0075(r3)
	mov	(sp)+,0008(r3)
	mov	(sp)+,0006(r3)
	mov	(sp)+,0004(r3)
	mov	(sp)+,0002(r3)
	mov	0002(sp),0076(r3)
	mov	0004(sp),0078(r3)
	mov	r4,000A(r3)
	mov	r5,000C(r3)
	cmp	r4,r5
	blos	0372

l030E:
	tst	@#1DAC
	beq	0332

l0314:
	mov	#03B8,r0
	emt	#FD
	bit	#0200,r0
	bne	0332

l0320:
	cmp	@sp,@#53EC
	bcs	0332

l0326:
	mov	@#0022,r2
	add	#1000,r2
	cmp	r4,r2
	blos	0372

l0332:
	add	#0014,sp
	mov	#8000,0010(r3)
	mov	r3,0050(r3)
	add	#0022,0050(r3)
	mov	(sp)+,006A(r3)
	mov	(sp)+,r4
	mov	r4,0068(r3)
	mov	(r4)+,r0
	mov	(r0)+,007C(r3)
	mov	@r0,007A(r3)
	mov	#0202,@#0020
	bis	#2000,@#0024
	jsr	pc,@#1CFA
	tstb	0075(r3)
	beq	03B2

l0370:
	jmp	@(r4)+

l0372:
	mov	#0397,r0
	emt	#E9
	bisb	#0008,@#002B
	emt	#E8
0380 3F 45 72 72 20 35 39 20 55 53 52 20 6E 6F 74 20 ?Err 59 USR not 
0390 6C 6F 63 6B 65 64 00 3F 45 72 72 20 36 32 20 46 locked.?Err 62 F
03A0 4F 52 54 52 41 4E 20 73 74 61 72 74 20 66 61 69 ORTRAN start fai
03B0 6C 00                                           l.             

l03B2:
	mov	#1396,-(sp)
	jmp	@r4
03B8                         00 1C C0 00 00 1C B6 00         ........
03C0 66 10 81 1D 02 00 26 10 A6 10 E6 10 41 18 C1 45 f.....&.....A..E
03D0 80 FF C3 1D 50 50 40 10 F7 09 70 01 C2 15 90 10 ....PP@...p.....
03E0 42 60 A6 92 22 81 05 03 8A 8A 8E 92 01 80 CA 8A B`.."...........
03F0 ED 88 C2 15 D5 10 80 94 05 03 40 A0 05 03 D2 8B ..........@.....
0400 FE 02 F9 01 CE 15 FF FF C3 15 F9 05 C0 15 F8 05 ................
0410 E9 88 F7 09 52 00 80 10 E9 88 C3 15 DC 05 F7 09 ....R...........
0420 46 00 F7 09 4C 00 CE 8B 09 81 D6 0B DF D5 02 00 F...L...........
0430 2B 00 83 15 82 15 80 15 81 15 02 00 DF D5 04 00 +...............
0440 2B 00 C3 1D E0 4F C2 1C 0E 00 0C 03 B3 1C 06 00 +....O..........
0450 0E 00 8B 1C 04 00 C3 15 D7 05 F7 09 0A 00 F7 09 ................
0460 10 00 EF 01 77 00 42 0F                         ....w.B.       

;; fn0468: 0468
;;   Called from:
;;     0476 (in fn0472)
;;     049E (in fn0472)
;;     04C6 (in fn0472)
fn0468 proc
	movb	(r3)+,r0
	beq	04F8

l046C:
	emt	#E1
	bcs	046C

l0470:
	br	0468

;; fn0472: 0472
fn0472 proc
	mov	#05E4,r3
	jsr	pc,@#0468
	mov	@#5426,r3
	mov	007A(r3),-(sp)
	mov	007C(r3),r0
	mov	000E(r3),r3
	beq	0490

l048C:
	mov	(r3)+,@sp
	mov	@r3,r0

l0490:
	jsr	pc,@#0528
	mov	(sp)+,r0
	jsr	pc,@#0528
	mov	#05EF,r3
	jsr	pc,@#0468
	mov	@(5426),r0
	bne	04B2

l04A8:
	movb	#003F,r0

l04AC:
	emt	#E1
	bcs	04AC

l04B0:
	br	04B6

l04B2:
	jsr	pc,@#04FA

l04B6:
	cmpb	r1,#003D
	beq	04C2

l04BC:
	cmpb	r1,#003F
	bne	04F2

l04C2:
	mov	#0601,r3
	jsr	pc,@#0468
	mov	0010(sp),r1
	setflags	#01
	movb	#0018,r0

l04D4:
	rol	r1
	rolb	r0

l04D8:
	emt	#E1
	bcs	04D8

l04DC:
	movb	#0086,r0

l04E0:
	asl	r1
	beq	04EA

l04E4:
	rolb	r0
	bcs	04E0

l04E8:
	br	04D4

l04EA:
	movb	#0029,r0

l04EE:
	emt	#E1
	bcs	04EE

l04F2:
	mov	#05E1,r0
	emt	#E9

l04F8:
	rts	pc

;; fn04FA: 04FA
;;   Called from:
;;     04B2 (in fn0472)
;;     050E (in fn04FA)
fn04FA proc
	mov	r0,-(sp)
	clr	r0

l04FE:
	inc	r0
	sub	#000A,@sp
	bge	04FE

l0506:
	add	#003A,@sp
	dec	r0
	beq	0512

l050E:
	jsr	pc,@#04FA

l0512:
	movb	(sp)+,r0

l0514:
	emt	#E1
	bcs	0514

l0518:
	rts	pc

;; fn051A: 051A
;;   Called from:
;;     052C (in fn0528)
;;     0532 (in fn0528)
fn051A proc
	mov	r0,r3
	clr	r0

l051E:
	cmp	r2,r3
	bhi	04F8

l0522:
	sub	r2,r3
	inc	r0
	br	051E

;; fn0528: 0528
;;   Called from:
;;     0490 (in fn0472)
;;     0496 (in fn0472)
fn0528 proc
	mov	#0028,r2
	jsr	pc,@#051A
	mov	r3,-(sp)
	jsr	pc,@#051A
	mov	r3,-(sp)
	mov	#0003,r3

l053C:
	movb	05AF(r0),r0

l0540:
	emt	#E1
	bcs	0540

l0544:
	dec	r3
	beq	04F8

l0548:
	mov	(sp)+,r0
	br	053C

;; fn054C: 054C
fn054C proc
	movb	r0,00A0(r3)
	movb	00A2(r3),00A1(r3)
	mov	r0,r2
	asr	r0
	asr	r0
	asr	r0
	bic	#0001,r0
	add	r3,r0
	bic	#FFF0,r2
	clr	-(sp)
	setflags	#01

l056C:
	rol	@sp
	dec	r2
	bpl	056C

l0572:
	bis	(sp)+,0096(r0)
	rts	pc
0578                         BF 89 FE 87 C6 25 40 01         .....%@.
0580 01 86 BD 89 C6 17 22 00 C0 15 96 05 E9 88 77 00 ......".......w.
0590 18 0E 00 03 7A 05 3F 45 72 72 20 36 30 20 73 74 ....z.?Err 60 st
05A0 61 63 6B 20 6F 76 65 72 66 6C 6F 77 65 64 00 20 ack overflowed. 
05B0 41 42 43 44 45 46 47 48 49 4A 4B 4C 4D 4E 4F 50 ABCDEFGHIJKLMNOP
05C0 51 52 53 54 55 56 57 58 59 5A 24 2E 20 30 31 32 QRSTUVWXYZ$. 012
05D0 33 34 35 36 37 38 39 66 72 6F 6D 00 69 6E 20 20 3456789from.in  
05E0 00 0D 0A 00 20 72 6F 75 74 69 6E 65 20 22 00 22 .... routine "."
05F0 20 20 6C 69 6E 65 20 00 80 0D 0A 3F 45 72 72 20   line ....?Err 
0600 00 20 28 50 43 3D 00 00                         . (PC=..       

;; fn0608: 0608
fn0608 proc
	mov	@#5426,r4
	add	#002A,r4
	mov	(sp)+,@r4
	br	062A
0614             C4 1D 0E 4E C4 65 2A 00 8C 15 A6 13     ...N.e*.....
0620 A6 13 36 0A 02 00 36 0A 04 00                   ..6...6...     

l062A:
	clr	-(sp)
	mov	0002(sp),r1
	bgt	0636

l0632:
	beq	065C

l0634:
	neg	r1

l0636:
	rol	-(sp)
	mov	#0090,r2
	clrb	0004(sp)

l0640:
	rol	r1
	bcs	0648

l0644:
	dec	r2
	br	0640

l0648:
	movb	r1,0005(sp)
	clrb	r1
	bisb	r2,r1
	swab	r1
	ror	(sp)+
	ror	r1
	rorb	0003(sp)
	mov	r1,@sp

l065C:
	jmp	@(r4)+
065E                                           01 17               ..
0660 01 01 01 15 40 14 41 12 0A 01 26 0A 26 15 05 01 ....@.A...&.&...

;; fn0670: 0670
fn0670 proc
	mov	@#5426,r4
	add	#002A,r4
	mov	(sp)+,@r4
	mov	(sp)+,r0
	mov	(sp)+,r1
	mov	(sp)+,r2
	mov	@sp,r3
	bne	068E

l0684:
	mov	r1,r3
	mov	r0,r1
	mov	r2,r0
	mov	r1,r2
	mov	@sp,r1

l068E:
	mov	r4,@sp
	mov	r5,-(sp)
	asl	r1
	rol	r0
	rol	r5
	mov	r0,r4
	beq	06B2

l069C:
	asl	r2
	beq	06B2

l06A0:
	adc	r5
	clrb	r4
	add	r2,r4
	bcc	06AE

l06A8:
	bpl	06BE

l06AA:
	trap	#8A
	br	06B2

l06AE:
	bmi	06B8

l06B0:
	trap	#8B

l06B2:
	clr	r2
	clr	r3
	br	0738

l06B8:
	bit	#7F00,r4
	beq	06B0

l06BE:
	clrb	r4
	add	#7F01,r4
	ror	r5
	ror	r4
	mov	r4,-(sp)
	rorb	r2
	swab	r3
	swab	r2
	clrb	r2
	bisb	r3,r2
	clrb	r3
	ror	r2
	ror	r3
	swab	r1
	swab	r0
	clrb	r0
	bisb	r1,r0
	clrb	r1
	mov	r2,r4
	mov	r3,r5

l06E8:
	asr	r4
	ror	r5
	asl	r1
	beq	06FC

l06F0:
	rol	r0
	bcc	06E8

l06F4:
	add	r5,r3
	adc	r2
	add	r4,r2
	br	06E8

l06FC:
	rol	r0
	bcc	0706

l0700:
	add	r5,r3
	adc	r2
	add	r4,r2

l0706:
	asr	r4
	ror	r5
	asl	r0
	bcs	0700

l070E:
	bne	0706

l0710:
	mov	(sp)+,r4
	tst	r2
	bmi	0724

l0716:
	rol	r3
	rol	r2
	bit	#7F80,r4
	beq	06B0

l0720:
	sub	#0080,r4

l0724:
	rolb	r3
	rol	r1
	clrb	r3
	bisb	r2,r3
	swab	r3
	clrb	r2
	swab	r2
	add	r4,r2
	add	r1,r3
	adc	r2

l0738:
	mov	(sp)+,r5
	mov	(sp)+,r4
	mov	r3,-(sp)
	mov	r2,-(sp)
	jmp	@(r4)+
0742       01 17 01 01 01 15 40 14 41 12 0A 01 26 0A   ......@.A...&.
0750 26 15 05 01                                     &...           

;; fn0754: 0754
fn0754 proc
	mov	@#5426,r4
	add	#002A,r4
	mov	(sp)+,@r4
	mov	(sp)+,r0
	mov	(sp)+,r1
	mov	(sp)+,r2
	mov	@sp,r3
	mov	r4,@sp
	mov	r5,-(sp)
	asl	r0
	beq	0810

l076E:
	rol	-(sp)
	asl	r2
	beq	080A

l0774:
	adc	@sp
	mov	r2,r4
	clrb	r2
	bic	r2,r4
	mov	r0,r5
	clrb	r0
	bic	r0,r5
	sub	r0,r2
	bcs	078C

l0786:
	bpl	078E

l0788:
	trap	#8A
	br	080A

l078C:
	bpl	0808

l078E:
	add	#7F01,r2
	setflags	#01
	rorb	r4
	ror	(sp)+
	ror	r2
	rorb	r5
	mov	#0100,r0
	cmp	r4,r5
	bhi	07AC

l07A4:
	bcs	07B6

l07A6:
	cmp	r3,r1
	bcs	07B6

l07AA:
	beq	07E6

l07AC:
	sub	r1,r3
	sbc	r4
	sub	r5,r4
	mov	#0202,r0

l07B6:
	mov	#07EC,-(sp)

l07BA:
	asl	r3
	rolb	r4
	bcs	07C6

l07C0:
	cmpb	r5,r4
	bhi	07CE

l07C4:
	beq	07D4

l07C6:
	sub	r1,r3
	sbc	r4
	sub	r5,r4
	setflags	#01

l07CE:
	rol	r0
	bcc	07BA

l07D2:
	rts	pc

l07D4:
	cmp	r1,r3
	bhi	07CE

l07D8:
	bcs	07C6

l07DA:
	setflags	#01

l07DC:
	rol	r0
	bcc	07DC

l07E0:
	cmp	(sp)+,#07F6
	beq	07FE

l07E6:
	add	r0,r2

l07E8:
	clr	r0
	br	07FE
07EC                                     02 60 C0 15             .`..
07F0 01 00 F7 09 C4 FF 85 0C 44 A1 40 0B 42 0B       ........D.@.B. 

l07FE:
	mov	(sp)+,r5
	mov	@sp,r4
	mov	r0,@sp
	mov	r2,-(sp)
	jmp	@(r4)+

l0808:
	trap	#8B

l080A:
	tst	(sp)+

l080C:
	clr	r2
	br	07E8

l0810:
	trap	#8C
	br	080C
0814             80 11 03 01                             ....       

;; fn0818: 0818
fn0818 proc
	mov	r5,r0
	add	@r5,r0
	add	@r5,r0
	tst	(r0)+
	jsr	pc,@#11A6
	sub	#004E,sp
	mov	#53F0,r0
	jmp	@(r0)+
082E                                           C2 9C               ..
0830 A2 00 00 11 C6 65 4E 00 C8 55 00 80 F7 09 B6 3D .....eN..U.....=
0840 C8 35 00 01 02 03 C8 45 00 80 33 8A A2 00 33 0A .5.....E..3...3.
0850 72 00 33 0A 14 00 87 00 26 10 F7 35 01 00 CA 4B r.3.....&..5...K
0860 01 02 94 89 C2 1F C4 4B F7 09 40 0A 03 03 77 09 .......K..@...w.
0870 0C 06 B0 89 04 10 80 15 58 00 F7 35 00 40 AA 4B ........X..5.@.K
0880 02 03 CC 55 40 00 58 00 F7 35 00 10 9C 4B 2C 03 ...U@.X..5...K,.
0890 C1 1D B0 4B 82 11 C5 15 4E 00 C9 A5 20 00 04 03 ...K....N... ...
08A0 52 94 02 03 C5 0A F9 02 0A 8A 82 11 E6 15 3C 19 R.............<.
08B0 26 0A 26 0A 26 0A 81 11 05 10 A6 10 66 10 A6 10 &.&.&.......f...
08C0 E5 88 40 11 07 86 C2 1C A2 00 F7 09 DA 0B 77 09 ..@...........w.
08D0 AC 05 A4 89 86 10 01 11 C1 65 06 00 C2 65 1E 00 .........e...e..
08E0 91 14 91 14 91 14 89 14 58 00 F7 35 04 00 3A 4B ........X..5..:K
08F0 06 03 CC 35 00 40 03 03 F4 1F 34 4B 12 00 58 00 ...5.@....4K..X.
0900 C1 15 02 00 F7 35 02 00 1E 4B 02 03 C1 1F 3E 4B .....5...K....>K
0910 57 20 01 00 03 02 CC 55 00 01 15 01 CC 35 40 00 W .....U.....5@.
0920 43 02 57 20 04 00 06 02 CC 55 00 01 F4 55 04 00 C.W .....U...U..
0930 1C 00 09 01 F4 35 02 00 1C 00 36 02 57 20 03 00 .....5....6.W ..
0940 02 02 CC 55 04 00 58 00 CC 35 00 40 0F 03 F7 35 ...U..X..5.@...5
0950 00 80 D6 4A 29 03 F4 1F F0 4A 14 00 F4 0C 14 00 ...J)....J......
0960 05 86 F7 09 42 0B 77 09 14 05 C4 89 58 00 F7 35 ....B.w.....X..5
0970 02 00 B6 4A 0D 03 C2 1F B4 4A 97 20 03 00 01 02 ...J.....J. ....
0980 C2 89 97 20 01 00 04 02 CC 55 00 40 F4 0A 16 00 ... .....U.@....
0990 58 00 F7 35 00 02 92 4A 08 03 D7 2F A0 4A 01 00 X..5...J.../.J..
09A0 09 02 CC 35 00 40 04 03 B3 89 CC 35 00 40 02 02 ...5.@.....5.@..
09B0 CC 55 00 02 58 00 F7 35 20 00 6E 4A 13 03 C2 1F .U..X..5 .nJ....
09C0 74 4A 97 20 01 00 06 02 CC 35 00 02 0F 03 CC 55 tJ. .....5.....U
09D0 08 00 58 00 97 20 02 00 06 02 CC 35 00 02 06 03 ..X.. .....5....
09E0 CC 55 10 00 58 00 CC 35 00 02 FC 03 C2 89 F7 35 .U..X..5.......5
09F0 10 00 36 4A 03 03 F4 9F 3A 4A 10 00 58 00 F7 35 ..6J....:J..X..5
0A00 00 04 26 4A 03 03 F4 1F 36 4A 18 00 58 00 F7 35 ..&J....6J..X..5
0A10 00 01 16 4A 01 03 C3 89 58 00 CC 35 00 40 13 03 ...J....X..5.@..
0A20 F7 35 00 08 04 4A 0F 03 C2 1F 16 4A 26 10 00 11 .5...J.....J&...
0A30 F7 09 F8 0C 04 10 80 15 02 0B 41 0B 74 20 18 00 ..........A.t ..
0A40 02 83 74 10 18 00 58 00 F7 35 01 00 DA 49 01 03 ..t...X..5...I..
0A50 C3 89 58 00 F7 35 08 00 D0 49 01 03 C3 89 58 00 ..X..5...I....X.
0A60 80 11 03 01                                     ....           

;; fn0A64: 0A64
fn0A64 proc
	mov	r5,r0
	add	@r5,r0
	add	@r5,r0
	tst	(r0)+
	jsr	pc,@#11A6
	mov	#5414,r0
	jmp	@(r0)+
0A76                   C2 9C A2 00 F7 09 2A 0A 33 0A       ......*.3.
0A80 72 00 33 0A 14 00 33 8A A2 00 87 00 26 10 F7 35 r.3...3.....&..5
0A90 01 00 96 49 01 02 94 89 C2 1F 90 49 F7 09 0C 08 ...I.......I....
0AA0 03 02 77 09 D8 03 94 89 04 10 80 15 58 00       ..w.........X. 

;; fn0AAE: 0AAE
fn0AAE proc
	mov	0002(r5),r4
	mov	0002(r4),-(sp)
	mov	@r4,-(sp)
	mov	(sp)+,r4
	jsr	r4,@#1040
0ABE                                           C0 0A               ..
0AC0 80 15 87 00                                     ....           

;; fn0AC4: 0AC4
fn0AC4 proc
	mov	#0101,-(sp)
	br	0AE6
0ACA                               E6 15 04 04 0B 01           ......
0AD0 E6 15 08 08 08 01 E6 15 02 04 05 01 E6 15 01 04 ................
0AE0 02 01                                           ..             

;; fn0AE2: 0AE2
fn0AE2 proc
	mov	#0202,-(sp)

;; fn0AE6: 0AE6
;;   Called from:
;;     0AC8 (in fn0AC4)
;;     0AE2 (in fn0AE2)
fn0AE6 proc
	mov	r3,-(sp)
	mov	@#5426,r3
	clr	-(sp)
	movb	0004(sp),@sp
	cmpb	@sp,#0001
	beq	0B02

;; fn0AF8: 0AF8
;;   Called from:
;;     0AF6 (in fn0AE6)
;;     0AF6 (in fn0AE6)
fn0AF8 proc
	cmpb	@sp,#0008
	beq	0B02

l0AFE:
	add	#0003,@sp

;; fn0B02: 0B02
;;   Called from:
;;     0AF6 (in fn0AE6)
;;     0AF6 (in fn0AE6)
;;     0AFC (in fn0AF8)
;;     0AFE (in fn0AF8)
fn0B02 proc
	cmpb	0004(sp),0005(sp)
	adc	@sp
	mov	(sp)+,00A4(r3)
	tstb	0074(r3)
	beq	0B22

l0B14:
	tst	(sp)+
	mov	(sp)+,0052(r3)
	mov	(sp)+,0044(r3)
	jsr	pc,@(sp)+
	jmp	@(r4)+

l0B22:
	mov	0002(sp),0052(r3)
	mov	0006(sp),0044(r3)
	mov	(sp)+,r3
	tst	(sp)+
	mov	0004(sp),0002(sp)
	mov	(sp)+,0002(sp)
	jmp	@(sp)+

;; fn0B3E: 0B3E
fn0B3E proc
	mov	#0202,-(sp)
	br	0B60

;; fn0B44: 0B44
fn0B44 proc
	mov	#0101,-(sp)
	br	0B60
0B4A                               E6 15 02 04 08 01           ......
0B50 E6 15 01 04 05 01 E6 15 08 08 02 01 E6 15 04 04 ................

;; fn0B60: 0B60
;;   Called from:
;;     0B42 (in fn0B3E)
;;     0B48 (in fn0B44)
fn0B60 proc
	mov	r3,-(sp)
	mov	@#5426,r3
	clr	-(sp)
	movb	0004(sp),@sp
	cmpb	@sp,#0001
	beq	0B7C

l0B72:
	cmpb	@sp,#0008
	beq	0B7C

l0B78:
	add	#0003,@sp

l0B7C:
	cmpb	0004(sp),0005(sp)
	adc	@sp
	mov	(sp)+,00A4(r3)
	tstb	0074(r3)
	beq	0BA4

l0B8E:
	tst	(sp)+
	mov	(sp)+,0052(r3)
	mov	(sp)+,0044(r3)
	mov	@(sp)+,005A(r3)
	mov	#0BEC,007E(r3)
	br	0BC6

l0BA4:
	mov	r0,-(sp)
	mov	sp,r0
	cmp	(r0)+,(r0)+
	mov	(r0)+,0052(r3)
	mov	(r0)+,007E(r3)
	mov	(r0)+,0044(r3)
	mov	@(r0)+,005A(r3)
	mov	(sp)+,r0
	mov	(sp)+,0006(sp)
	add	#0006,sp

l0BC4:
	mov	(sp)+,r3

l0BC6:
	jsr	pc,@(sp)+
	mov	r3,-(sp)
	mov	r0,-(sp)
	mov	@#5426,r3
	movb	0053(r3),r0
	add	r0,0044(r3)
	mov	(sp)+,r0
	dec	005A(r3)
	bne	0BC4

l0BE0:
	mov	@sp,-(sp)
	mov	007E(r3),0002(sp)
	mov	(sp)+,r3
	jmp	@(sp)+
0BEC                                     5C 00 C2 15             \...
0BF0 07 00 02 01 C2 15 09 80 81 15 80 15 83 15 66 10 ..............f.
0C00 A6 10 01 0A F7 09 42 00 FD 03 CE 0B 0B 80 C2 25 ......B........%
0C10 0B 00 05 03 C2 25 0D 00 05 02 CE 65 00 40 F7 09 .....%.....e.@..
0C20 28 00 04 03 C2 E5 10 00 8E A0 0B 82 C1 0C 09 87 (...............
0C30 CE 0B 01 80 42 60 C1 0C 04 87 C1 0C 02 87 81 60 ....B`.........`
0C40 EE 86 D6 0B                                     ....           

l0C44:
	setflags	#01
	bic	r1,r1
	jsr	r1,@(sp)+

;; fn0C4A: 0C4A
fn0C4A proc
	dec	r0
	bpl	0C64

l0C4E:
	tst	(sp)+
	asl	(sp)+
	bcc	0C62

l0C54:
	clrflags	#01
	bpl	0C5A

l0C58:
	neg	r1

l0C5A:
	ror	r1
	rol	r1
	bvs	0C44

l0C60:
	clrflags	#01

l0C62:
	jsr	r1,@(sp)+

l0C64:
	movb	(r3)+,r2
	bic	#FF80,r2
	sub	#0020,r2
	rts	pc
0C70 C0 15 04 00 02 01 C0 15 05 80 81 11 C1 65 06 00 .............e..
0C80 42 12 89 15 43 18 49 11 45 18 09 11 C2 60 E6 10 B...C.I.E....`..
0C90 C1 15 2D 20 C0 0C 04 86 C5 0B 02 04 05 0B C1 00 ..- ............
0CA0 01 8A 04 0A 44 0A 45 0C FE 86 07 03 41 8C 40 A0 ....D.E.....A.@.
0CB0 01 87 01 E0 44 0C C5 0C F9 02 44 0A C3 0A 16 81 ....D.....D.....
0CC0 C1 65 30 00 62 90 05 11 EB 02 04 01 C1 00 62 90 .e0.b.........b.
0CD0 C1 15 20 20 C3 0A FA 04 01 8A C1 25 00 2D 06 03 ..  .......%.-..
0CE0 D6 0B 84 15 85 15 87 00 D2 95 2A 00 CE 0A FC 04 ..........*.....
0CF0 56 0A F7 01                                     V...           

;; fn0CF4: 0CF4
fn0CF4 proc
	cmpb	#0001,@r5
	beq	0CFE

l0CFA:
	trap	#90
	br	0D50

l0CFE:
	cmp	(r5)+,r0
	mov	@r5,r0
	tst	-(sp)
	mov	sp,@sp
	tst	-(sp)
	mov	sp,@sp
	tst	-(sp)
	mov	sp,@sp
	mov	#0003,-(sp)
	mov	sp,r5
	mov	r0,-(sp)
	jsr	pc,@#15CC
	mov	(sp)+,r0
	tst	(sp)+
	mov	@sp,r1
	asl	r1
	add	(sp)+,r1
	mov	(sp)+,r2
	jsr	pc,@#0D3E
	movb	#002D,(r0)+
	add	#0D4F,r1
	movb	(r1)+,(r0)+
	movb	(r1)+,(r0)+
	movb	(r1)+,(r0)+
	movb	#002D,(r0)+
	mov	(sp)+,r2

;; fn0D3E: 0D3E
;;   Called from:
;;     0D26 (in fn0CF4)
;;     0D3C (in fn0CF4)
fn0D3E proc
	swab	r2

l0D40:
	add	#F601,r2
	bpl	0D40

l0D46:
	add	#3A2F,r2
	movb	r2,(r0)+
	swab	r2
	movb	r2,(r0)+

l0D50:
	rts	pc
0D52       4A 41 4E 46 45 42 4D 41 52 41 50 52 4D 41   JANFEBMARAPRMA
0D60 59 4A 55 4E 4A 55 4C 41 55 47 53 45 50 4F 43 54 YJUNJULAUGSEPOCT
0D70 4E 4F 56 44 45 43 E6 15 AA 12                   NOVDEC....     

;; fn0D7A: 0D7A
fn0D7A proc
	jsr	r3,@#123C
0D7E                                           F7 09               ..
0D80 DC 06 02 02 C8 55 00 82 C8 0B 07 81 F0 0B 16 00 .....U..........
0D90 02 03 F0 0A 16 00 C8 55 00 80 DE 09 E6 15 9E 1A .......U........
0DA0 F3 15 AE 0D 60 00 C8 35 00 02 03 02 A0 89 F7 09 ....`..5........
0DB0 18 05 F3 1C 1A 00 1C 00 F3 10 18 00 F3 E5 03 00 ................
0DC0 18 00 87 00 E6 15 AA 12                         ........       

;; fn0DC8: 0DC8
fn0DC8 proc
	jsr	r3,@#123C
0DCC                                     F7 09 8E 06             ....
0DD0 02 02 C8 55 00 02 C8 0B 05 80 C8 45 00 80 C8 8B ...U.......E....
0DE0 01 81 99 89 DE 09 F3 15 AE 17 60 00 C8 35 00 02 ..........`..5..
0DF0 01 02 A0 89 77 00 A6 0C 01 17 01 01 01 15 40 14 ....w.........@.
0E00 41 12 82 15 83 15 33 01 00 15 01 0A FA 01       A.....3....... 

;; fn0E0E: 0E0E
fn0E0E proc
	mov	@#5426,r4
	add	#002A,r4
	mov	(sp)+,@r4
	mov	(sp)+,r2
	mov	(sp)+,r3
	mov	(sp)+,r0
	mov	(sp)+,r1
	br	0E6E
0E22       01 17 01 01 01 15 40 14 41 12 04 01 26 0A   ......@.A...&.
0E30 26 15 80 15 81 15 02 15 03 0A 19 01 01 17 01 01 &...............
0E40 01 15 40 14 41 12 04 01 26 0A 26 15 80 15 81 15 ..@.A...&.&.....
0E50 03 17 0B 01 01 17 01 01 01 15 40 14 41 12 04 01 ..........@.A...
0E60 26 0A 26 15 80 15 81 15 03 15 C2 14 C3 12       &.&........... 

l0E6E:
	cmp	r0,r2
	bne	0E76

l0E72:
	cmp	r1,r3
	beq	0E7C

l0E76:
	bis	r2,r0
	bcc	0E7C

l0E7A:
	neg	r0

l0E7C:
	jmp	@(r4)+
0E7E                                           C0 1C               ..
0E80 72 00 01 02 85 00 04 10 40 13 C0 45 80 FF F7 09 r.......@..E....
0E90 BA F6                                           ..             

l0E92:
	mov	0064(r3),sp
	mov	#0EF4,-(sp)
	mov	r3,-(sp)
	tstb	0074(r3)
	bne	0EDA

l0EA2:
	mov	r4,0002(sp)
	br	0EDA

;; fn0EA8: 0EA8
fn0EA8 proc
	mov	r3,-(sp)
	mov	@#5426,r3
	clr	0044(r3)
	tstb	0074(r3)
	bne	0EC2

l0EB8:
	mov	0002(sp),007E(r3)
	mov	(sp)+,r3
	tst	(sp)+

l0EC2:
	jsr	pc,@(sp)+
	mov	#0EF4,-(sp)
	mov	r3,-(sp)
	mov	@#5426,r3
	tstb	0074(r3)
	bne	0EDA

l0ED4:
	mov	007E(r3),0002(sp)

l0EDA:
	clr	0072(r3)
	clr	0070(r3)
	clr	0014(r3)
	mov	0058(r3),000C(r3)
	clrb	00A2(r3)
	mov	(sp)+,r3
	rts	pc
0EF4             5C 00 C1 15                             \...       

;; fn0EF8: 0EF8
;;   Called from:
;;     243A (in fn243A)
;;     2B90 (in fn2B90)
;;     2E20 (in fn2E20)
;;     2EC4 (in fn2EC4)
;;     3220 (in fn3220)
;;     34AC (in fn34AC)
;;     395C (in fn395C)
;;     3B3C (in fn3B3C)
;;     3E12 (in fn3E12)
;;     3F42 (in fn3F42)
;;     4030 (in fn4030)
;;     4072 (in fn4072)
;;     413C (in fn413C)
;;     4180 (in fn4180)
;;     4230 (in fn4230)
;;     4534 (in fn4534)
;;     457C (in fn457C)
;;     45C8 (in fn45C8)
fn0EF8 proc
	clr	r1
	cmp	(sp)+,r0
	mov	(r4)+,r0
	mov	@#5426,r3
	movb	0074(r3),-(sp)
	mov	000E(r3),-(sp)
	mov	@r3,-(sp)
	mov	(r0)+,-(sp)
	mov	(r0)+,-(sp)
	clr	@r3
	mov	sp,000E(r3)
	mov	r1,-(sp)
	mov	(r5)+,r1
	beq	0F2C

l0F1C:
	mov	(r0)+,r2
	beq	0F2C

l0F20:
	mov	@r0,r0

l0F22:
	mov	(r5)+,(r0)+
	dec	r1
	beq	0F2C

l0F28:
	dec	r2
	bne	0F22

l0F2C:
	movb	(sp)+,0074(r3)
	beq	0F34

l0F32:
	jmp	@(r4)+

l0F34:
	jsr	pc,@r4
	cmp	(sp)+,(sp)+
	mov	@#5426,r4
	mov	(sp)+,@r4
	mov	(sp)+,000E(r4)
	movb	(sp)+,0074(r4)
	rts	pc

;; fn0F48: 0F48
fn0F48 proc
	cmpb	@r5,#0002
	bne	0F98

l0F4E:
	tst	(r5)+
	mov	(r5)+,r2
	mov	(r5)+,r3
	mov	@r2,r0
	mov	@r3,r1
	beq	0F90

l0F5A:
	asl	r1
	rol	r0
	add	@r2,r0
	add	@r3,r1
	adc	r0
	add	@r3,r0
	bpl	0F6C

l0F68:
	add	#8000,r0

l0F6C:
	mov	r0,@r2
	mov	r1,@r3
	mov	#0081,r2

l0F74:
	asl	r1
	rol	r0
	bcs	0F7E

l0F7A:
	dec	r2
	br	0F74

l0F7E:
	clrb	r1
	bisb	r0,r1
	swab	r1
	clrb	r0
	bisb	r2,r0
	swab	r0
	ror	r0
	ror	r1
	br	0F9A

l0F90:
	mov	#0003,r1
	inc	r0
	br	0F6C

l0F98:
	trap	#90

l0F9A:
	rts	pc

;; fn0F9C: 0F9C
fn0F9C proc
	jmp	@#13AA
0FA0 E6 15 AA 12                                     ....           

;; fn0FA4: 0FA4
fn0FA4 proc
	mov	#1020,-(sp)
	br	0FB2
0FAA                               E6 15 AA 12                 .... 

;; fn0FAE: 0FAE
fn0FAE proc
	mov	#101E,-(sp)

;; fn0FB2: 0FB2
;;   Called from:
;;     0FA8 (in fn0FA4)
;;     0FAE (in fn0FAE)
fn0FB2 proc
	mov	r3,-(sp)
	mov	sp,r3
	add	#000C,r3
	mov	r3,-(sp)
	mov	@#5426,r3
	mov	(sp)+,0064(r3)
	tst	0014(r3)
	beq	0FCC

l0FCA:
	trap	#9A

l0FCC:
	mov	0002(sp),0014(r3)
	mov	0006(sp),001C(r3)
	mov	(sp)+,r3
	tst	(sp)+
	mov	(sp)+,@sp
	jsr	r3,@#123C
0FE2       C3 1D 40 44 F3 1C 1C 00 1A 00 F3 1C 1C 00   ..@D..........
0FF0 18 00 B3 15 12 00 B3 67 18 00 F3 10 56 00 F3 15 .......g....V...
1000 14 10 60 00 F3 15 01 00 62 00 F3 1C 0C 00 58 00 ..`.....b.....X.
1010 77 00 8E 0A F3 0A 62 00 01 02 87 00 AC 89 00 00 w.....b.........
1020 00 80 C4 1D 00 44 C4 65 2A 00 8C 15 09 01 C4 1D .....D.e*.......
1030 F4 43 C4 65 2A 00 8C 15 B6 15 02 00 B6 15 02 00 .C.e*...........

l1040:
	mov	(sp)+,r0
	mov	(sp)+,r1
	clr	r3
	asl	r0
	ror	r3
	setflags	#01
	rorb	r0
	mov	r0,r2
	clrb	r2
	bic	r2,r0
	swab	r2
	bpl	1060

l1058:
	cmp	#0091,r2
	bhi	106A

l105E:
	trap	#81

l1060:
	clr	r0
	br	107E

l1064:
	asl	r1
	rol	r0
	dec	r2

l106A:
	cmp	#0088,r2
	blt	1064

l1070:
	beq	1078

l1072:
	inc	r2
	asr	r0
	bne	106A

l1078:
	tst	r3
	bpl	107E

l107C:
	neg	r0

l107E:
	tst	r0
	beq	1086

l1082:
	add	r0,r3
	bmi	105E

l1086:
	mov	r0,-(sp)
	jmp	@(r4)+
108A                               80 93 0E 10 5C 00           ....\.
1090 7F 7F 7F 7F 00 7C FF 7F 7F 7F 7C FF 7F 7C 7F 7F .....|....|..|..
10A0 7F 7F 7F 7F 7F 7F 7F 7F 7F 7F 7F 7F 7F 7F 7F 7F ................
10B0 7F 7F 7F 7F 7F 7F 7F 7F 7F 7F 7F 7F 7F 7F 7F 7F ................
10C0 7F 7F 7F 7F 7F 00 7F 7F 7F 7F 7F 7F 7F 7F 7F 7F ................
10D0 7F 7F 7F 00 7F 0B 31 31 00 06 36 00 04 34 00 0C ......11..6..4..
10E0 31 32 00 02 32 00 03 33 00 10 31 36 00 0D 31 33 12..2..3..16..13
10F0 00 01 31 00 0A 31 30 00 05 35 00 0E 31 34 00 0F ..1..10..5..14..
1100 31 35 00 07 37 00 35 35 33 00 3D 36 31 00 14 32 15..7.553.=61..2
1110 30 00 15 32 31 00 16 32 32 00 17 32 33 00 3F 36 0..21..22..23.?6
1120 33 00 18 32 34 00 19 32 35 00 1A 32 36 00 2D 34 3..24..25..26.-4
1130 35 00 1B 32 37 00 1F 33 31 00 1C 32 38 00 1D 32 5..27..31..28..2
1140 39 00 24 33 36 00 2C 34 34 00 20 33 32 00 21 33 9.$36.,44. 32.!3
1150 33 00 22 33 34 00 25 33 37 00 26 33 38 00 27 33 3."34.%37.&38.'3
1160 39 00 28 34 30 00 29 34 31 00 23 33 35 00 1E 33 9.(40.)41.#35..3
1170 30 00 2A 34 32 00 2E 34 36 00 2B 34 33 00 31 34 0.*42..46.+43.14
1180 39 00 2F 34 37 00 30 34 38 00 40 36 34 00 41 36 9./47.048.@64.A6
1190 35 00 42 36 36 00 43 36 37 00 33 35 31 00 32 35 5.B66.C67.351.25
11A0 30 00 00 30 00 00                               0..0..         

;; fn11A6: 11A6
;;   Called from:
;;     0820 (in fn0818)
;;     0A6C (in fn0A64)
fn11A6 proc
	mov	@#5426,r3
	mov	r0,0064(r3)
	mov	000C(r3),0058(r3)
	mov	#541C,r0
	mov	#542C,r1
	mov	#5426,r2
	cmp	-(sp),(r5)+

l11C2:
	mov	-(r2),r3
	beq	11E4

l11C6:
	mov	(r0)+,r4
	mov	@(r5)+,-(r1)
	mov	@r1,@sp

l11CC:
	beq	11C2

l11CE:
	clrflags	#01
	ror	@sp
	bcc	11DC

l11D4:
	bit	#0001,r4
	beq	11DC

l11DA:
	mov	(r5)+,@r3

l11DC:
	tst	(r3)+
	ror	r4
	tst	@sp
	br	11CC

l11E4:
	tst	(sp)+
	mov	@#5426,r3
	rts	pc
11EC                                     F7 35 80 00             .5..
11F0 38 42 03 03 F3 1F 42 42 72 00 58 00 B3 89 F7 35 8B....BBr.X....5
1200 40 00 26 42 1A 03 CC 45 04 00 F4 45 01 00 1C 00 @.&B...E...E....
1210 C1 1F 24 42 57 20 01 00 03 03 CC 35 40 00 EE 02 ..$BW .....5@...
1220 57 20 02 00 03 02 CC 55 04 00 07 01 CC 35 04 00 W .....U.....5..
1230 E5 02 57 20 03 00 01 02 C3 89 58 00             ..W ......X.   

l123C:
	mov	r2,-(sp)
	mov	sp,r2
	mov	r1,-(sp)
	mov	r0,-(sp)
	mov	#125A,-(sp)
	cmp	(r2)+,(r2)+
	mov	(r2)+,r0
	tst	(r2)+
	mov	@r2,-(sp)
	mov	r0,@r2
	mov	-(r2),-(sp)
	mov	r5,@r2
	mov	r4,-(r2)
	jmp	@r3
125A                               85 15 80 15 81 15           ......
1260 82 15 83 15 84 15 A6 1D 02 00 76 11 04 00 85 1D ..........v.....
1270 02 00 8E 15 DE 09 A6 1D 02 00 B6 1D 02 00 04 00 ................
1280 76 11 02 00 85 15 26 11 E6 10 A6 10 66 10 26 10 v.....&.....f.&.
1290 CD 09 C3 1D 90 41 F3 0B 44 00 DF 02 80 15 81 15 .....A..D.......
12A0 82 15 83 15 84 15 85 15 87 00 5C 00             ..........\.   

;; fn12AC: 12AC
fn12AC proc
	mov	@#5426,r3
	movb	r2,00A2(r3)
	tst	0014(r3)
	beq	12BC

l12BA:
	trap	#9A

l12BC:
	jsr	pc,@#1420
	mov	r0,0014(r3)
	bit	#0800,@r0
	rts	pc

;; fn12CA: 12CA
fn12CA proc
	mov	r5,-(sp)
	mov	r4,-(sp)
	mov	0014(r3),r4
	mov	001A(r3),r1
	tstb	@r4
	bpl	12E8

l12DA:
	mov	#138E,r0
	emt	#E9
	mov	0054(r3),r2
	mov	sp,0054(r3)

l12E8:
	mov	#000A,r0
	bit	#0020,@r4
	beq	131E

l12F2:
	movb	(r1)+,r5
	cmpb	#0031,r5
	bne	12FE

l12FA:
	tst	(r0)+
	br	1326

l12FE:
	cmpb	#002B,r5
	beq	132A

l1304:
	cmpb	#0024,r5
	bne	1314

l130A:
	dec	001C(r3)
	clr	0054(r3)
	br	131E

l1314:
	cmpb	#0030,r5
	bne	131E

l131A:
	jsr	pc,@#1366

l131E:
	tstb	@r4
	bpl	1326

l1322:
	tst	r2
	beq	132A

l1326:
	jsr	pc,@#1366

l132A:
	tstb	@r4
	bpl	134C

l132E:
	cmp	r1,001C(r3)
	bcc	1346

l1334:
	movb	@001C(r3),r5
	movb	#0080,@001C(r3)
	mov	r1,r0
	emt	#E9
	movb	r5,@001C(r3)

l1346:
	mov	(sp)+,r4
	mov	(sp)+,r5
	rts	pc

l134C:
	cmp	r1,001C(r3)
	bcc	1346

l1352:
	movb	(r1)+,r0
	jsr	pc,@#1370
	br	134C
135A                               73 20 1C 00 E3 83           s ....
1360 84 15 85 15 87 00                               ......         

;; fn1366: 1366
;;   Called from:
;;     131A (in fn12CA)
;;     1326 (in fn12CA)
fn1366 proc
	tstb	@r4
	bpl	1370

l136A:
	emt	#E1
	bcs	136A

l136E:
	rts	pc

;; fn1370: 1370
;;   Called from:
;;     1354 (in fn12CA)
;;     1368 (in fn1366)
fn1370 proc
	mov	000E(r4),r2
	add	0002(r4),r2
	movb	r0,@r2
	inc	000E(r4)
	bit	#01FF,000E(r4)
	bne	136E

l1386:
	clr	000E(r4)
	jmp	@#1836
138E                                           80 00               ..
1390 D6 0B 84 11 02 01 C4 15 F0 13 C0 15 F2 13 E9 88 ................
13A0 C0 15 F4 13 E9 88 00 15 E9 88                   ..........     

l13AA:
	bisb	#0001,@#002B
	mov	@#5426,r3
	inc	0066(r3)
	mov	0004(r3),r4

l13BC:
	cmp	r4,0002(r3)
	bcc	13DC

l13C2:
	movb	(r4)+,r2
	beq	13BC

l13C6:
	cmp	0066(r3),#0002
	bne	13D6

l13CE:
	clrb	-(r4)
	dec	0066(r3)
	br	13BC

l13D6:
	jsr	pc,@(1DAA)
	br	13BC

l13DC:
	mov	006E(r3),r0
	beq	13E4

l13E2:
	jmp	@r0

l13E4:
	bit	#0800,@#0024
	bne	13EE

l13EC:
	inc	r0

l13EE:
	emt	#E8
13F0 F2 13 00 00 53 54 4F 50 20 2D 2D 20 80 00       ....STOP -- .. 

;; fn13FE: 13FE
;;   Called from:
;;     1526 (in fn14A8)
;;     4686 (in fn45F6)
fn13FE proc
	emt	#A0
	emt	#A1
	emt	#A2
	emt	#A3
	emt	#A4
	emt	#A5
	emt	#A6
	emt	#A7
	emt	#A8
	emt	#A9
	emt	#AA
	emt	#AB
	emt	#AC
	emt	#AD
	emt	#AE
	emt	#AF
	rts	pc

;; fn1420: 1420
;;   Called from:
;;     12BC (in fn12AC)
;;     1482 (in fn145E)
;;     14B6 (in fn14A8)
;;     158A (in fn14A8)
fn1420 proc
	tst	r2
	ble	142A

l1424:
	cmp	#0063,r2
	bge	142C

l142A:
	trap	#94

l142C:
	mov	0004(r3),-(sp)
	mov	@sp,r1

l1432:
	cmpb	r2,(r1)+
	beq	144A

l1436:
	cmp	r1,0002(r3)
	bcs	1432

l143C:
	mov	@sp,r1

l143E:
	tstb	(r1)+
	beq	144A

l1442:
	cmp	r1,0002(r3)
	bcs	143E

l1448:
	trap	#95

l144A:
	movb	r2,-(r1)
	mov	0006(r3),r0
	sub	(sp)+,r1
	beq	145C

l1454:
	add	#0020,r0
	dec	r1
	bne	1454

l145C:
	rts	pc

;; fn145E: 145E
fn145E proc
	mov	@#5426,r3
	mov	sp,r0
	add	#0016,r0
	mov	r0,0064(r3)
	movb	r2,00A2(r3)
	tst	0014(r3)
	beq	1478

l1476:
	trap	#9A

l1478:
	mov	(sp)+,r0
	mov	(sp)+,0012(r3)
	mov	@(sp)+,r2
	mov	r0,-(sp)
	jsr	pc,@#1420
	mov	r0,0014(r3)
	bit	#0800,@r0
	jsr	pc,@(sp)+
	bit	#0800,@r0
	bne	149A

l1496:
	jsr	pc,@#45F6

l149A:
	mov	0002(r3),001A(r3)
	mov	000C(r3),0058(r3)
	rts	pc

;; fn14A8: 14A8
fn14A8 proc
	mov	r5,-(sp)
	mov	r4,-(sp)
	mov	r2,-(sp)
	mov	@#5426,r3
	movb	r2,00A2(r3)
	jsr	pc,@#1420
	mov	r0,0014(r3)
	bit	#0800,@r0
	beq	15A0

l14C4:
	tstb	@r0
	bmi	15C4

l14C8:
	jsr	pc,@#1D30
	bit	#0200,@r4
	beq	1526

l14D2:
	mov	0018(r4),0016(r4)
	beq	1526

l14DA:
	mov	0002(r4),r2
	mov	#0100,r5

l14E2:
	clr	(r2)+
	dec	r5
	bne	14E2

l14E8:
	bit	#0100,@r4
	bne	14FC

l14EE:
	cmp	0016(r4),001A(r4)
	bhi	1526

l14F6:
	jsr	pc,@#1836
	br	14EE

l14FC:
	mov	#1520,0070(r3)
	tstb	0074(r3)
	beq	150E

l1508:
	mov	#151E,0072(r3)

l150E:
	mov	r4,-(sp)
	movb	00A2(r3),-(sp)
	mov	sp,0064(r3)

l1518:
	jsr	pc,@#1836
	br	1518
151E                                           20 15                .
1520 B3 95 A2 00 84 15                               ......         

l1526:
	jsr	pc,@#13FE
	mov	0004(r4),r5
	asl	r5
	mov	0002(r4),r2
	bit	#0001,@r4
	beq	153E

l153A:
	sub	#0200,r2

l153E:
	mov	r2,-(sp)
	mov	r2,r0
	add	r5,r0

l1544:
	mov	(r0)+,(r2)+
	cmp	r0,000C(r3)
	bcs	1544

l154C:
	sub	r5,000C(r3)
	mov	#0600,r0
	bit	#0004,@r4
	beq	155E

l155A:
	mov	#0300,r0

l155E:
	movb	0011(r4),r1
	bisb	r1,r0
	emt	#FC
	clr	r0
	setflags	#01

l156A:
	rol	r0
	dec	r1
	bpl	156A

l1570:
	bic	r0,0010(r3)

l1574:
	clr	0072(r3)
	clr	0070(r3)
	mov	0004(r3),r4

l1580:
	cmp	r4,0002(r3)
	bcc	159A

l1586:
	movb	(r4)+,r2
	beq	1580

l158A:
	jsr	pc,@#1420
	cmp	@sp,0002(r0)
	bcc	1580

l1594:
	sub	r5,0002(r0)
	br	1580

l159A:
	tst	(sp)+
	mov	0014(r3),r0

l15A0:
	mov	#0010,r4

l15A4:
	clr	(r0)+
	dec	r4
	bne	15A4

l15AA:
	mov	0004(r3),r0
	mov	(sp)+,r2

l15B0:
	cmpb	(r0)+,r2
	bne	15B0

l15B4:
	clrb	-(r0)
	clr	0014(r3)
	clrb	00A2(r3)
	mov	(sp)+,r4
	mov	(sp)+,r5
	rts	pc

l15C4:
	mov	r0,r4
	mov	#FFFF,-(sp)
	br	1574

;; fn15CC: 15CC
;;   Called from:
;;     0D16 (in fn0CF4)
fn15CC proc
	cmpb	#0003,@r5
	beq	15D6

l15D2:
	trap	#90
	br	1614

l15D6:
	cmp	-(sp),-(sp)
	mov	sp,r0
	mov	#1100,@r0
	mov	sp,0002(r0)
	emt	#FD
	cmp	(sp)+,(sp)+
	mov	#0A00,r0
	emt	#FC
	mov	#FFE0,r3
	mov	r0,r2
	beq	15FA

l15F4:
	bic	r3,r2
	add	#0048,r2

l15FA:
	asr	r0
	asr	r0
	movb	r0,r1
	asr	r1
	asr	r1
	asr	r1
	bic	r3,r1
	swab	r0
	bic	r3,r0
	cmp	(r5)+,r0
	mov	r0,@(r5)+
	mov	r1,@(r5)+
	mov	r2,@(r5)+

l1614:
	rts	pc
1616                   E6 15 AA 12 F7 08 1E FC F7 09       ..........
1620 3C FE 02 02 F0 0A 16 00 C8 45 00 80 0B 01 E6 15 <........E......
1630 AA 12 F7 08 06 FC F7 09 24 FE 02 02 F0 0A 16 00 ........$.......
1640 C8 55 00 80 C8 35 00 40 01 02 A5 89 DE 09 C8 35 .U...5.@.......5
1650 80 04 01 03 A6 89 DE 09 C3 1D CA 3D C0 1C 14 00 ...........=....
1660 26 11 F7 09 B8 00 04 10 F7 09 6E 00 05 01 26 11 &.........n...&.
1670 C3 1D B2 3D C4 1C 14 00 C0 9C 53 00 C1 1C 44 00 ...=......S...D.
1680 09 02 CC 0B 02 81 84 15 87 00 F3 0B 5C 00 FB 03 ............\...
1690 C1 15 D8 16 F3 0B 5C 00 01 06 A7 89 F4 25 00 02 ......\......%..
16A0 0E 00 03 82 02 0A F7 09 30 00 02 1D 0E 00 02 6D ........0......m
16B0 02 00 CC 0B 04 80 CC 55 02 00 4A 94 01 01 91 92 .......U..J.....
16C0 B4 0A 0E 00 F3 0A 5C 00 F3 0B 44 00 DE 03 C0 0A ......\...D.....
16D0 E1 02 84 15 DE 09 CB 01 00 00                   ..........     

;; fn16DA: 16DA
fn16DA proc
	mov	r2,000E(r4)
	cmp	0016(r4),005E(r3)
	beq	1718

l16E6:
	bit	#0002,@r4
	beq	16F8

l16EC:
	jsr	pc,@#1836
	clr	0018(r4)
	bic	#0002,@r4

l16F8:
	mov	005E(r3),0016(r4)
	tst	@r4
	bpl	1710

l1702:
	cmp	#0200,005C(r3)
	bgt	1710

l170A:
	tst	000E(r4)
	beq	1718

l1710:
	jsr	pc,@#18BE
	dec	0016(r4)

l1718:
	inc	005E(r3)
	rts	pc

;; fn171E: 171E
fn171E proc
	mov	@0012(r3),r2
	mov	r2,@0012(r0)
	inc	@0012(r0)
	dec	r2

;; fn172C: 172C
;;   Called from:
;;     172A (in fn171E)
fn172C proc
	mov	0014(r0),r3
	clr	r1
	mov	r5,-(sp)
	clr	r4
	clr	r5

l1738:
	asr	r3
	bcs	1766

l173C:
	bne	176C

l173E:
	mov	r1,r2
	clrb	r1
	bic	r1,r2
	swab	r1
	swab	r4
	beq	174C

l174A:
	trap	#A8

l174C:
	bis	r4,r1
	mov	(sp)+,r5
	mov	@#5426,r3
	mov	r1,005E(r3)
	mov	0014(r0),005C(r3)
	asl	r2
	asl	005C(r3)
	rts	pc

l1766:
	add	r2,r1
	adc	r4
	add	r5,r4

l176C:
	asl	r2
	rol	r5
	br	1738
1772       E6 15 AA 12 F7 09 82 05 82 1F 06 00 F7 09   ..............
1780 2A FB 01 03 A9 89 B0 15 12 00 B0 17 14 00 82 17 *...............
1790 0E 11 F7 09 96 FF 02 0B 41 0B 70 10 18 00 C8 55 ........A.p....U
17A0 00 40 33 0A 14 00 33 8A A2 00 84 15 87 00 26 11 .@3...3.......&.
17B0 C4 1C 14 00 C1 1C 1A 00 73 10 1C 00 F4 35 FF 01 ........s....5..
17C0 0E 00 19 02 CC 35 80 00 12 03 F3 0B 54 00 05 03 .....5......T...
17D0 C0 15 34 18 E9 88 33 0A 54 00 E0 88 FE 87 C0 A5 ..4...3.T.......
17E0 0D 00 10 02 E0 88 FE 87 C0 15 0D 00 0B 01 F7 09 ................
17F0 CC 00 34 0A 0E 00 02 1D 0E 00 02 6D 02 00 80 92 ..4........m....
1800 B4 0A 0E 00 C0 45 80 FF D9 03 C0 25 0A 00 D6 03 .....E.....%....
1810 C0 25 0D 00 04 03 11 90 43 20 D0 87 96 89 C9 95 .%......C ......
1820 20 00 73 10 18 00 84 15 E1 A5 1A 00 02 02 77 00  .s...........w.
1830 0C 01 87 00 0A 80                               ......         

;; fn1836: 1836
;;   Called from:
;;     138A (in fn1370)
;;     14F6 (in fn14A8)
;;     1518 (in fn14A8)
;;     16EC (in fn16DA)
;;     1D80 (in fn1D30)
fn1836 proc
	mov	r0,-(sp)
	mov	0016(r4),0018(r4)
	inc	0018(r4)
	cmp	0016(r4),001A(r4)
	bcs	1850

l184A:
	mov	0016(r4),001A(r4)

l1850:
	bit	#0040,@r4
	beq	1860

l1856:
	bic	#8000,@r4
	clr	0018(r4)
	trap	#A3

l1860:
	jsr	pc,@#1900
	mov	#099E,-(sp)
	mov	#8890,-(sp)
	bisb	0011(r4),@sp
	mov	#1888,-(sp)
	mov	#0001,-(sp)
	mov	#0100,-(sp)
	mov	0002(r4),-(sp)
	mov	0016(r4),r0
	jmp	0008(sp)
1888                         43 87 F4 A5 01 00 10 00         C.......
1890 03 02 F7 09 6A 00 0E 01 CC 35 01 00 06 03 CC 45 ....j....5.....E
18A0 01 00 F4 E5 00 02 02 00 05 01 CC 55 01 00 F4 65 ...........U...e
18B0 00 02 02 00 B4 0A 16 00 02 0A 80 15 87 00       .............. 

;; fn18BE: 18BE
;;   Called from:
;;     1710 (in fn16DA)
fn18BE proc
	mov	r0,-(sp)
	tst	0018(r4)
	beq	18CE

l18C6:
	cmp	0016(r4),0018(r4)
	bcc	1932

l18CE:
	jsr	pc,@#1900
	mov	#099E,-(sp)
	mov	#8880,-(sp)
	bisb	0011(r4),@sp
	mov	#18F4,-(sp)
	clr	-(sp)
	mov	#0100,-(sp)
	mov	0002(r4),-(sp)
	mov	0016(r4),r0
	jmp	0008(sp)
18F4             0F 87                                   ..         

l18F6:
	inc	0016(r4)
	clr	r2
	mov	(sp)+,r0

l18FE:
	rts	pc

;; fn1900: 1900
;;   Called from:
;;     1860 (in fn1836)
;;     18CE (in fn18BE)
fn1900 proc
	mov	#099E,-(sp)
	mov	#88A0,-(sp)
	bisb	0011(r4),@sp
	jsr	pc,@sp
	bcc	18FE

l1910:
	bic	#8002,@r4
	bit	#4000,@r4
	beq	1920

l191A:
	mov	#FFFF,0016(r4)

l1920:
	tstb	@#002A
	beq	1932

l1926:
	clr	0070(r3)
	mov	0072(r3),r4
	bne	194A

l1930:
	trap	#97

;; fn1932: 1932
;;   Called from:
;;     18CC (in fn18BE)
;;     190E (in fn1900)
;;     1924 (in fn1900)
;;     192E (in fn1900)
;;     1930 (in fn1900)
fn1932 proc
	bit	#0008,001C(r4)
	bne	18F6

l193A:
	bis	#1000,@r4
	clr	0072(r3)
	mov	0070(r3),r4
	bne	194A

l1948:
	trap	#98

l194A:
	jmp	@#0E92

;; fn194E: 194E
fn194E proc
	clr	r1
	bisb	@0012(r3),r1
	inc	0012(r3)
	rts	pc
195A                               F7 09 0C 00 00 92           ......
1960 87 00 C0 95 20 20                               ....           

;; fn1966: 1966
;;   Called from:
;;     1996 (in fn197A)
fn1966 proc
	movb	r0,@001C(r3)

;; fn196A: 196A
;;   Called from:
;;     1966 (in fn1966)
fn196A proc
	mov	001C(r3),r0
	cmp	r0,0018(r3)
	bcc	1978

l1974:
	inc	001C(r3)

l1978:
	rts	pc

;; fn197A: 197A
fn197A proc
	cmp	001C(r3),0046(r3)
	bcc	1988

l1982:
	mov	0046(r3),001C(r3)

l1988:
	clr	0046(r3)
	tst	0056(r3)
	bne	199E

l1992:
	movb	#000D,r0
	jsr	pc,@#1966
	jmp	@0060(r3)

l199E:
	jsr	pc,@0060(r3)
	clr	0056(r3)
	tstb	@0014(r3)
	bpl	19B0

l19AC:
	clr	0054(r3)

l19B0:
	rts	pc
19B2       C1 6C 1A 00 C1 0A F3 2C 1C 00 46 00 03 83   .l.....,..F...
19C0 F3 1C 1C 00 46 00 42 10 F3 1C 46 00 1C 00 C1 EC ....F.B...F.....
19D0 46 00 19 06 B3 10 1C 00 78 01 C2 1C 20 00 52 10 F.......x... .R.
19E0 D2 1C 12 00 B3 10 20 00 70 01 C2 1C 20 00 80 18 ...... .p... ...
19F0 E2 0A F8 81 33 10 12 00 68 01 41 90 73 10 1E 00 ....3...h.A.s...
1A00 64 01 F7 09 54 FF C1 0A 60 81 FB 0B 14 00 F9 80 d...T...`.......
1A10 F7 09 4E FF F8 01 FB 0B 14 00 03 80 F7 09 5A FF ..N...........Z.
1A20 54 01 FB 09 60 00 51 01 F3 0B 44 00 17 03 4D 01 T...`.Q...D...M.
1A30 42 10 08 01 F7 09 22 FF 3B 90 12 00 B3 0A 12 00 B.....".;.......
1A40 C2 0A 43 81 FB 0B 14 00 F5 80 F7 09 00 FF 40 10 ..C...........@.
1A50 F7 09 12 FF F5 01 F3 1C 42 00 12 00 FB 0B 14 00 ........B.......
1A60 02 80 F7 09 14 FF F3 0B 44 00 A2 03 F3 0B 5C 00 ........D.....\.
1A70 1D 02 77 09 08 F4 AE 89 B3 11 56 00 26 01 F3 0B ..w.......V.&...
1A80 44 00 EC 03 FB 0B 14 00 06 81 C2 1C 18 00 C2 EC D...............
1A90 1C 00 BB 10 44 00 DE 09 C3 1D 8A 39 16 01 33 0A ....D......9..3.
1AA0 56 00 33 0A 1E 00 DE 09 C3 1D 7A 39 33 0A 46 00 V.3.......z93.F.
1AB0 FB 0B 14 00 02 81 FB 09 60 00 F3 1C 50 00 20 00 ........`...P. .
1AC0 F3 1C 12 00 42 00 33 0A 5C 00 02 0A F7 09 7E FE ....B.3.\.....~.
1AD0 40 90 02 81 01 0A 04 01 F7 09 72 FE C0 45 80 FF @.........r..E..
1AE0 78 00 C2 1C 82 0A 82 0A 82 0A 82 0A 82 0A 82 0A x...............
1AF0 82 0A C2 0C B3 90 48 00 33 90 49 00 B3 0A 5C 00 ......H.3.I...\.
1B00 73 10 4A 00 F7 09 46 FE 73 10 4C 00 C2 25 06 00 s.J...F.s.L..%..
1B10 04 04 F7 09 38 FE 73 10 4E 00 F3 0B 44 00 9E 03 ....8.s.N...D...
1B20 C0 1C 4C 00 D7 AC 49 00 28 00 1A 05 C2 0B 03 02 ..L...I.(.......
1B30 C0 9C 52 00 15 01 C2 25 06 00 03 05 C0 15 07 00 ..R....%........
1B40 0F 01 F3 A5 08 00 52 00 06 06 C0 15 19 00 F3 15 ......R.........
1B50 10 00 4E 00 05 01 C0 15 0F 00 F3 15 07 00 4E 00 ..N...........N.
1B60 E6 1C 1C 00 C1 1C 18 00 81 E3 01 20 01 07 40 10 ........... ..@.
1B70 FB 0B 14 00 03 80 33 60 1C 00 22 01 C1 0B 1D 03 ......3`..".....
1B80 C2 0B F9 03 01 10 FB A5 2C 00 1C 00 12 03 FB A5 ........,.......
1B90 09 00 1C 00 0E 03 B3 0A 1C 00 C1 0A F4 02 10 01 ................
1BA0 DE 09 C3 1D 80 38 F3 0A 4A 00 8F 81 C2 9C 48 00 .....8..J.....H.
1BB0 B4 01 B3 0A 1C 00 40 E0 03 02 CE 15 64 19 80 0A ......@.....d...
1BC0 26 10 01 02 8E 0A C2 25 06 00 04 04 E6 1C 4E 00 &......%......N.
1BD0 E6 1C 1E 00 C1 1C 52 00 C2 0B 0C 03 57 A0 03 00 ......R.....W...
1BE0 06 05 97 20 07 00 06 06 77 09 92 F2 AD 89 97 20 ... ....w...... 
1BF0 07 00 FA 06 FB 0B 14 00 20 80 C3 1C 44 00 C2 0B ........ ...D...
1C00 3E 03 C1 A5 01 00 16 03 C1 A5 04 00 02 02 26 0A >.............&.
1C10 26 0A C1 45 00 FF 46 E0 80 11 81 0C D0 14 C1 0A &..E..F.........
1C20 FD 02 FA 09 84 1D BC 86 C3 1D FA 37 77 09 4E F2 ...........7w.N.
1C30 86 89 B6 01 C1 92 66 10 F4 01 FA 09 94 1D C3 1D ......f.........
1C40 E4 37 03 86 77 09 36 F2 85 89 C0 1C 44 00 C1 9C .7..w.6.....D...
1C50 52 00 C1 25 01 00 11 03 C1 25 04 00 09 02 82 11 R..%.....%......
1C60 92 24 4A 0C 92 15 8A 15 4A 0B 4E 0B EB 85 EA 87 .$J.....J.N.....
1C70 81 0C 90 15 C1 0A FD 02 93 01 88 95 91 01 82 15 ................
1C80 80 15 01 8A C1 00 81 20 07 07 D0 95 20 00 C2 0A ....... .... ...
1C90 FA 01 83 60 43 E0 42 10 D0 94 C2 0A FD 06 80 01 ...`C.B.........
1CA0 D6 0B C1 9C 53 00 82 15 C0 1C 44 00 83 15 81 20 ....S.....D.... 
1CB0 F0 04 40 60 81 E0 E0 95 20 00 C1 0A FC 02 80 E0 ..@`.... .......
1CC0 EB 01 BA 1A DA 19 EA 19 56 1A 16 1A 78 1A 28 1A ........V...x.(.
1CD0 F0 1A F2 1A EC 1A EE 1A E4 1A E8 1A EA 1A E6 1A ................
1CE0 30 1A FA 19 7E 1A B2 19 0A 1A F0 1A F2 1A EC 1A 0...~...........
1CF0 EE 1A E4 1A E8 1A EA 1A E6 1A                   ..........     

;; fn1CFA: 1CFA
;;   Called from:
;;     0366 (in fn1DAE)
fn1CFA proc
	rts	pc

;; fn1CFC: 1CFC
fn1CFC proc
	mov	r0,-(sp)
	mov	sp,r0
	add	#000A,r0
	mov	@r0,-(sp)
	mov	-(r0),-(sp)
	mov	-(r0),-(sp)
	tst	-(r0)
	mov	-(r0),-(sp)
	mov	#1D26,(r0)+
	mov	@r0,-(sp)
	mov	r3,(r0)+
	mov	r2,(r0)+
	mov	r1,(r0)+
	mov	FFF6(r0),(r0)+
	mov	@r0,FFF4(r0)
	mov	(sp)+,@r0
	rts	pc
1D26                   83 15 82 15 81 15 80 15 87 00       ..........

;; fn1D30: 1D30
;;   Called from:
;;     14C8 (in fn14A8)
fn1D30 proc
	mov	r0,r4
	bit	#4000,@r0
	beq	1D44

l1D38:
	bit	#0002,@r0
	beq	1D84

l1D3E:
	bic	#0002,@r0
	br	1D80

l1D44:
	tst	@r4
	bpl	1D84

l1D48:
	bit	#0200,@r4
	beq	1D74

l1D4E:
	mov	000E(r4),r2
	mov	r2,r1
	add	0002(r4),r2
	bit	#2000,@r0
	beq	1D62

l1D5E:
	clrb	(r2)+
	br	1D66

l1D62:
	movb	#000A,(r2)+

l1D66:
	sub	#01FF,r1
	beq	1D80

l1D6C:
	clrb	(r2)+
	inc	r1
	bmi	1D6C

l1D72:
	br	1D80

l1D74:
	mov	#01FE,r2
	add	0002(r4),r2
	bis	#8000,@r2

l1D80:
	jsr	pc,@#1836

l1D84:
	rts	pc
1D86                   00 00 70 0C 76 0C 00 00 00 00       ..p.v.....
1D90 00 00 00 00 A0 1C 00 00 EE 0B F4 0B 00 00 00 00 ................
1DA0 00 00 00 00 00 00 00 00 CA 12 A8 14 00 00       .............. 

;; fn1DAE: 1DAE
fn1DAE proc
	jsr	r4,@#0218
1DB2       FE 47 FF 15 0E 00 6C 36 C5 15 BA 48 F7 09   .G....l6...H..
1DC0 BE 23 BF 0A 60 36 37 0A AC 3A BF 0A 58 36 37 0A .#..`67..:..X67.
1DD0 F6 36 37 0A F4 36 BF 0A 4C 36 37 0A EE 36 BF 0A .67..6..L67..6..
1DE0 44 36 F7 15 01 00 E6 36 BF 0A 3A 36 C5 15 BC 48 D6.....6..:6...H
1DF0 F7 09 24 EA BF 0A 2E 36 E6 15 A4 48 E6 15 10 48 ..$....6...H...H
1E00 F7 09 C4 EF E6 15 78 58 F7 09 D6 EC F7 09 98 F0 ......xX........
1E10 BF 0A 12 36 E6 15 A4 48 E6 15 13 48 F7 09 A8 EF ...6...H...H....
1E20 E6 15 9E 48 E6 15 7A 58 F7 09 18 ED F7 09 78 F0 ...H..zX......x.
1E30 FF 15 18 00 F0 35 C5 15 C8 48 F7 09 26 EC BF 0A .....5...H..&...
1E40 E4 35 C5 15 BA 48 F7 09 46 0D BF 0A D8 35 F7 15 .5...H..F....5..
1E50 13 00 7C 36 FF 15 1B 00 CC 35 F7 0A 72 36 BF 0A ..|6.....5..r6..
1E60 C4 35 D7 2D 6A 36 0C 00 05 04 BF 0A B8 35 F7 15 .5.-j6.......5..
1E70 12 00 5C 36 FF 15 1E 00 AC 35 F7 15 32 00 46 36 ..\6.....5..2.F6
1E80 BF 0A A2 35 37 0A 4A 36 BF 0A 9A 35 F7 15 FF FF ...57.J6...5....
1E90 42 36 BF 0A 90 35 F7 15 FF FF 3A 36 BF 0A 86 35 B6...5....:6...5
1EA0 F7 15 01 00 32 36 FF 15 23 00 7A 35 F7 15 01 00 ....26..#.z5....
1EB0 28 36 C5 15 7E 48 FF 15 24 00 6A 35 C1 1D 18 36 (6..~H..$.j5...6
1EC0 41 65 C1 0C F1 15 01 00 C2 58 BF 0A 58 35 D7 2D Ae.......X..X5.-
1ED0 08 36 04 00 0A 06 FF 15 27 00 4A 35 F1 15 0A 00 .6......'.J5....
1EE0 3E 5A BF 0A 40 35 31 0A 66 5A FF 15 29 00 36 35 >Z..@51.fZ..).65
1EF0 B7 0A E6 35 D7 2D E2 35 0A 00 DD 07 B7 0A D8 35 ...5.-.5.......5
1F00 D7 2D D4 35 05 00 CF 07 BF 0A 1A 35 C5 15 BA 48 .-.5.......5...H
1F10 F7 09 1C 21 BF 0A 0E 35 F7 15 01 00 BA 35 C4 15 ...!...5.....5..
1F20 50 00 C5 15 64 54 FF 15 2C 00 FA 34 D5 95 3D 00 P...dT..,..4..=.
1F30 FF 15 2D 00 F0 34 C4 0A F6 06 BF 0A E8 34 C5 15 ..-..4.......4..
1F40 D0 48 F7 09 EA 22 BF 0A DC 34 C5 15 DA 48 F7 09 .H..."...4...H..
1F50 DE 22 BF 0A D0 34 C5 15 E4 48 F7 09 D2 22 BF 0A ."...4...H..."..
1F60 C4 34 C5 15 EE 48 F7 09 C6 22 BF 0A B8 34 E6 15 .4...H..."...4..
1F70 98 48 E6 15 76 48 E6 15 DC 54 F7 09 26 F0 E6 15 .H..vH...T..&...
1F80 78 58 F7 09 5C EB F7 09 1E EF BF 0A 98 34 C5 15 xX..\........4..
1F90 F8 48 F7 09 9A 22 BF 0A 8C 34 C5 15 02 49 F7 09 .H..."...4...I..
1FA0 8E 22 BF 0A 80 34 F7 15 02 00 34 35 BF 0A 76 34 ."...4....45..v4
1FB0 F7 15 05 00 2C 35 BF 0A 6C 34 F7 1D 12 35 24 35 ....,5..l4...5$5
1FC0 FF 15 38 00 60 34 BF 0A 5C 34 F7 15 04 00 EA 38 ..8.`4..\4.....8
1FD0 BF 0A 52 34 F7 15 FF FF E2 38 BF 0A 48 34 C5 15 ..R4.....8..H4..
1FE0 BA 48 F7 09 DE 0E FF 15 3C 00 3A 34 37 0A D4 34 .H......<.:47..4
1FF0 BF 0A 32 34 F7 15 50 00 EC 34 BF 0A 28 34 37 0A ..24..P..4..(47.
2000 E6 34 BF 0A 20 34 F7 15 18 00 DE 34 BF 0A 16 34 .4.. 4.....4...4
2010 F7 15 01 00 C2 34 C4 15 0A 00 C5 15 50 54 FF 15 .....4......PT..
2020 41 00 02 34 15 0A FF 15 42 00 FA 33 C4 0A F7 06 A..4....B..3....
2030 BF 0A F2 33 F7 15 01 00 A0 34 F7 15 02 00 B6 34 ...3.....4.....4
2040 FF 15 44 00 E0 33 F7 15 01 00 8C 34 F7 15 0A 00 ..D..3.....4....
2050 AA 34 F7 15 7E 48 62 34 F7 15 06 00 96 34 F7 15 .4..~Hb4.....4..
2060 50 54 58 34 FF 15 45 00 BC 33 C0 1D 6C 34 C0 6F PTX4..E..3..l4.o
2070 48 34 C0 0C F0 0B C2 58 02 02 77 00 6C 02 FF 15 H4.....X..w.l...
2080 47 00 A2 33 B7 0A 3C 34 BF 0A 9A 33 F7 1D 52 34 G..3..<4...3..R4
2090 5A 34 F7 6D 5E 34 54 34 BF 0A 8A 33 C0 1D 44 34 Z4.m^4T4...3..D4
20A0 C0 ED 52 34 37 10 46 34 BF 0A 7A 33 37 20 3A 34 ..R47.F4..z37 :4
20B0 04 04 BF 0A 70 33 37 10 30 34 FF 15 4C 00 66 33 ....p37.04..L.f3
20C0 C1 1D 16 34 C1 6F F2 33 C1 0C C0 1D 1E 34 31 10 ...4.o.3.....41.
20D0 26 59 BF 0A 50 33 F1 1D 14 34 8A 59 BF 0A 46 33 &Y..P3...4.Y..F3
20E0 37 20 04 34 04 07 BF 0A 3C 33 37 10 FA 33 FF 15 7 .4....<37..3..
20F0 50 00 32 33 C0 1D F4 33 37 20 EA 33 04 04 BF 0A P.23...37 .3....
2100 24 33 37 10 E0 33 FF 15 52 00 1A 33 C0 1D CA 33 $37..3..R..3...3
2110 3F 20 A8 33 04 07 BF 0A 0C 33 3F 10 9E 33 FF 15 ? .3.....3?..3..
2120 54 00 02 33 D7 2D B2 33 03 00 06 03 BF 0A F6 32 T..3.-.3.......2
2130 C5 15 0C 49 F7 09 04 20 FF 15 56 00 E8 32 F7 0B ...I... ..V..2..
2140 8C 33 2B 06 FF 15 58 00 DC 32 D7 2D 8C 33 02 00 .3+...X..2.-.3..
2150 06 06 BF 0A D0 32 C5 15 10 49 F7 09 D2 20 FF 15 .....2...I... ..
2160 5A 00 C2 32 D7 2D 72 33 03 00 06 02 BF 0A B6 32 Z..2.-r3.......2
2170 C5 15 1A 49 F7 09 B8 20 FF 15 5C 00 A8 32 D7 2D ...I... ..\..2.-
2180 58 33 04 00 06 05 BF 0A 9C 32 C5 15 24 49 F7 09 X3.......2..$I..
2190 9E 20 FF 15 5E 00 8E 32 27 01 FF 15 5F 00 86 32 . ..^..2'..._..2
21A0 D7 2D 36 33 02 00 06 06 BF 0A 7A 32 C5 15 2E 49 .-63......z2...I
21B0 F7 09 7C 20 FF 15 61 00 6C 32 D7 2D 1C 33 03 00 ..| ..a.l2.-.3..
21C0 06 02 BF 0A 60 32 C5 15 38 49 F7 09 62 20 FF 15 ....`2..8I..b ..
21D0 63 00 52 32 D7 2D 02 33 04 00 06 05 BF 0A 46 32 c.R2.-.3......F2
21E0 C5 15 42 49 F7 09 48 20 FF 15 65 00 38 32 F7 0B ..BI..H ..e.82..
21F0 D6 32 0C 03 FF 15 67 00 2C 32 F7 1D F0 32 F0 32 .2....g.,2...2.2
2200 B7 0A EC 32 C5 15 4C 49 F7 09 24 20 FF 15 68 00 ...2..LI..$ ..h.
2210 14 32 C5 15 56 49 F7 09 22 1F BF 0A 08 32 F7 0B .2..VI.."....2..
2220 B0 32 48 03 FF 15 6B 00 FC 31 C5 15 BA 48 F7 09 .2H...k..1...H..
2230 92 0C BF 0A F0 31 C5 15 5A 49 F7 09 E2 0F BF 0A .....1..ZI......
2240 E4 31 C5 15 BA 48 F7 09 F2 18 BF 0A D8 31 C5 15 .1...H.......1..
2250 BA 48 F7 09 6E 0C BF 0A CC 31 C5 15 5A 49 F7 09 .H..n....1..ZI..
2260 BE 0F BF 0A C0 31 C5 15 BA 48 F7 09 CE 18 BF 0A .....1...H......
2270 B4 31 D7 2D 78 32 01 00 10 03 FF 15 73 00 A6 31 .1.-x2......s..1
2280 C5 15 5E 49 F7 09 24 12 BF 0A 9A 31 C5 15 BA 48 ..^I..$....1...H
2290 F7 09 7E 1B BF 0A 8E 31 0D 01 FF 15 76 00 86 31 ..~....1....v..1
22A0 C5 15 BA 48 F7 09 B4 16 BF 0A 7A 31 C5 15 56 49 ...H......z1..VI
22B0 F7 09 86 01 FF 15 78 00 6C 31 BF 0A 68 31 F7 2D ......x.l1..h1.-
22C0 12 32 08 32 12 03 FF 15 7B 00 5A 31 F7 15 03 00 .2.2....{.Z1....
22D0 20 32 F7 ED F6 31 1A 32 C5 15 64 49 F7 09 40 0B  2...1.2..dI..@.
22E0 BF 0A 42 31 F7 1D E4 31 EA 31 FF 15 7D 00 36 31 ..B1...1.1..}.61
22F0 F7 65 02 00 C4 31 F7 65 06 00 F8 31 F7 65 02 00 .e...1.e...1.e..
2300 BA 31 F7 0A F6 31 02 07 77 00 58 FD F7 65 02 00 .1...1..w.X..e..
2310 E4 31 B7 0A C4 31 D7 2D C0 31 05 00 02 06 77 00 .1...1.-.1....w.
2320 1E FD BF 0A 00 31 37 0A 9E 31 37 0A 9C 31 BF 0A .....17..17..1..
2330 F4 30 D7 2D B4 31 02 00 2B 02 FF 15 81 00 E6 30 .0.-.1..+......0
2340 F7 15 01 00 92 31 FF 15 82 00 DA 30 F7 15 01 00 .....1.....0....
2350 88 31 C4 15 04 00 C5 15 7E 48 FF 15 83 00 C6 30 .1......~H.....0
2360 C1 1D 74 31 40 10 40 65 C0 0C 30 0A 3E 5A FF 15 ..t1@.@e..0.>Z..
2370 84 00 B2 30 C4 0A F1 06 81 0A 77 10 5A 31 57 20 ...0......w.Z1W 
2380 05 00 E1 07 BF 0A 9E 30 C5 15 BA 48 F7 09 82 1A .......0...H....
2390 FF 15 86 00 90 30 F7 15 01 00 36 31 BF 0A 86 30 .....0....61...0
23A0 F7 15 01 00 32 31 C3 15 0A 00 C4 15 50 54 C5 15 ....21......PT..
23B0 2C 5A FF 15 88 00 6E 30 15 15 FF 15 89 00 66 30 ,Z....n0......f0
23C0 C3 0A F7 06 BF 0A 5E 30 D7 2D 1A 31 02 00 0B 07 ......^0.-.1....
23D0 FF 15 8C 00 50 30 D7 2D 0E 31 49 00 04 04 FF 15 ....P0.-.1I.....
23E0 8E 00 42 30 10 01 FF 15 8F 00 3A 30 F7 0A F4 30 ..B0......:0...0
23F0 BF 0A 32 30 37 0B E8 30 BF 0A 2A 30 F7 15 80 40 ..207..0..*0...@
2400 C6 30 37 0A C4 30 FF 15 92 00 1A 30 F7 6D D0 30 .07..0.....0.m.0
2410 D0 30 BF 0A 10 30 37 0B B4 30 BF 0A 08 30 C0 1D .0...07..0...0..
2420 A2 30 02 02 77 00 2C FA FF 15 96 00 F8 2F 37 10 .0..w.,....../7.
2430 94 30 BF 0A F0 2F 77 00 AC FB                   .0.../w...     

;; fn243A: 243A
fn243A proc
	jsr	r4,@#0EF8
243E                                           68 49               hI
2440 FF 15 07 00 E0 2F F7 1D 2C 34 52 32 BF 0A D6 2F ...../..,4R2.../
2450 C5 15 88 4D F7 09 D8 1B BF 0A CA 2F C5 15 8A 4D ...M......./...M
2460 F7 09 B4 E3 BF 0A BE 2F F7 15 01 00 36 32 C5 15 ......./....62..
2470 08 55 FF 15 0B 00 AE 2F E6 15 82 4D E6 15 9C 49 .U...../...M...I
2480 F7 09 44 E9 66 11 F7 09 58 E6 F7 09 1A EA BF 0A ..D.f...X.......
2490 94 2F E6 15 82 4D E6 15 9F 49 F7 09 2A E9 E6 15 ./...M...I..*...
24A0 7E 4D E6 15 68 56 F7 09 9A E6 F7 09 FA E9 BF 0A ~M..hV..........
24B0 74 2F F7 15 01 00 EE 31 C2 15 1E 00 C3 15 68 56 t/.....1......hV
24C0 C4 15 3E 4D FF 15 0E 00 5C 2F C1 1D D6 31 40 10 ..>M....\/...1@.
24D0 00 65 F0 94 1D 55 FF 15 0F 00 4A 2F C2 0A F2 06 .e...U....J/....
24E0 FF 15 10 00 40 2F C5 65 02 00 81 0A 77 10 B4 31 ....@/.e....w..1
24F0 57 20 0A 00 BE 07 BF 0A 2C 2F C5 15 96 4D F7 09 W ......,/...M..
2500 62 E5 BF 0A 20 2F F7 1D 6C 33 10 30 BF 0A 16 2F b... /..l3.0.../
2510 F7 15 01 00 90 31 C3 15 1E 00 C4 15 98 58 C5 15 .....1.......X..
2520 3E 4D FF 15 14 00 FE 2E 40 15 30 95 28 55 FF 15 >M......@.0.(U..
2530 15 00 F2 2E C3 0A F5 06 FF 15 16 00 E8 2E 37 0A ..............7.
2540 60 31 BF 0A E0 2E F7 15 01 00 58 31 C5 15 0A 55 `1........X1...U
2550 FF 15 18 00 D0 2E 4D 2D FE FF 34 04 FF 15 1A 00 ......M-..4.....
2560 C4 2E 40 1D FE FF BF 0A BC 2E 75 13 FE FF BF 0A ..@.......u.....
2570 B4 2E 0D 10 BF 0A AE 2E F7 15 01 00 24 31 BF 0A ............$1..
2580 A4 2E F7 15 01 00 1E 31 F7 15 1E 00 1E 31 C3 15 .......1.....1..
2590 3E 4D C4 15 68 56 FF 15 1F 00 8A 2E C2 1D 04 31 >M..hV.........1
25A0 C2 64 8C 9C 1D 55 BF 0A 7C 2E B2 9C 1E 55 1D 55 .d...U..|....U.U
25B0 BF 0A 72 2E 32 95 1E 55 FF 15 22 00 68 2E F7 0A ..r.2..U..".h...
25C0 EA 30 E9 06 FF 15 23 00 5C 2E C5 65 02 00 B7 0A .0....#.\..e....
25D0 D2 30 D7 2D CE 30 0A 00 BB 07 BF 0A 48 2E F7 0B .0.-.0......H...
25E0 C0 30 AA 02 FF 15 26 00 3C 2E C5 15 9E 4D F7 09 .0....&.<....M..
25F0 26 E2 BF 0A 30 2E C2 1D 7C 32 B7 20 7A 32 02 07 &...0...|2. z2..
2600 77 00 46 04 FF 15 29 00 1C 2E 81 10 C0 0D 17 72 w.F...)........r
2610 C8 00 37 10 60 32 02 10 BF 0A 0A 2E D7 2F E6 2E ..7.`2......./..
2620 01 00 02 02 77 00 5C 04 FF 15 2C 00 F8 2D C2 0B ....w.\...,..-..
2630 0A 02 BF 0A F0 2D E6 15 7C 4D E6 15 E0 49 F7 09 .....-..|M...I..
2640 38 E7 F7 09 62 E8 FF 15 2E 00 DA 2D D7 2D 26 32 8...b......-.-&2
2650 01 00 0A 02 BF 0A CE 2D E6 15 7C 4D E6 15 FA 49 .......-..|M...I
2660 F7 09 16 E7 F7 09 40 E8 FF 15 30 00 B8 2D D7 2D ......@...0..-.-
2670 04 32 02 00 0A 02 BF 0A AC 2D E6 15 7C 4D E6 15 .2.......-..|M..
2680 17 4A F7 09 F4 E6 F7 09 1E E8 FF 15 32 00 96 2D .J..........2..-
2690 D7 2D E2 31 03 00 0A 02 BF 0A 8A 2D E6 15 7C 4D .-.1.......-..|M
26A0 E6 15 31 4A F7 09 D2 E6 F7 09 FC E7 FF 15 34 00 ..1J..........4.
26B0 74 2D D7 2D C0 31 04 00 0A 02 BF 0A 68 2D E6 15 t-.-.1......h-..
26C0 7C 4D E6 15 4A 4A F7 09 B0 E6 F7 09 DA E7 FF 15 |M..JJ..........
26D0 36 00 52 2D D7 2D 9E 31 05 00 0A 02 BF 0A 46 2D 6.R-.-.1......F-
26E0 E6 15 7C 4D E6 15 69 4A F7 09 8E E6 F7 09 B8 E7 ..|M..iJ........
26F0 FF 15 38 00 30 2D D7 2D 7C 31 06 00 0A 02 BF 0A ..8.0-.-|1......
2700 24 2D E6 15 7C 4D E6 15 8A 4A F7 09 6C E6 F7 09 $-..|M...J..l...
2710 96 E7 FF 15 3A 00 0E 2D D7 2D 5A 31 07 00 0A 02 ....:..-.-Z1....
2720 BF 0A 02 2D E6 15 7C 4D E6 15 A4 4A F7 09 4A E6 ...-..|M...J..J.
2730 F7 09 74 E7 FF 15 3C 00 EC 2C D7 2D 38 31 08 00 ..t...<..,.-81..
2740 0A 02 BF 0A E0 2C E6 15 7C 4D E6 15 CB 4A F7 09 .....,..|M...J..
2750 28 E6 F7 09 52 E7 FF 15 3E 00 CA 2C D7 2D 16 31 (...R...>..,.-.1
2760 09 00 0A 02 BF 0A BE 2C E6 15 7C 4D E6 15 DD 4A .......,..|M...J
2770 F7 09 06 E6 F7 09 30 E7 FF 15 40 00 A8 2C D7 2D ......0...@..,.-
2780 F4 30 0A 00 0A 02 BF 0A 9C 2C E6 15 7C 4D E6 15 .0.......,..|M..
2790 F4 4A F7 09 E4 E5 F7 09 0E E7 FF 15 42 00 86 2C .J..........B..,
27A0 D7 2D D2 30 0B 00 0A 02 BF 0A 7A 2C E6 15 7C 4D .-.0......z,..|M
27B0 E6 15 0E 4B F7 09 C2 E5 F7 09 EC E6 FF 15 44 00 ...K..........D.
27C0 64 2C D7 2D B0 30 0C 00 0A 02 BF 0A 58 2C E6 15 d,.-.0......X,..
27D0 7C 4D E6 15 29 4B F7 09 A0 E5 F7 09 CA E6 FF 15 |M..)K..........
27E0 46 00 42 2C D7 2D 8E 30 0D 00 0A 02 BF 0A 36 2C F.B,.-.0......6,
27F0 E6 15 7C 4D E6 15 42 4B F7 09 7E E5 F7 09 A8 E6 ..|M..BK..~.....
2800 FF 15 48 00 20 2C D7 2D 6C 30 0E 00 0A 02 BF 0A ..H. ,.-l0......
2810 14 2C E6 15 7C 4D E6 15 5B 4B F7 09 5C E5 F7 09 .,..|M..[K..\...
2820 86 E6 FF 15 4A 00 FE 2B D7 2D 4A 30 0F 00 0A 02 ....J..+.-J0....
2830 BF 0A F2 2B E6 15 7C 4D E6 15 7C 4B F7 09 3A E5 ...+..|M..|K..:.
2840 F7 09 64 E6 FF 15 4C 00 DC 2B D7 2D 28 30 10 00 ..d...L..+.-(0..
2850 0A 02 BF 0A D0 2B E6 15 7C 4D E6 15 9D 4B F7 09 .....+..|M...K..
2860 18 E5 F7 09 42 E6 FF 15 4E 00 BA 2B D7 2D 06 30 ....B...N..+.-.0
2870 11 00 0A 02 BF 0A AE 2B E6 15 7C 4D E6 15 B9 4B .......+..|M...K
2880 F7 09 F6 E4 F7 09 20 E6 FF 15 50 00 98 2B D7 2D ...... ...P..+.-
2890 E4 2F 12 00 0A 02 BF 0A 8C 2B E6 15 7C 4D E6 15 ./.......+..|M..
28A0 D8 4B F7 09 D4 E4 F7 09 FE E5 FF 15 52 00 76 2B .K..........R.v+
28B0 D7 2D C2 2F 13 00 0A 02 BF 0A 6A 2B E6 15 7C 4D .-./......j+..|M
28C0 E6 15 F2 4B F7 09 B2 E4 F7 09 DC E5 FF 15 54 00 ...K..........T.
28D0 54 2B D7 2D A0 2F 14 00 0A 02 BF 0A 48 2B E6 15 T+.-./......H+..
28E0 7C 4D E6 15 07 4C F7 09 90 E4 F7 09 BA E5 FF 15 |M...L..........
28F0 56 00 32 2B D7 2D 7E 2F 15 00 0A 02 BF 0A 26 2B V.2+.-~/......&+
2900 E6 15 7C 4D E6 15 24 4C F7 09 6E E4 F7 09 98 E5 ..|M..$L..n.....
2910 FF 15 58 00 10 2B D7 2D 5C 2F 16 00 0A 02 BF 0A ..X..+.-\/......
2920 04 2B E6 15 7C 4D E6 15 36 4C F7 09 4C E4 F7 09 .+..|M..6L..L...
2930 76 E5 FF 15 5A 00 EE 2A D7 2D 3A 2F 17 00 0A 02 v...Z..*.-:/....
2940 BF 0A E2 2A E6 15 7C 4D E6 15 4F 4C F7 09 2A E4 ...*..|M..OL..*.
2950 F7 09 54 E5 FF 15 5C 00 CC 2A D7 2D 18 2F 18 00 ..T...\..*.-./..
2960 0A 02 BF 0A C0 2A E6 15 7C 4D E6 15 65 4C F7 09 .....*..|M..eL..
2970 08 E4 F7 09 32 E5 FF 15 5E 00 AA 2A D7 2D F6 2E ....2...^..*.-..
2980 19 00 0A 02 BF 0A 9E 2A E6 15 7C 4D E6 15 7A 4C .......*..|M..zL
2990 F7 09 E6 E3 F7 09 10 E5 FF 15 60 00 88 2A D7 2D ..........`..*.-
29A0 D4 2E 1A 00 0A 02 BF 0A 7C 2A E6 15 7C 4D E6 15 ........|*..|M..
29B0 99 4C F7 09 C4 E3 F7 09 EE E4 FF 15 62 00 66 2A .L..........b.f*
29C0 D7 2D B2 2E 1B 00 0A 02 BF 0A 5A 2A E6 15 7C 4D .-........Z*..|M
29D0 E6 15 AF 4C F7 09 A2 E3 F7 09 CC E4 FF 15 64 00 ...L..........d.
29E0 44 2A D7 2D 90 2E 1C 00 0A 02 BF 0A 38 2A E6 15 D*.-........8*..
29F0 7C 4D E6 15 C6 4C F7 09 80 E3 F7 09 AA E4 FF 15 |M...L..........
2A00 66 00 22 2A D7 2D 6E 2E 1D 00 0A 02 BF 0A 16 2A f."*.-n........*
2A10 E6 15 7C 4D E6 15 E1 4C F7 09 5E E3 F7 09 88 E4 ..|M...L..^.....
2A20 FF 15 68 00 00 2A D7 2D 4C 2E 1E 00 0A 05 BF 0A ..h..*.-L.......
2A30 F4 29 E6 15 7C 4D E6 15 03 4D F7 09 3C E3 F7 09 .)..|M...M..<...
2A40 66 E4 FF 15 6A 00 DE 29 12 01 FF 15 6B 00 D6 29 f...j..)....k..)
2A50 D7 2F B2 2A 01 00 16 03 FF 15 6D 00 C8 29 E6 15 ./.*......m..)..
2A60 7C 4D E6 15 20 4D F7 09 10 E3 F7 09 3A E4 FF 15 |M.. M......:...
2A70 6E 00 B2 29 E6 15 7C 4D E6 15 A3 49 F7 09 FA E2 n..)..|M...I....
2A80 F7 09 24 E4 FF 15 6F 00 9C 29 F7 15 01 00 14 2C ..$...o..).....,
2A90 C5 15 08 55 FF 15 70 00 8C 29 F7 15 01 00 06 2C ...U..p..).....,
2AA0 C2 15 1E 00 C3 15 3E 4D C4 15 68 56 FF 15 71 00 ......>M..hV..q.
2AB0 74 29 C0 1D EE 2B C0 64 14 9C 1D 55 FF 15 72 00 t)...+.d...U..r.
2AC0 64 29 C2 0A F3 06 BF 0A 5C 29 E6 15 82 4D E6 15 d)......\)...M..
2AD0 9C 49 F7 09 A4 E2 66 11 F7 09 06 E0 F7 09 C8 E3 .I....f.........
2AE0 BF 0A 42 29 E6 15 82 4D E6 15 9F 49 F7 09 8A E2 ..B)...M...I....
2AF0 E6 15 7E 4D E6 15 68 56 F7 09 48 E0 F7 09 A8 E3 ..~M..hV..H.....
2B00 BF 0A 22 29 D7 2F FE 29 01 00 18 03 FF 15 77 00 ..")./.)......w.
2B10 14 29 E6 15 7C 4D E6 15 D4 49 F7 09 5C E2 E6 15 .)..|M...I..\...
2B20 A4 56 F7 09 BC DF E6 15 7E 4D E6 15 68 56 F7 09 .V......~M..hV..
2B30 12 E0 66 11 F7 09 AA DF F7 09 6C E3 FF 15 78 00 ..f.......l...x.
2B40 E4 28 C5 65 02 00 B7 0A 5A 2B D7 2D 56 2B 0A 00 .(.e....Z+.-V+..
2B50 A1 07 BF 0A D0 28 E6 15 7C 4D E6 15 84 49 F7 09 .....(..|M...I..
2B60 18 E2 E6 15 9E 56 F7 09 78 DF F7 09 3A E3 FF 15 .....V..x...:...
2B70 7B 00 B2 28 C5 15 88 4D F7 09 4C 1A BF 0A A6 28 {..(...M..L....(
2B80 C5 15 88 4D F7 09 14 E4 FF 15 A1 00 98 28 87 00 ...M.........(..

;; fn2B90: 2B90
fn2B90 proc
	jsr	r4,@#0EF8
2B94             AA 4D FF 15 05 00 8A 28 C5 15 1C 50     .M.....(...P
2BA0 F7 09 D8 19 BF 0A 7E 28 C5 15 1C 50 F7 09 80 14 ......~(...P....
2BB0 BF 0A 72 28 F7 15 01 00 FE 2A C4 15 1E 00 C5 15 ..r(.....*......
2BC0 98 58 FF 15 08 00 5E 28 D5 95 20 00 FF 15 09 00 .X....^(.. .....
2BD0 54 28 C4 0A F6 06 BF 0A 4C 28 C5 15 1E 50 F7 09 T(......L(...P..
2BE0 5A 15 BF 0A 40 28 C5 15 22 50 F7 09 84 14 BF 0A Z...@(.."P......
2BF0 34 28 E6 15 06 50 E6 15 E6 4D F7 09 7C E1 F7 09 4(...P...M..|...
2C00 A6 E2 BF 0A 20 28 E6 15 06 50 E6 15 12 4F F7 09 .... (...P...O..
2C10 68 E1 F7 09 92 E2 BF 0A 0C 28 C5 15 28 50 F7 09 h........(..(P..
2C20 1A 15 BF 0A 00 28 C5 15 2C 50 F7 09 44 14 BF 0A .....(..,P..D...
2C30 F4 27 E6 15 06 50 E6 15 A0 4F F7 09 3C E1 F7 09 .'...P...O..<...
2C40 66 E2 BF 0A E0 27 C5 15 32 50 F7 09 24 14 BF 0A f....'..2P..$...
2C50 D4 27 E6 15 06 50 E6 15 BD 4F F7 09 1C E1 F7 09 .'...P...O......
2C60 46 E2 BF 0A C0 27 F7 15 01 00 4E 2A BF 0A B6 27 F....'....N*...'
2C70 F7 15 02 00 46 2A BF 0A AC 27 F7 15 01 00 3E 2A ....F*...'....>*
2C80 BF 0A A2 27 F7 15 0A 00 36 2A FF 15 17 00 96 27 ...'....6*.....'
2C90 F7 0B 2A 2A 06 07 BF 0A 8C 27 C5 15 38 50 F7 09 ..**.....'..8P..
2CA0 8E 15 FF 15 19 00 7E 27 F7 0B 12 2A 06 04 BF 0A ......~'...*....
2CB0 74 27 C5 15 42 50 F7 09 76 15 FF 15 1B 00 66 27 t'..BP..v.....f'
2CC0 F7 0B FA 29 06 07 BF 0A 5C 27 C5 15 4C 50 F7 09 ...)....\'..LP..
2CD0 5E 15 FF 15 1D 00 4E 27 F7 0B E2 29 06 04 BF 0A ^.....N'...)....
2CE0 44 27 C5 15 56 50 F7 09 46 15 FF 15 1F 00 36 27 D'..VP..F.....6'
2CF0 C5 15 1E 50 F7 09 44 14 BF 0A 2A 27 F7 0B BE 29 ...P..D...*'...)
2D00 06 07 BF 0A 20 27 C5 15 60 50 F7 09 22 15 FF 15 .... '..`P.."...
2D10 22 00 12 27 F7 0B A6 29 06 04 BF 0A 08 27 C5 15 "..'...).....'..
2D20 6A 50 F7 09 0A 15 FF 15 24 00 FA 26 C5 15 28 50 jP......$..&..(P
2D30 F7 09 08 14 BF 0A EE 26 C5 15 1C 50 F7 09 50 2D .......&...P..P-
2D40 01 90 77 90 70 29 FF 15 26 00 DA 26 57 A0 0D 00 ..w.p)..&..&W...
2D50 63 03 FF 15 28 00 CE 26 57 A0 20 00 33 05 FF 15 c...(..&W. .3...
2D60 2A 00 C2 26 57 A0 7F 00 16 03 FF 15 2C 00 B6 26 *..&W.......,..&
2D70 C2 1D 46 29 97 20 1F 00 25 03 FF 15 2E 00 A6 26 ..F). ..%......&
2D80 72 90 97 58 BF 0A 9E 26 B7 10 2E 29 B7 0A 2A 29 r..X...&...)..*)
2D90 BF 0A 92 26 17 01 FF 15 31 00 8A 26 F7 0A 1A 29 ...&....1..&...)
2DA0 BF 0A 82 26 F7 0B 12 29 05 06 BF 0A 78 26 F7 15 ...&...)....x&..
2DB0 01 00 06 29 FF 15 34 00 6C 26 C0 1D FC 28 F0 95 ...)..4.l&...(..
2DC0 20 00 97 58 FF 15 35 00 5C 26 C5 15 74 50 F7 09  ..X..5.\&..tP..
2DD0 5E 14 BF 0A 50 26 37 0B E4 28 BF 0A 48 26 F7 6D ^...P&7..(..H&.m
2DE0 DA 28 DC 28 BF 0A 3E 26 D7 2D D4 28 3C 00 04 07 .(.(..>&.-.(<...
2DF0 BF 0A 32 26 37 0B C4 28 FF 15 3A 00 28 26 D7 2D ..2&7..(..:.(&.-
2E00 BE 28 08 00 04 04 BF 0A 1C 26 37 0B AE 28 FF 15 .(.......&7..(..
2E10 3C 00 12 26 77 00 72 FE FF 15 3D 00 08 26 87 00 <..&w.r...=..&..

;; fn2E20: 2E20
fn2E20 proc
	jsr	r4,@#0EF8
2E24             7E 50 FF 15 03 00 FA 25 F7 15 01 00     ~P.....%....
2E30 A6 28 C4 15 10 00 C5 15 C6 56 FF 15 04 00 E6 25 .(.......V.....%
2E40 D5 95 3D 00 FF 15 05 00 DC 25 C4 0A F6 06 BF 0A ..=......%......
2E50 D4 25 C5 15 96 50 F7 09 D6 13 BF 0A C8 25 FF 0B .%...P.......%..
2E60 62 28 2A 07 FF 15 09 00 BC 25 C5 15 A0 50 F7 09 b(*......%...P..
2E70 CA 12 BF 0A B0 25 F7 15 01 00 5C 28 FF 15 0B 00 .....%....\(....
2E80 A4 25 C1 1D 52 28 C1 0A 57 70 05 00 81 0A 77 10 .%..R(..Wp....w.
2E90 48 28 C5 15 A4 50 F7 09 96 13 FF 15 0C 00 86 25 H(...P.........%
2EA0 B7 0A 34 28 FF 2D 30 28 1A 28 E8 07 BF 0A 76 25 ..4(.-0(.(....v%
2EB0 C5 15 AE 50 F7 09 84 12 FF 15 0E 00 68 25 BF 0A ...P........h%..
2EC0 64 25 87 00                                     d%..           

;; fn2EC4: 2EC4
fn2EC4 proc
	jsr	r4,@#0EF8
2EC8                         B2 50 FF 15 0A 00 56 25         .P....V%
2ED0 C5 15 FA 50 F7 09 B8 2B 02 90 B7 90 06 28 BF 0A ...P...+.....(..
2EE0 44 25 C2 8B 02 04 77 00 AC 01 FF 15 0D 00 36 25 D%....w.......6%
2EF0 97 A0 20 00 51 03 FF 15 0F 00 2A 25 00 0A 97 A0 .. .Q.....*%....
2F00 2C 00 01 02 C0 0A 01 0A 97 A0 3C 00 01 02 C1 0A ,.........<.....
2F10 40 D0 02 03 77 00 48 01 FF 15 11 00 08 25 00 0A @...w.H......%..
2F20 97 A0 2E 00 01 02 C0 0A 01 0A 97 A0 3E 00 01 02 ............>...
2F30 C1 0A 40 D0 02 03 77 00 44 01 FF 15 13 00 E6 24 ..@...w.D......$
2F40 00 0A 97 A0 41 00 01 02 C0 0A 01 0A 97 A0 61 00 ....A.........a.
2F50 01 02 C1 0A 40 D0 06 03 BF 0A CA 24 C5 15 FC 50 ....@......$...P
2F60 F7 09 D6 F4 FF 15 15 00 BC 24 00 0A C2 9D 74 27 .........$....t'
2F70 97 A0 5A 00 01 03 C0 0A 01 0A 97 A0 7A 00 01 03 ..Z.........z...
2F80 C1 0A 01 B0 02 03 77 00 0C 01 FF 15 17 00 96 24 ......w........$
2F90 C5 15 00 51 F7 09 A2 F4 FF 15 18 00 88 24 D7 2D ...Q.........$.-
2FA0 20 29 01 00 78 03 FF 15 1A 00 7A 24 F7 15 01 00  )..x.....z$....
2FB0 34 27 F7 15 0D 00 3E 27 FF 15 1B 00 68 24 F7 15 4'....>'....h$..
2FC0 01 00 24 27 C5 15 DC 50 FF 15 1C 00 58 24 C2 1D ..$'...P....X$..
2FD0 14 27 42 65 C2 0C 80 1C 3E 5A 03 10 F7 10 0A 27 .'Be....>Z.....'
2FE0 BF 0A 42 24 C3 0B 19 03 FF 15 1F 00 38 24 C3 1D ..B$........8$..
2FF0 F6 26 C3 6D 00 27 F7 10 F0 26 BF 0A 28 24 C3 2D .&.m.'...&..($.-
3000 B8 28 0B 02 FF 15 22 00 1C 24 01 10 C1 0A 72 10 .(...."..$....r.
3010 3E 5A BF 0A 10 24 77 00 B4 01 FF 15 24 00 06 24 >Z...$w.....$..$
3020 B7 0A C4 26 D7 2D C0 26 04 00 CE 07 F7 65 0D 00 ...&.-.&.....e..
3030 C4 26 B7 0A B0 26 D7 2D AC 26 05 00 BD 07 BF 0A .&...&.-.&......
3040 E4 23 F7 1D 74 28 76 28 BF 0A DA 23 37 0A 70 28 .#..t(v(...#7.p(
3050 BF 0A D2 23 F7 15 01 00 68 28 BF 0A C8 23 1B 01 ...#....h(...#..
3060 FF 15 29 00 C0 23 D7 2D 50 28 04 00 14 05 FF 15 ..)..#.-P(......
3070 2B 00 B2 23 F7 0A 42 28 BF 0A AA 23 0C 01 FF 15 +..#..B(...#....
3080 2D 00 A2 23 D7 2D 32 28 4C 00 05 06 FF 15 2F 00 -..#.-2(L...../.
3090 94 23 B7 0A 24 28 FF 15 30 00 8A 23 F7 0B 22 28 .#..$(..0..#.."(
30A0 02 02 77 00 28 01 FF 15 32 00 7A 23 D7 2D 10 28 ..w.(...2.z#.-.(
30B0 15 00 17 05 FF 15 34 00 6C 23 F7 1D 02 28 30 26 ......4.l#...(0&
30C0 B7 0A 2C 26 C5 15 04 51 F7 09 64 11 BF 0A 56 23 ..,&...Q..d...V#
30D0 37 0A EE 27 BF 0A 4E 23 37 0A E4 27 BF 0A 46 23 7..'..N#7..'..F#
30E0 76 01 FF 15 38 00 3E 23 B7 0A D4 27 BF 0A 36 23 v...8.>#...'..6#
30F0 F7 1D CC 27 FC 25 B7 0A F8 25 C5 15 0E 51 F7 09 ...'.%...%...Q..
3100 2E 11 BF 0A 20 23 F7 15 01 00 DC 25 FF 15 3B 00 .... #.....%..;.
3110 14 23 F7 15 01 00 CE 25 C5 15 DC 50 FF 15 3C 00 .#.....%...P..<.
3120 04 23 C3 1D C2 25 C1 10 41 65 C1 0C 42 1C 26 59 .#...%..Ae..B.&Y
3130 B7 10 B8 25 BF 0A EE 22 44 1C 8A 59 37 11 AE 25 ...%..."D..Y7..%
3140 BF 0A E2 22 F1 0B C2 58 26 03 FF 15 40 00 D6 22 ..."...X&...@.."
3150 37 21 6C 27 20 02 FF 15 42 00 CA 22 80 10 C0 65 7!l' ...B.."...e
3160 02 00 C1 1D 58 27 40 20 32 03 FF 15 44 00 B6 22 ....X'@ 2...D.."
3170 80 10 C0 65 03 00 40 20 2A 03 FF 15 46 00 A6 22 ...e..@ *...F.."
3180 D7 20 03 00 08 07 FF 15 48 00 9A 22 80 10 C0 65 . ......H.."...e
3190 04 00 40 20 1C 03 FF 15 4A 00 8A 22 B7 0A 46 25 ..@ ....J.."..F%
31A0 D7 2D 42 25 0A 00 BA 07 B7 0A 3C 25 D7 2D 38 25 .-B%......<%.-8%
31B0 05 00 AC 07 BF 0A 6E 22 D7 2D 04 27 01 00 07 03 ......n".-.'....
31C0 FF 15 4D 00 60 22 C5 15 18 51 F7 09 62 10 FF 15 ..M.`"...Q..b...
31D0 4E 00 52 22 F7 2D E4 26 E0 26 1E 03 FF 15 50 00 N.R".-.&.&....P.
31E0 44 22 F7 1D D4 26 D4 26 BF 0A 3A 22 C5 15 00 51 D"...&.&..:"...Q
31F0 F7 09 48 0F BF 0A 2E 22 F7 1D BE 26 F6 24 F7 E5 ..H...."...&.$..
3200 02 00 F0 24 C5 15 22 51 F7 09 24 10 BF 0A 16 22 ...$.."Q..$...."
3210 C5 15 FC 50 F7 09 24 0F FF 15 54 00 08 22 87 00 ...P..$...T.."..

;; fn3220: 3220
fn3220 proc
	jsr	r4,@#0EF8
3224             2C 51 FF 15 09 00 FA 21 F7 0B 92 26     ,Q.....!...&
3230 02 02 77 00 28 02 FF 15 0B 00 EA 21 F7 15 01 00 ..w.(......!....
3240 CC 24 FF 15 0C 00 DE 21 F7 15 01 00 C2 24 F7 15 .$.....!.....$..
3250 3E 51 B2 24 FF 15 0D 00 CC 21 C3 1D B0 24 C1 10 >Q.$.....!...$..
3260 C1 6F A2 24 C1 0C F1 0B C2 58 76 03 FF 15 0F 00 .o.$.....Xv.....
3270 B4 21 42 1C 26 59 B7 10 98 24 BF 0A A8 21 77 1C .!B.&Y...$...!w.
3280 8A 59 90 24 BF 0A 9E 21 80 10 C0 65 02 00 C1 1D .Y.$...!...e....
3290 2C 26 40 20 16 03 FF 15 13 00 8A 21 80 10 C0 65 ,&@ .......!...e
32A0 03 00 40 20 0E 03 FF 15 15 00 7A 21 D7 20 03 00 ..@ ......z!. ..
32B0 53 07 FF 15 17 00 6E 21 80 10 C0 65 04 00 40 20 S.....n!...e..@ 
32C0 4B 02 FF 15 19 00 5E 21 C1 1D F4 25 81 0A 77 20 K.....^!...%..w 
32D0 42 24 42 02 FF 15 1B 00 4C 21 77 10 38 24 C5 15 B$B.....L!w.8$..
32E0 5E 51 F7 09 5C 0C BF 0A 3C 21 37 0A D4 25 BF 0A ^Q..\...<!7..%..
32F0 34 21 37 0A CA 25 BF 0A 2C 21 C1 1D 10 24 40 10 4!7..%..,!...$@.
3300 C0 6F 02 24 C0 0C 30 0A C2 58 BF 0A 18 21 57 20 .o.$..0..X...!W 
3310 03 00 05 07 BF 0A 0E 21 F7 65 0A 00 58 25 FF 15 .......!.e..X%..
3320 21 00 02 21 D7 2D E6 23 03 00 05 02 BF 0A F6 20 !..!.-.#....... 
3330 F7 65 14 00 40 25 FF 15 23 00 EA 20 D7 2D CE 23 .e..@%..#.. .-.#
3340 03 00 05 04 BF 0A DE 20 F7 65 1E 00 28 25 FF 15 ....... .e..(%..
3350 25 00 D2 20 77 00 06 01 FF 15 26 00 C8 20 F7 65 %.. w.....&.. .e
3360 02 00 A2 23 B7 0A A8 23 D7 2D A4 23 0A 00 02 06 ...#...#.-.#....
3370 77 00 E0 FE B7 0A 96 23 D7 2D 92 23 05 00 02 06 w......#.-.#....
3380 77 00 BE FE BF 0A 9E 20 F7 0B 36 25 68 03 FF 15 w...... ..6%h...
3390 29 00 92 20 F7 15 01 00 76 23 F7 15 18 5A 68 23 ).. ....v#...Zh#
33A0 F7 15 F0 59 64 23 F7 15 04 5A 60 23 FF 15 2A 00 ...Yd#...Z`#..*.
33B0 74 20 FF 0B 52 23 41 03 FF 15 2C 00 68 20 F7 1F t ..R#A...,.h ..
33C0 48 23 4E 23 BF 0A 5E 20 F7 1F 40 23 46 23 BF 0A H#N#..^ ..@#F#..
33D0 54 20 F7 2D E8 24 3A 23 30 02 FF 15 30 00 46 20 T .-.$:#0...0.F 
33E0 F7 2D DC 24 2E 23 29 02 FF 15 32 00 38 20 C5 15 .-.$.#)...2.8 ..
33F0 64 51 F7 09 4C 0B BF 0A 2C 20 F7 1D C2 24 18 23 dQ..L..., ...$.#
3400 B7 0A 14 23 C5 15 6A 51 F7 09 24 0E BF 0A 16 20 ...#..jQ..$.... 
3410 3F 0A F6 22 BF 0A 0E 20 3F 0A F0 22 BF 0A 06 20 ?.."... ?.."... 
3420 3F 0A E4 22 BF 0A FE 1F 37 0A 94 24 BF 0A F6 1F ?.."....7..$....
3430 37 0A 8E 24 BF 0A EE 1F 12 01 FF 15 3A 00 E6 1F 7..$........:...
3440 F7 65 02 00 C2 22 F7 65 02 00 BE 22 F7 65 02 00 .e...".e...".e..
3450 BA 22 B7 0A BA 22 D7 2D B6 22 0A 00 A7 07 FF 15 ."...".-."......
3460 3B 00 C2 1F F7 2F 96 22 0C 24 1C 03 FF 15 3D 00 ;..../.".$....=.
3470 B4 1F FF 1D 00 24 86 22 BF 0A AA 1F E6 15 58 51 .....$."......XQ
3480 E6 15 36 51 E6 15 00 57 F7 09 18 DB E6 15 76 58 ..6Q...W......vX
3490 F7 09 4E D6 F7 09 10 DA BF 0A 8A 1F C5 15 74 51 ..N...........tQ
34A0 F7 09 8C 0D FF 15 40 00 7C 1F 87 00             ......@.|...   

;; fn34AC: 34AC
fn34AC proc
	jsr	r4,@#0EF8
34B0 7E 51 FF 15 0B 00 6E 1F F7 15 01 00 72 22 F7 15 ~Q....n.....r"..
34C0 0A 00 8C 22 F7 15 2C 5A 58 22 F7 15 8E 51 54 22 ..."..,ZX"...QT"
34D0 FF 15 0C 00 50 1F C1 1F 48 22 77 10 54 22 BF 0A ....P...H"w.T"..
34E0 44 1F 40 10 C0 6F 3C 22 C0 0C F0 0B C2 58 02 02 D.@..o<".....X..
34F0 77 00 1C 01 FF 15 0F 00 2C 1F 37 0A 36 22 BF 0A w.......,.7.6"..
3500 24 1F F7 15 01 00 2E 22 C5 15 18 5A FF 15 11 00 $......"...Z....
3510 14 1F D5 0B 0C 02 FF 15 13 00 0A 1F F7 0B 14 22 ..............."
3520 06 02 FF 15 15 00 FE 1E F7 1D 0A 22 06 22 FF 15 ..........."."..
3530 16 00 F2 1E B7 0A FE 21 D7 2D FA 21 0A 00 E6 07 .......!.-.!....
3540 BF 0A E2 1E F7 0B EC 21 63 03 FF 15 19 00 D6 1E .......!c.......
3550 C5 15 AE 51 F7 09 F0 D9 66 10 26 10 E6 15 66 66 ...Q....f.&...ff
3560 E6 15 66 40 F7 09 A6 D8 53 05 FF 15 1B 00 B6 1E ..f@....S.......
3570 F7 6D 46 23 40 23 BF 0A AC 1E F7 6D 42 23 38 23 .mF#@#.....mB#8#
3580 BF 0A A2 1E F7 15 02 00 AE 21 BF 0A 98 1E D7 2D .........!.....-
3590 A0 21 03 00 05 07 BF 0A 8C 1E F7 15 03 00 98 21 .!.............!
35A0 FF 15 20 00 80 1E C5 15 AE 51 F7 09 9A D9 66 10 .. ......Q....f.
35B0 26 10 E6 1D 82 21 F7 09 4E D0 F7 09 B2 D0 B7 15 &....!..N.......
35C0 88 21 B7 15 86 21 C5 15 B4 51 F7 09 E0 D4 37 10 .!...!...Q....7.
35D0 66 21 BF 0A 50 1E F7 65 02 00 5C 21 BF 0A 46 1E f!..P..e..\!..F.
35E0 C2 1D 4E 21 C2 6F 3C 21 C2 0C C0 1D 4A 21 80 6C ..N!.o<!....J!.l
35F0 26 59 C3 1D 3E 21 C3 0C 33 10 EE 59 BF 0A 26 1E &Y..>!..3..Y..&.
3600 B3 1C 8A 59 02 5A BF 0A 1C 1E F3 15 FF FF 16 5A ...Y.Z.........Z
3610 FF 15 25 00 10 1E F7 65 02 00 06 21 F7 65 02 00 ..%....e...!.e..
3620 02 21 F7 0A 2A 21 02 07 77 00 A4 FE BF 0A F6 1D .!..*!..w.......
3630 F7 15 01 00 FA 20 F7 15 0A 00 16 21 F7 15 18 5A ..... .....!...Z
3640 E6 20 F7 15 F0 59 E2 20 F7 15 04 5A DE 20 FF 15 . ...Y. ...Z. ..
3650 27 00 D2 1D FF 0B D0 20 02 02 77 00 D6 02 FF 15 '...... ..w.....
3660 29 00 C2 1D C0 1F C2 20 37 10 CE 20 BF 0A B6 1D )...... 7.. ....
3670 C1 1F B8 20 77 10 C4 20 BF 0A AA 1D 17 20 4F 00 ... w.. ..... O.
3680 02 07 77 00 7E 02 FF 15 2D 00 9A 1D C0 0B 02 06 ..w.~...-.......
3690 77 00 70 02 FF 15 2F 00 8C 1D 57 20 13 00 02 07 w.p.../...W ....
36A0 77 00 60 02 FF 15 31 00 7C 1D C1 0B 02 06 77 00 w.`...1.|.....w.
36B0 52 02 FF 15 33 00 6E 1D D7 2F 6C 20 01 00 47 03 R...3.n../l ..G.
36C0 FF 15 35 00 60 1D C0 ED F0 21 37 10 70 20 BF 0A ..5.`....!7.p ..
36D0 54 1D C0 0B 06 04 BF 0A 4C 1D 37 10 60 20 37 0B T.......L.7.` 7.
36E0 5C 20 FF 15 38 00 3E 1D D7 2D 52 20 07 00 36 05 \ ..8.>..-R ..6.
36F0 FF 15 3A 00 30 1D E6 1F 26 20 F7 09 0A CF B7 15 ..:.0...& ......
3700 3E 20 B7 15 3C 20 BF 0A 1C 1D E6 1D 34 20 E6 1D > ..< ......4 ..
3710 2E 20 26 0A E6 15 48 43 F7 09 38 D0 B7 15 20 20 . &...HC..8...  
3720 B7 15 1E 20 BF 0A FE 1C C5 15 AE 51 F7 09 18 D8 ... .......Q....
3730 66 10 26 10 E6 1D 0A 20 E6 1D 04 20 F7 09 CE D6 f.&.... ... ....
3740 02 06 77 00 BE 01 FF 15 3E 00 DA 1C 07 01 FF 15 ..w.....>.......
3750 3F 00 D2 1C C5 15 B8 51 F7 09 D4 0A FF 15 40 00 ?......Q......@.
3760 C4 1C FF 15 01 00 C0 1F BF 0A BA 1C C0 1D CC 1F ................
3770 C0 0A 37 10 C6 1F BF 0A AC 1C 17 20 01 00 44 03 ..7........ ..D.
3780 FF 15 44 00 A0 1C 17 20 02 00 73 03 FF 15 46 00 ..D.... ..s...F.
3790 94 1C C5 15 C2 51 F7 09 A2 09 BF 0A 88 1C C5 15 .....Q..........
37A0 C6 51 F7 09 8A 0A BF 0A 7C 1C C5 15 D0 51 F7 09 .Q......|....Q..
37B0 8A 09 BF 0A 70 1C F7 0B 08 21 02 02 77 00 5E 01 ....p....!..w.^.
37C0 FF 15 4B 00 60 1C F7 2D 70 1F F2 20 02 03 77 00 ..K.`..-p.. ..w.
37D0 4C 01 FF 15 4D 00 4E 1C F7 2D 60 1F E2 20 02 03 L...M.N..-`.. ..
37E0 77 00 3A 01 FF 15 4F 00 3C 1C 37 0A D4 20 BF 0A w.:...O.<.7.. ..
37F0 34 1C 37 0A CA 20 BF 0A 2C 1C C5 15 D4 51 F7 09 4.7.. ..,....Q..
3800 40 07 BF 0A 20 1C 7E 01 FF 15 53 00 18 1C C2 1D @... .~...S.....
3810 A8 20 C1 1D 24 1F 42 20 12 03 FF 15 55 00 06 1C . ..$.B ....U...
3820 80 10 C0 0A 40 20 0B 03 FF 15 57 00 F8 1B 80 10 ....@ ....W.....
3830 80 0A 40 20 04 03 FF 15 59 00 EA 1B 63 01 FF 15 ..@ ....Y...c...
3840 5A 00 E2 1B C5 15 DA 51 F7 09 10 01 BF 0A D6 1B Z......Q........
3850 C0 1F CA 1E 80 0A 3F 10 C4 1E BF 0A C8 1B 17 20 ......?........ 
3860 04 00 50 05 FF 15 5E 00 BC 1B C5 15 D0 51 F7 09 ..P...^......Q..
3870 C8 EB FF 15 5F 00 AE 1B F7 15 01 00 C6 1E F7 15 ...._...........
3880 0D 00 CA 1E FF 15 60 00 9C 1B F7 15 01 00 B6 1E ......`.........
3890 C5 15 8E 51 FF 15 61 00 8C 1B C2 1D A6 1E 42 65 ...Q..a.......Be
38A0 C2 0C 80 1C 3E 5A 18 03 FF 15 63 00 78 1B C3 1D ....>Z....c.x...
38B0 94 1E C3 6D 98 1E F7 10 8E 1E BF 0A 68 1B F7 20 ...m........h.. 
38C0 78 1E 0A 02 FF 15 66 00 5C 1B 01 10 C1 0A 72 10 x.....f.\.....r.
38D0 3E 5A BF 0A 50 1B 16 01 FF 15 68 00 48 1B B7 0A >Z..P.....h.H...
38E0 64 1E D7 2D 60 1E 04 00 D5 07 F7 65 0D 00 5E 1E d..-`......e..^.
38F0 B7 0A 50 1E D7 2D 4C 1E 05 00 C4 07 BF 0A 26 1B ..P..-L.......&.
3900 77 00 88 FE FF 15 6A 00 1C 1B 37 0A 2C 1E BF 0A w.....j...7.,...
3910 14 1B 37 0A 26 1E BF 0A 0C 1B 3F 0A 0A 1E FF 15 ..7.&.....?.....
3920 6D 00 02 1B FF 1D 12 1E 00 1E BF 0A F8 1A FF 1D m...............
3930 0A 1E F8 1D FF 15 6F 00 EC 1A F7 65 02 00 E8 1D ......o....e....
3940 F7 65 02 00 E4 1D F7 65 02 00 E0 1D F7 0A 02 1E .e.....e........
3950 02 07 77 00 F8 FC BF 0A CC 1A 87 00             ..w.........   

;; fn395C: 395C
fn395C proc
	jsr	r4,@#0EF8
3960 DC 51 FF 15 06 00 BE 1A 37 8A F2 1D BF 0A B6 1A .Q......7.......
3970 37 0A EC 1D FF 15 08 00 AC 1A F7 1D E2 1D E4 1D 7...............
3980 B7 0A E0 1D F7 1D 32 1F DC 1D F7 6D D2 1D D6 1D ......2....m....
3990 C5 15 0A 52 F7 09 98 08 BF 0A 8A 1A F7 1D C0 1D ...R............
39A0 C6 1D B7 0A C2 1D C5 15 14 52 F7 09 82 08 BF 0A .........R......
39B0 74 1A F7 1D AA 1D B2 1D B7 0A AE 1D F7 1D FA 1E t...............
39C0 AA 1D F7 ED 9A 1D A4 1D C5 15 1E 52 F7 09 60 08 ...........R..`.
39D0 BF 0A 52 1A F7 1D E2 1E 94 1D F7 ED 82 1D 8E 1D ..R.............
39E0 C5 15 28 52 F7 09 48 08 BF 0A 3A 1A F7 1D CA 1E ..(R..H...:.....
39F0 7E 1D F7 6D 6A 1D 78 1D C5 15 32 52 F7 09 30 08 ~..mj.x...2R..0.
3A00 BF 0A 22 1A D7 2D 58 1D 05 00 5B 03 FF 15 0F 00 .."..-X...[.....
3A10 14 1A F7 1D 4A 1D 6A 1D F7 65 02 00 64 1D F7 1D ....J.j..e..d...
3A20 60 1D 4E 1D C0 1D 92 1E C0 6D 34 1D 80 0A 37 10 `.N......m4...7.
3A30 42 1D C5 15 3C 52 F7 09 F6 07 BF 0A E8 19 F7 1D B...<R..........
3A40 40 1D 32 1D C5 15 46 52 F7 09 E4 07 BF 0A D6 19 @.2...FR........
3A50 C0 1D 0C 1D 80 0A 80 0A 37 10 1C 1D C0 1D 5A 1E ........7.....Z.
3A60 C0 0A C0 ED FA 1C 37 10 10 1D C5 15 50 52 F7 09 ......7.....PR..
3A70 BE 07 BF 0A B0 19 C0 1D 40 1E C0 ED E2 1C C0 0A ........@.......
3A80 37 10 F8 1C C5 15 5A 52 F7 09 A4 07 BF 0A 96 19 7.....ZR........
3A90 C0 1D 26 1E C0 6D C8 1C 80 0A 37 10 E0 1C C5 15 ..&..m....7.....
3AA0 64 52 F7 09 8A 07 BF 0A 7C 19 E6 15 08 52 E6 15 dR......|....R..
3AB0 F8 51 F7 09 C4 D2 E6 15 5E 57 F7 09 06 D0 F7 09 .Q......^W......
3AC0 E6 D3 FF 15 15 00 5E 19 B7 0A 94 1C D7 2D 90 1C ......^......-..
3AD0 05 00 02 06 77 00 9C FE BF 0A 4A 19 F7 15 01 00 ....w.....J.....
3AE0 7E 1C FF 15 17 00 3E 19 F7 15 01 00 74 1C C4 15 ~.....>.....t...
3AF0 04 00 C5 15 FE 51 FF 15 18 00 2A 19 C1 1D 60 1C .....Q....*...`.
3B00 40 10 40 65 C0 0C F0 15 FF FF 66 5A FF 15 19 00 @.@e......fZ....
3B10 14 19 C4 0A F0 06 81 0A 77 10 44 1C 57 20 05 00 ........w.D.W ..
3B20 E0 07 BF 0A 00 19 F7 15 04 00 8E 1D BF 0A F6 18 ................
3B30 F7 15 FF FF 86 1D BF 0A EC 18 87 00             ............   

;; fn3B3C: 3B3C
fn3B3C proc
	jsr	r4,@#0EF8
3B40 6E 52 FF 15 07 00 DE 18 D7 2D 3E 1C 01 00 73 03 nR.......->...s.
3B50 FF 15 09 00 D0 18 C5 15 9C 52 F7 09 EA D3 37 10 .........R....7.
3B60 2A 1C 77 10 28 1C BF 0A BC 18 E6 1D 20 1C E6 1D *.w.(....... ...
3B70 1A 1C E6 15 A4 70 E6 15 7D 40 F7 09 90 D2 5B 05 .....p..}@....[.
3B80 FF 15 0C 00 A0 18 F7 15 01 00 FE 1B BF 0A 96 18 ................
3B90 E6 1D FA 1B E6 1D F4 1B E6 15 52 B8 E6 15 7E 40 ..........R...~@
3BA0 F7 09 6A D2 0E 05 FF 15 0F 00 7A 18 F7 15 4C 00 ..j.......z...L.
3BB0 DE 1B BF 0A 70 18 F7 15 FF FF D6 1B BF 0A 66 18 ....p.........f.
3BC0 0B 01 FF 15 12 00 5E 18 F7 15 04 00 C2 1B BF 0A ......^.........
3BD0 54 18 F7 15 01 00 BA 1B FF 15 14 00 48 18 C5 15 T...........H...
3BE0 9C 52 F7 09 62 D3 37 10 AA 1B 77 10 A8 1B BF 0A .R..b.7...w.....
3BF0 34 18 E6 1D A0 1B E6 1D 9A 1B 26 0A E6 15 80 41 4.........&....A
3C00 F7 09 6C CA B7 15 8C 1B B7 15 8A 1B BF 0A 16 18 ..l.............
3C10 C5 15 A2 52 F7 09 96 CE C0 65 13 00 37 10 78 1B ...R.....e..7.x.
3C20 BF 0A 02 18 D7 2D 70 1B 17 00 05 05 BF 0A F6 17 .....-p.........
3C30 F7 15 16 00 62 1B FF 15 19 00 EA 17 F7 0B 4A 1B ....b.........J.
3C40 02 02 77 00 C4 01 FF 15 1B 00 DA 17 F7 6D 42 1B ..w..........mB.
3C50 3E 1B BF 0A D0 17 00 0A D7 2D 34 1B 04 00 01 04 >........-4.....
3C60 C0 0A 01 0A D7 2D 28 1B 4C 00 01 07 C1 0A 40 D0 .....-(.L.....@.
3C70 02 03 77 00 74 01 FF 15 1E 00 AA 17 F7 1D 10 1B ..w.t...........
3C80 1C 1B F7 0A 18 1B C5 15 A6 52 F7 09 A2 05 BF 0A .........R......
3C90 94 17 F7 0B 2C 1C 02 02 77 00 6E 01 FF 15 21 00 ....,...w.n...!.
3CA0 84 17 C1 1D 18 1C 77 20 E6 1A 16 03 FF 15 23 00 ......w ......#.
3CB0 74 17 C0 1D DA 1A 80 0A 40 20 0E 03 FF 15 25 00 t.......@ ....%.
3CC0 64 17 C0 1D CA 1A C0 65 02 00 40 20 05 03 FF 15 d......e..@ ....
3CD0 27 00 52 17 77 00 32 01 FF 15 28 00 48 17 C0 1D '.R.w.2...(.H...
3CE0 DE 1B 80 0A 37 20 B0 1A 02 03 77 00 1C 01 FF 15 ....7 ....w.....
3CF0 2A 00 32 17 F7 1D 98 1A A6 1A F7 0A A2 1A C5 15 *.2.............
3D00 B0 52 F7 09 2A 05 BF 0A 1C 17 F7 1D 82 1A 92 1A .R..*...........
3D10 B7 0A 8E 1A C5 15 BA 52 F7 09 26 02 BF 0A 06 17 .......R..&.....
3D20 37 0A 9C 1B BF 0A FE 16 37 0A 92 1B BF 0A F6 16 7.......7.......
3D30 37 0A 8E 1B BF 0A EE 16 C5 15 9C 52 F7 09 08 D2 7..........R....
3D40 37 10 50 1A 77 10 4E 1A BF 0A DA 16 E6 1D 46 1A 7.P.w.N.......F.
3D50 E6 1D 40 1A 26 0A E6 15 20 42 F7 09 12 C9 B7 15 ..@.&... B......
3D60 42 1A B7 15 40 1A C5 15 C0 52 F7 09 40 CD 01 10 B...@....R..@...
3D70 57 70 19 00 C1 65 32 00 77 10 1E 1A BF 0A A6 16 Wp...e2.w.......
3D80 E6 15 92 52 E6 15 8E 52 E6 15 84 57 F7 09 14 D2 ...R...R...W....
3D90 E6 15 9A 57 F7 09 4A CD F7 09 0C D1 BF 0A 86 16 ...W..J.........
3DA0 F7 15 01 00 F6 19 F7 15 0A 00 FE 19 FF 15 33 00 ..............3.
3DB0 74 16 C5 15 C4 52 F7 09 76 04 BF 0A 68 16 C5 15 t....R..v...h...
3DC0 CE 52 F7 09 6A 04 FF 15 35 00 5A 16 F7 0A DA 19 .R..j...5.Z.....
3DD0 ED 06 BF 0A 50 16 F7 6D C0 19 9A 1A BF 0A 46 16 ....P..m......F.
3DE0 37 0A A6 19 BF 0A 3E 16 10 01 FF 15 39 00 36 16 7.....>.....9.6.
3DF0 F7 1D 9C 19 B2 19 F7 0A AE 19 C5 15 D8 52 F7 09 .............R..
3E00 2E 04 BF 0A 20 16 37 0A 80 19 FF 15 3B 00 16 16 .... .7.....;...
3E10 87 00                                           ..             

;; fn3E12: 3E12
fn3E12 proc
	jsr	r4,@#0EF8
3E16                   E2 52 FF 15 05 00 08 16 F7 15       .R........
3E20 01 00 8E 19 F7 15 0D 00 92 19 FF 15 06 00 F6 15 ................
3E30 F7 15 01 00 7E 19 F7 15 EA 52 72 19 FF 15 07 00 ....~....Rr.....
3E40 E4 15 C2 1D 6C 19 C2 6F 64 19 C2 0C 81 1C 3E 5A ....l..od.....>Z
3E50 77 10 62 19 BF 0A CE 15 83 1C 66 5A F7 10 58 19 w.b.......fZ..X.
3E60 BF 0A C2 15 C1 20 53 03 FF 15 0B 00 B8 15 72 10 ..... S.......r.
3E70 66 5A BF 0A B0 15 F7 1D 3A 19 3E 19 F7 6D 3C 19 fZ......:.>..m<.
3E80 38 19 BF 0A A0 15 57 20 0A 00 16 03 FF 15 0F 00 8.....W ........
3E90 94 15 57 20 01 00 19 03 FF 15 11 00 88 15 C1 0B ..W ............
3EA0 1D 03 FF 15 13 00 7E 15 C0 15 75 00 40 E0 37 90 ......~...u.@.7.
3EB0 FE 18 BF 0A 70 15 18 01 FF 15 15 00 68 15 F7 95 ....p.......h...
3EC0 61 00 EC 18 BF 0A 5E 15 0F 01 FF 15 17 00 56 15 a.....^.......V.
3ED0 F7 95 69 00 DA 18 BF 0A 4C 15 06 01 FF 15 19 00 ..i.....L.......
3EE0 44 15 F7 95 5F 00 C8 18 FF 15 1A 00 38 15 C5 15 D..._.......8...
3EF0 F8 52 F7 09 46 02 BF 0A 2C 15 C5 15 FC 52 F7 09 .R..F...,....R..
3F00 2E 03 BF 0A 20 15 C5 15 06 53 F7 09 2E 02 FF 15 .... ....S......
3F10 1D 00 12 15 F7 65 02 00 94 18 B7 0A 96 18 D7 2D .....e.........-
3F20 92 18 04 00 8B 07 F7 65 0D 00 90 18 B7 0A 82 18 .......e........
3F30 D7 2D 7E 18 05 00 02 06 77 00 EE FE BF 0A E6 14 .-~.....w.......
3F40 87 00                                           ..             

;; fn3F42: 3F42
fn3F42 proc
	jsr	r4,@#0EF8
3F46                   0A 53 FF 15 05 00 D8 14 37 8A       .S......7.
3F50 74 18 BF 0A D0 14 F7 1F 66 18 6C 18 F7 E5 02 00 t.......f.l.....
3F60 66 18 BF 0A C0 14 C5 15 2A 53 F7 09 C6 05 BF 0A f.......*S......
3F70 B4 14 F7 15 01 00 52 18 F7 15 0A 00 52 18 FF 15 ......R.....R...
3F80 09 00 A2 14 E6 15 12 53 E6 15 28 53 E6 1D 32 18 .......S..(S..2.
3F90 E6 15 C8 57 E6 15 04 00 85 11 F7 09 92 02 C6 65 ...W...........e
3FA0 0A 00 BF 0A 80 14 E6 15 18 53 E6 15 28 53 E6 1D .........S..(S..
3FB0 10 18 E6 15 C8 57 E6 15 04 00 85 11 F7 09 70 02 .....W........p.
3FC0 C6 65 0A 00 FF 15 0B 00 5C 14 F7 0A 02 18 D7 06 .e......\.......
3FD0 BF 0A 52 14 D7 2F EA 17 02 00 26 02 FF 15 0E 00 ..R../....&.....
3FE0 44 14 F7 15 01 00 E4 17 FF 15 0F 00 38 14 F7 15 D...........8...
3FF0 01 00 DA 17 C4 15 04 00 C5 15 1E 53 FF 15 10 00 ...........S....
4000 24 14 C1 1D C6 17 40 10 40 65 C0 0C F0 15 FF FF $.....@.@e......
4010 66 5A FF 15 11 00 0E 14 C4 0A F0 06 81 0A 77 10 fZ............w.
4020 AA 17 57 20 05 00 E0 07 FF 15 12 00 F8 13 87 00 ..W ............

;; fn4030: 4030
fn4030 proc
	jsr	r4,@#0EF8
4034             30 53 FF 15 03 00 EA 13 F7 95 9B 00     0S..........
4040 92 17 BF 0A E0 13 F7 95 48 00 89 17 BF 0A D6 13 ........H.......
4050 F7 95 9B 00 80 17 BF 0A CC 13 F7 95 4A 00 77 17 ............J.w.
4060 BF 0A C2 13 C5 15 3E 53 F7 09 C8 04 BF 0A B6 13 ......>S........
4070 87 00                                           ..             

;; fn4072: 4072
fn4072 proc
	jsr	r4,@#0EF8
4076                   44 53 FF 15 03 00 A8 13 F7 1F       DS........
4080 56 17 5C 17 BF 0A 9E 13 F7 1F 4E 17 54 17 BF 0A V.\.......N.T...
4090 94 13 F7 0B 4A 17 04 04 BF 0A 8A 13 37 0A 40 17 ....J.......7.@.
40A0 FF 15 07 00 80 13 F7 0B 38 17 04 04 BF 0A 76 13 ........8.....v.
40B0 37 0A 2E 17 FF 15 09 00 6C 13 D7 2D 22 17 4F 00 7.......l..-".O.
40C0 05 07 BF 0A 60 13 F7 15 4F 00 14 17 FF 15 0B 00 ....`...O.......
40D0 54 13 D7 2D 0C 17 17 00 05 07 BF 0A 48 13 F7 15 T..-........H...
40E0 17 00 FE 16 FF 15 0D 00 3C 13 F7 65 20 00 F0 16 ........<..e ...
40F0 BF 0A 32 13 37 0B EA 16 F7 65 37 00 E4 16 BF 0A ..2.7....e7.....
4100 24 13 F7 95 9B 00 D4 16 BF 0A 1A 13 F7 95 59 00 $.............Y.
4110 CB 16 BF 0A 10 13 C0 9D C8 16 37 90 C0 16 BF 0A ..........7.....
4120 04 13 C0 9D BA 16 37 90 B5 16 BF 0A F8 12 C5 15 ......7.........
4130 4E 53 F7 09 FE 03 BF 0A EC 12 87 00             NS..........   

;; fn413C: 413C
fn413C proc
	jsr	r4,@#0EF8
4140 54 53 FF 15 03 00 DE 12 F7 95 9B 00 98 16 BF 0A TS..............
4150 D4 12 F7 95 46 00 8F 16 BF 0A CA 12 FF 0B 84 16 ....F...........
4160 05 02 BF 0A C0 12 F7 95 47 00 7B 16 FF 15 07 00 ........G.{.....
4170 B4 12 C5 15 62 53 F7 09 BA 03 BF 0A A8 12 87 00 ....bS..........

;; fn4180: 4180
fn4180 proc
	jsr	r4,@#0EF8
4184             68 53 FF 15 05 00 9A 12 C5 15 76 53     hS........vS
4190 F7 09 60 CB BF 0A 8E 12 E6 15 74 53 E6 15 70 53 ..`.......tS..pS
41A0 E6 15 E8 57 F7 09 06 CE E6 15 74 53 E6 15 FA 57 ...W......tS...W
41B0 F7 09 8A C9 F7 09 F0 CC BF 0A 6A 12 E6 15 74 53 ..........j...tS
41C0 E6 15 70 53 E6 15 E8 57 F7 09 E2 CD E6 15 74 53 ..pS...W......tS
41D0 E6 15 FE 57 F7 09 66 C9 F7 09 CC CC BF 0A 46 12 ...W..f.......F.
41E0 E6 15 74 53 E6 15 70 53 E6 15 E8 57 F7 09 BE CD ..tS..pS...W....
41F0 E6 15 74 53 E6 15 02 58 F7 09 42 C9 F7 09 A8 CC ..tS...X..B.....
4200 FF 15 0A 00 20 12 C0 1D F0 15 C0 6D F0 15 C0 6D .... ......m...m
4210 F0 15 37 10 A0 16 BF 0A 0C 12 C0 1D DE 15 C0 6D ..7............m
4220 DE 15 C0 6D DE 15 37 10 8E 16 BF 0A F8 11 87 00 ...m..7.........

;; fn4230: 4230
fn4230 proc
	jsr	r4,@#0EF8
4234             7A 53 FF 15 04 00 EA 11 F7 1F C8 15     zS..........
4240 14 16 BF 0A E0 11 F7 1F C0 15 0C 16 BF 0A D6 11 ................
4250 F7 0B 02 16 04 04 BF 0A CC 11 37 0A F8 15 FF 15 ..........7.....
4260 08 00 C2 11 F7 0B F0 15 04 04 BF 0A B8 11 37 0A ..............7.
4270 E6 15 FF 15 0A 00 AE 11 D7 2D DA 15 4F 00 05 07 .........-..O...
4280 BF 0A A2 11 F7 15 4F 00 CC 15 FF 15 0C 00 96 11 ......O.........
4290 D7 2D C4 15 17 00 05 07 BF 0A 8A 11 F7 15 17 00 .-..............
42A0 B6 15 FF 15 0E 00 7E 11 F7 65 20 00 A8 15 BF 0A ......~..e .....
42B0 74 11 37 0B A2 15 F7 65 37 00 9C 15 BF 0A 66 11 t.7....e7.....f.
42C0 F7 95 9B 00 4B 15 BF 0A 5C 11 F7 95 59 00 42 15 ....K...\...Y.B.
42D0 BF 0A 52 11 C0 9D 80 15 37 90 37 15 BF 0A 46 11 ..R.....7.7...F.
42E0 C0 9D 72 15 37 90 2C 15 BF 0A 3A 11 F7 95 24 00 ..r.7.,...:...$.
42F0 1E 15 BF 0A 30 11 D7 2F 12 15 01 00 41 03 FF 15 ....0../....A...
4300 17 00 22 11 D7 2F 04 15 05 00 5A 03 FF 15 19 00 .."../....Z.....
4310 14 11 D7 2F F6 14 06 00 02 02 77 00 00 01 FF 15 .../......w.....
4320 1B 00 02 11 D7 2F E4 14 07 00 02 02 77 00 4A 01 ...../......w.J.
4330 FF 15 1D 00 F0 10 D7 2F D2 14 1E 00 02 02 77 00 ......./......w.
4340 94 01 FF 15 1F 00 DE 10 E6 1D BE 14 E6 1D B8 14 ................
4350 E6 15 02 00 85 11 F7 09 18 FD C6 65 06 00 BF 0A ...........e....
4360 C4 10 E6 1D A8 14 E6 1D A2 14 E6 15 02 00 85 11 ................
4370 F7 09 C0 01 C6 65 06 00 BF 0A AA 10 77 00 AC 01 .....e......w...
4380 FF 15 22 00 A0 10 F7 9F 84 14 89 14 BF 0A 96 10 ..".............
4390 E6 15 A8 53 E6 15 84 53 F7 09 DE C9 E6 15 A8 53 ...S...S.......S
43A0 E6 15 10 58 F7 09 9C C7 E6 15 A6 53 E6 15 15 58 ...X.......S...X
43B0 F7 09 90 C7 F7 09 F0 CA BF 0A 6A 10 77 00 6C 01 ..........j.w.l.
43C0 FF 15 25 00 60 10 F7 15 01 00 8E 14 C3 15 05 00 ..%.`...........
43D0 C4 1D 3A 14 C5 15 16 58 FF 15 26 00 48 10 15 95 ..:....X..&.H...
43E0 FF 15 27 00 40 10 C3 0A F7 06 BF 0A 38 10 E6 15 ..'.@.......8...
43F0 A8 53 E6 15 8A 53 F7 09 80 C9 E6 15 A8 53 E6 15 .S...S.......S..
4400 10 58 F7 09 3E C7 E6 15 A8 53 E6 15 16 58 F7 09 .X..>....S...X..
4410 32 C7 F7 09 92 CA BF 0A 0C 10 77 00 0E 01 FF 15 2.........w.....
4420 2A 00 02 10 F7 15 01 00 30 14 C3 15 06 00 C4 1D *.......0.......
4430 DC 13 C5 15 1B 58 FF 15 2B 00 EA 0F 15 95 FF 15 .....X..+.......
4440 2C 00 E2 0F C3 0A F7 06 BF 0A DA 0F E6 15 A8 53 ,..............S
4450 E6 15 91 53 F7 09 22 C9 E6 15 A8 53 E6 15 10 58 ...S.."....S...X
4460 F7 09 E0 C6 E6 15 AA 53 E6 15 1B 58 F7 09 D4 C6 .......S...X....
4470 F7 09 34 CA BF 0A AE 0F 59 01 FF 15 2F 00 A6 0F ..4.....Y.../...
4480 F7 15 01 00 D4 13 C3 15 07 00 C4 1D 80 13 C5 15 ................
4490 21 58 FF 15 30 00 8E 0F 15 95 FF 15 31 00 86 0F !X..0.......1...
44A0 C3 0A F7 06 BF 0A 7E 0F E6 15 A8 53 E6 15 98 53 ......~....S...S
44B0 F7 09 C6 C8 E6 15 A8 53 E6 15 10 58 F7 09 84 C6 .......S...X....
44C0 E6 15 AC 53 E6 15 21 58 F7 09 78 C6 F7 09 D8 C9 ...S..!X..x.....
44D0 BF 0A 52 0F 2B 01 FF 15 34 00 4A 0F F7 15 01 00 ..R.+...4.J.....
44E0 78 13 C3 15 1E 00 C4 1D 24 13 C5 15 28 58 FF 15 x.......$...(X..
44F0 35 00 32 0F 15 95 FF 15 36 00 2A 0F C3 0A F7 06 5.2.....6.*.....
4500 BF 0A 22 0F E6 15 A8 53 E6 15 9F 53 F7 09 6A C8 .."....S...S..j.
4510 E6 15 A8 53 E6 15 10 58 F7 09 28 C6 E6 15 AE 53 ...S...X..(....S
4520 E6 15 28 58 F7 09 1C C6 F7 09 7C C9 FF 15 38 00 ..(X......|...8.
4530 F4 0E 87 00                                     ....           

;; fn4534: 4534
fn4534 proc
	jsr	r4,@#0EF8
4538                         B0 53 FF 15 03 00 E6 0E         .S......
4540 F7 15 01 00 24 13 C4 1F 1A 13 C5 1D 18 13 FF 15 ....$...........
4550 04 00 D2 0E E6 15 BE 53 E6 15 B8 53 F7 09 1A C8 .......S...S....
4560 66 11 F7 09 5E C5 F7 09 3E C9 FF 15 05 00 B6 0E f...^...>.......
4570 85 0A C4 0A EC 06 BF 0A AC 0E 87 00             ............   

;; fn457C: 457C
fn457C proc
	jsr	r4,@#0EF8
4580 C0 53 FF 15 03 00 9E 0E F7 95 9B 00 E0 12 BF 0A .S..............
4590 94 0E F7 95 5B 00 D7 12 BF 0A 8A 0E F7 95 3F 00 ....[.........?.
45A0 CE 12 BF 0A 80 0E F7 95 32 00 C5 12 BF 0A 76 0E ........2.....v.
45B0 F7 95 6C 00 BC 12 BF 0A 6C 0E C5 15 D2 53 F7 09 ..l.....l....S..
45C0 72 FF BF 0A 60 0E 87 00                         r...`...       

;; fn45C8: 45C8
fn45C8 proc
	jsr	r4,@#0EF8
45CC                                     D8 53 FF 15             .S..
45D0 03 00 52 0E F7 95 9B 00 9A 12 BF 0A 48 0E F7 95 ..R.........H...
45E0 3C 00 91 12 BF 0A 3E 0E C5 15 E4 53 F7 09 44 FF <.....>....S..D.
45F0 BF 0A 32 0E 87 00                               ..2...         

;; fn45F6: 45F6
;;   Called from:
;;     1496 (in fn145E)
fn45F6 proc
	mov	r5,-(sp)
	mov	r4,-(sp)
	mov	r1,-(sp)
	mov	r0,-(sp)
	mov	r2,-(sp)
	clr	r4

l4602:
	sub	#000A,r2
	bmi	460C

l4608:
	inc	r4
	br	4602

l460C:
	add	#000A,r2
	tst	r4
	bne	461A

l4614:
	add	r2,r4
	mov	#FFE2,r2

l461A:
	add	#001E,r4
	mov	r4,-(sp)
	asl	r4
	asl	r4
	add	(sp)+,r4
	asl	r4
	asl	r4
	asl	r4
	bpl	4614

l462E:
	mov	r0,r5
	add	#0006,r5
	mov	@r5,r2
	bne	465A

l4638:
	mov	r4,(r5)+
	mov	#47E4,r1

l463E:
	tst	@r1
	beq	464A

l4642:
	cmp	@r1,@sp
	beq	464A

l4646:
	cmp	(r1)+,(r1)+
	br	463E

l464A:
	mov	-(r1),r2
	mov	#28AE,(r5)+
	mov	r4,(r5)+
	mov	#193C,@r5
	sub	#0006,r5

l465A:
	tst	@r0
	bmi	4662

l465E:
	bis	#0100,@r0

l4662:
	mov	0010(r3),r0
	mov	r0,-(sp)
	clr	r1

l466A:
	inc	r1
	bvs	46C2

l466E:
	ror	r0
	bcs	466A

l4672:
	movb	r1,000B(r5)
	decb	000B(r5)
	setflags	#01

l467C:
	rol	r0
	dec	r1
	bne	467C

l4682:
	mov	r0,0010(r3)
	jsr	pc,@#13FE
	mov	0050(r3),r4
	mov	r5,r1
	mov	#474C,r0
	mov	@#0026,r5
	beq	46BA

l469A:
	add	#1000,r5
	cmp	r5,#474E
	blos	46BA

l46A4:
	mov	#47E0,r5
	cmp	@#0026,r5
	bcc	46BA

l46AE:
	mov	#099E,-(sp)

l46B2:
	mov	-(r5),-(sp)
	cmp	r5,r0
	bhi	46B2

l46B8:
	mov	sp,r0

l46BA:
	jsr	pc,@r0
	asl	r4
	jmp	46C4(r4)

l46C2:
	trap	#9F
l46C4	dw	0x899B
l46C6	dw	0x899C
46C8                         9D 89 23 01                     ..#.   
46CC                                     D6 0B 42 9C             ..B.
46D0 0A 00 01 02 82 0A B1 90 0A 00 C2 00 B1 10 FE FF ................
46E0 F1 1C 0C 00 FC FF C2 0C B3 60 0C 00 D7 AE 50 00 .........`....P.
46F0 14 00 03 02 F1 55 00 20 FA FF D7 AE 50 00 03 00 .....U. ....P...
4700 03 02 F1 55 00 04 FA FF F3 2C 0A 00 0C 00 08 82 ...U.....,......
4710 9E 89                                           ..             

l4712:
	mov	(sp)+,0010(r3)
	bis	#0080,FFFA(r1)
	clrb	000A(r1)
	mov	(sp)+,r2
	mov	(sp)+,r0
	clr	0018(r0)
	bit	#0018,@r0
	beq	4736

l472E:
	bit	#0010,@r0
	beq	4740

l4734:
	br	473C

l4736:
	bit	#0480,@r0
	beq	4740

l473C:
	bis	#0020,@r0

l4740:
	bis	#0800,@r0
	mov	(sp)+,r1
	mov	(sp)+,r4
	mov	(sp)+,r5
	rts	pc

;; fn474C: 474C
;;   Called from:
;;     46BA (in fn45F6)
fn474C proc
	emt	#E6
	clr	-(sp)
	mov	0008(r3),r0
	beq	4762

l4756:
	mov	r0,-(sp)
	mov	#0004,r0
	emt	#EB
	clr	0008(r3)

l4762:
	mov	r1,r0
	mov	r4,-(sp)
	emt	#E2
	bcc	4772

l476A:
	mov	r2,@r1
	mov	r4,-(sp)
	emt	#E2
	bcs	47DC

l4772:
	mov	(r4)+,r2
	cmpb	#0004,r2
	beq	47D6

l477A:
	mov	(r4)+,r2
	tst	@r4
	bne	4796

l4780:
	sub	r2,000A(r3)
	cmp	000A(r3),000C(r3)
	blos	47D8

l478C:
	mov	r1,r0
	mov	000A(r3),-(sp)
	emt	#E3
	bcs	47DC

l4796:
	mov	sp,r4
	clr	-(sp)
	mov	#0100,r0
	bit	#0100,FFFA(r1)
	bne	47AE

l47A6:
	mov	0012(r1),-(sp)
	mov	#0200,r0

l47AE:
	mov	r1,-(sp)
	bisb	000B(r1),r0
	mov	r0,-(sp)
	mov	sp,r0
	emt	#FD
	mov	r4,sp
	bcc	47D4

l47BE:
	bit	#0004,0016(r1)
	beq	47DA

l47C6:
	bic	#0100,FFFA(r1)
	bic	#0004,0016(r1)
	br	4796

l47D4:
	inc	@sp

l47D6:
	inc	@sp

l47D8:
	inc	@sp

l47DA:
	inc	@sp

l47DC:
	emt	#E7
	mov	(sp)+,r4
	rts	pc
47E2       20 80 05 00 80 4D 06 00 78 64 08 00 78 64    ....M..xd..xd
47F0 09 00 20 80 07 00 A8 7A 01 00 B8 1A 00 00 09 B1 .. ....z........
4800 8C 3A 00 00 50 54 53 50 41 43 45 2E 44 41 54 00 .:..PTSPACE.DAT.
4810 12 05 06 90 1D 01 06 20 3D 00 43 68 61 6D 70 69 ....... =.Champi
4820 6F 6E 3A 20 00 20 20 52 65 63 6F 72 64 3A 20 00 on: .  Record: .
4830 20 59 6F 75 72 20 53 63 6F 72 65 3A 20 00 20 20  Your Score: .  
4840 3C 3E 20 20 00 20 20 20 7D 7B 20 20 00 20 20 20 <>  .   }{  .   
4850 3C 61 3E 20 20 00 20 20 3E 3C 20 20 00 20 20 20 <a>  .  ><  .   
4860 7B 7D 20 20 00 20 20 20 3E 61 3C 20 20 00 20 20 {}  .   >a<  .  
4870 20 20 20 20 20 00 12 05 06 0E 00 00 0A 00 00 00      ...........
4880 05 00 0A 00 0F 00 14 00 19 00 1E 00 23 00 28 00 ............#.(.
4890 2D 00 00 00 32 00 01 00 05 00 06 00 07 00 1E 00 -...2...........
48A0 0A 00 02 00 04 00 50 00 00 00 01 10 17 00 0E 00 ......P.........
48B0 2C 00 09 00 35 00 3A 00 0D 00 00 00 05 00 AA 48 ,...5.:........H
48C0 A4 48 06 48 A2 48 96 48 03 00 96 48 A4 48 A8 48 .H.H.H.H...H.H.H
48D0 04 00 A8 48 A8 48 A6 48 64 54 04 00 A4 48 AC 48 ...H.H.HdT...H.H
48E0 A0 48 1A 48 04 00 AE 48 AC 48 9E 48 7A 58 04 00 .H.H...H.H.HzX..
48F0 B0 48 AC 48 B2 48 26 48 04 00 B4 48 AC 48 98 48 .H.H.H&H...H.H.H
4900 DC 54 04 00 B6 48 AC 48 B8 48 30 48 01 00 96 48 .T...H.H.H0H...H
4910 04 00 EC 54 EE 54 9A 48 3E 48 04 00 EC 54 EE 54 ...T.T.H>H...T.T
4920 9A 48 46 48 04 00 EC 54 EE 54 9C 48 4E 48 04 00 .HFH...T.T.HNH..
4930 EC 54 EE 54 9A 48 56 48 04 00 EC 54 EE 54 9A 48 .T.T.HVH...T.T.H
4940 5E 48 04 00 EC 54 EE 54 9C 48 66 48 04 00 EC 54 ^H...T.T.HfH...T
4950 F0 54 9C 48 6E 48 01 00 A8 48 01 00 D6 54 02 00 .T.HnH...H...T..
4960 CC 54 C6 54 01 00 F2 54 C9 4B 48 8A 01 00 06 55 .T.T...T.KH....U
4970 53 50 41 43 45 2E 44 41 54 00 53 50 41 43 45 2E SPACE.DAT.SPACE.
4980 44 41 54 00 08 08 A6 13 9E 0E 59 4F 55 52 20 53 DAT.......YOUR S
4990 43 4F 52 45 20 20 20 20 20 12 05 06 12 05 06 90 CORE     .......
49A0 1D 01 06 08 A6 13 9E 15 20 49 4E 56 41 44 45 52 ........ INVADER
49B0 53 20 53 55 50 45 52 20 4C 45 41 47 55 45 08 08 S SUPER LEAGUE..
49C0 A6 1D 9E 05 50 6C 61 79 65 72 A6 12 9E 04 53 63 ....Player....Sc
49D0 6F 72 65 06 12 05 A6 0E 90 1D 01 A6 04 12 05 06 ore.............
49E0 A6 1D 9E 14 2A 2A 20 57 48 41 54 20 55 54 54 45 ....** WHAT UTTE
49F0 52 20 43 52 41 50 20 2A 2A 06 A6 1D 9E 17 2A 2A R CRAP **.....**
4A00 20 49 20 64 6F 6E 27 74 20 62 65 6C 69 65 76 65  I don't believe
4A10 20 69 74 20 2A 2A 06 A6 1D 9E 14 2A 2A 20 20 20  it **.....**   
4A20 52 55 42 42 42 49 53 48 20 21 21 20 20 20 2A 2A RUBBBISH !!   **
4A30 06 A6 1D 9E 13 2A 2A 20 57 68 61 74 20 63 61 6E .....** What can
4A40 20 49 20 73 61 79 20 2A 2A 06 A6 1D 9E 19 2A 2A  I say **.....**
4A50 20 46 6F 75 72 20 66 69 67 75 72 65 73 20 6F 6E  Four figures on
4A60 65 20 64 61 79 20 2A 2A 06 A6 1D 9E 1B 2A 2A 20 e day **.....** 
4A70 50 61 73 74 20 74 68 65 20 6D 61 67 69 63 20 31 Past the magic 1
4A80 30 30 30 20 21 21 20 2A 2A 06 A6 1D 9E 14 2A 2A 000 !! **.....**
4A90 20 4D 75 73 74 20 74 72 79 20 68 61 72 64 65 72  Must try harder
4AA0 20 2A 2A 06 A6 1D 9E 21 2A 2A 20 57 65 6C 6C 20  **....!** Well 
4AB0 49 20 73 75 70 70 6F 73 65 20 79 6F 75 27 72 65 I suppose you're
4AC0 20 74 72 79 69 6E 67 20 2A 2A 06 A6 1D 9E 0C 2A  trying **.....*
4AD0 2A 20 43 6F 6D 65 20 6F 6E 20 2A 2A 06 A6 1D 9E * Come on **....
4AE0 11 2A 2A 20 41 6C 6D 6F 73 74 20 74 68 65 72 65 .** Almost there
4AF0 20 2A 2A 06 A6 1D 9E 14 2A 2A 20 57 4F 57 20 21  **.....** WOW !
4B00 20 6F 76 65 72 20 32 30 30 30 20 2A 2A 06 A6 1D  over 2000 **...
4B10 9E 15 2A 2A 20 41 72 65 20 79 6F 75 20 61 20 4E ..** Are you a N
4B20 6F 76 69 63 65 20 2A 2A 06 A6 1D 9E 13 2A 2A 20 ovice **.....** 
4B30 47 65 74 74 69 6E 67 20 42 65 74 74 65 72 20 2A Getting Better *
4B40 2A 06 A6 1D 9E 13 2A 2A 20 4B 65 65 70 20 6F 6E *.....** Keep on
4B50 20 74 72 79 69 6E 67 20 2A 2A 06 A6 1D 9E 1B 2A  trying **.....*
4B60 2A 20 33 30 30 30 20 4F 6E 65 20 6F 66 20 74 68 * 3000 One of th
4B70 65 73 65 20 44 61 79 73 20 2A 2A 06 A6 1D 9E 1B ese Days **.....
4B80 2A 2A 20 50 72 61 63 74 69 73 65 20 6D 61 6B 65 ** Practise make
4B90 73 20 70 65 72 66 65 63 74 20 2A 2A 06 A6 1D 9E s perfect **....
4BA0 16 2A 2A 20 4F 4B 20 6E 6F 77 20 69 6D 70 72 65 .** OK now impre
4BB0 73 73 20 6D 65 20 2A 2A 06 A6 1D 9E 19 2A 2A 20 ss me **.....** 
4BC0 59 6F 75 27 76 65 20 70 6C 61 79 65 64 20 62 65 You've played be
4BD0 66 6F 72 65 20 2A 2A 06 A6 1D 9E 14 2A 2A 20 49 fore **.....** I
4BE0 27 76 65 20 73 65 65 6E 20 77 6F 72 73 65 20 2A 've seen worse *
4BF0 2A 06 A6 1D 9E 0F 2A 2A 20 4B 65 65 70 20 69 74 *.....** Keep it
4C00 20 75 70 20 2A 2A 06 A6 1D 9E 17 2A 2A 20 48 75  up **.....** Hu
4C10 72 72 61 68 20 21 20 34 30 30 30 20 62 75 73 74 rrah ! 4000 bust
4C20 20 2A 2A 06 A6 1D 9E 0C 2A 2A 20 4E 6F 74 20 62  **.....** Not b
4C30 61 64 20 2A 2A 06 A6 1D 9E 13 2A 2A 20 4E 6F 74 ad **.....** Not
4C40 20 62 61 64 20 61 74 20 61 6C 6C 20 2A 2A 06 A6  bad at all **..
4C50 1D 9E 10 2A 2A 20 50 72 65 74 74 79 20 66 61 69 ...** Pretty fai
4C60 72 20 2A 2A 06 A6 1D 9E 0F 2A 2A 20 4F 68 20 2C r **.....** Oh ,
4C70 20 63 6C 6F 73 65 20 2A 2A 06 A6 1D 9E 19 2A 2A  close **.....**
4C80 20 49 27 6D 20 61 6C 6D 6F 73 74 20 69 6D 70 72  I'm almost impr
4C90 65 73 73 65 64 20 2A 2A 06 A6 1D 9E 10 2A 2A 20 essed **.....** 
4CA0 50 72 65 74 74 79 20 47 6F 6F 64 20 2A 2A 06 A6 Pretty Good **..
4CB0 1D 9E 11 2A 2A 20 4F 4B 20 49 20 6C 69 6B 65 20 ...** OK I like 
4CC0 69 74 20 2A 2A 06 A6 1D 9E 15 2A 2A 20 59 6F 75 it **.....** You
4CD0 27 76 65 20 67 6F 74 20 73 74 79 6C 65 20 2A 2A 've got style **
4CE0 06 A6 1D 9E 1C 2A 2A 20 43 6F 6D 65 20 6F 6E 20 .....** Come on 
4CF0 2C 20 79 6F 75 20 63 61 6E 20 64 6F 20 69 74 20 , you can do it 
4D00 2A 2A 06 A6 1D 9E 17 2A 2A 20 4F 4B 20 74 68 61 **.....** OK tha
4D10 74 20 77 61 73 6E 27 74 20 62 61 64 20 2A 2A 06 t wasn't bad **.
4D20 A6 1D 9E 17 43 6F 6E 67 72 61 74 75 6C 61 74 69 ....Congratulati
4D30 6F 6E 73 20 43 68 61 6D 70 20 21 21 06 0E 00 00 ons Champ !!....
4D40 0B 00 16 00 21 00 2C 00 37 00 42 00 4D 00 58 00 ....!.,.7.B.M.X.
4D50 63 00 6E 00 79 00 84 00 8F 00 9A 00 A5 00 B0 00 c.n.y...........
4D60 BB 00 C6 00 D1 00 DC 00 E7 00 F2 00 FD 00 08 01 ................
4D70 13 01 1E 01 29 01 34 01 3F 01 01 00 05 00 1E 00 ....).4.?.......
4D80 01 10 04 00 02 00 00 00 00 00 05 00 80 4D 82 4D .............M.M
4D90 70 49 84 4D 7A 4D 03 00 7A 4D 82 4D 86 4D 05 00 pI.MzM..zM.M.M..
4DA0 80 4D 82 4D 7A 49 84 4D 84 4D 84 3A D8 72 00 00 .M.MzI.M.M.:.r..
4DB0 B2 56 20 00 20 20 3C 3E 20 20 00 20 20 20 3E 3C .V .  <>  .   ><
4DC0 20 20 00 20 20 20 7D 7B 20 20 00 20 20 20 7B 7D   .   }{  .   {}
4DD0 20 20 00 20 20 20 3C 61 3E 20 20 00 20 20 3E 61   .   <a>  .  >a
4DE0 3C 20 20 00 20 00 A6 18 9E 1B 61 61 61 20 20 61 <  . .....aaa  a
4DF0 61 61 61 20 20 20 20 61 20 20 20 20 61 61 61 20 aaa    a    aaa 
4E00 20 61 61 61 61 61 08 A6 17 9E 18 61 20 20 20 20  aaaaa.....a    
4E10 20 61 20 20 20 61 20 20 61 20 61 20 20 61 20 20  a   a  a a  a  
4E20 20 61 20 61 08 A6 18 9E 1A 61 61 61 20 20 61 61  a a.....aaa  aa
4E30 61 61 20 20 61 61 61 61 61 20 61 20 20 20 20 20 aa  aaaaa a     
4E40 61 61 61 61 08 A6 1B 9E 14 61 20 61 20 20 20 20 aaaa.....a a    
4E50 20 61 20 20 20 61 20 61 20 20 20 61 20 61 08 A6  a   a a   a a..
4E60 18 9E 1B 61 61 61 20 20 61 20 20 20 20 20 61 20 ...aaa  a     a 
4E70 20 20 61 20 20 61 61 61 20 20 61 61 61 61 61 08   a  aaa  aaaaa.
4E80 08 A6 10 9E 2C 61 61 61 20 20 61 20 20 20 61 20 ....,aaa  a   a 
4E90 61 20 20 20 61 20 20 20 61 20 20 20 61 61 61 61 a   a   a   aaaa
4EA0 20 20 61 61 61 61 61 20 61 61 61 61 20 20 20 61   aaaaa aaaa   a
4EB0 61 61 08 A6 11 9E 28 61 20 20 20 61 61 20 20 61 aa....(a   aa  a
4EC0 20 61 20 20 20 61 20 20 61 20 61 20 20 61 20 20  a   a  a a  a  
4ED0 20 61 20 61 20 20 20 20 20 61 20 20 20 61 20 61  a a     a   a a
4EE0 08 A6 11 9E 2B 61 20 20 20 61 20 61 20 61 20 61 ....+a   a a a a
4EF0 20 20 20 61 20 61 61 61 61 61 20 61 20 20 20 61    a aaaaa a   a
4F00 20 61 61 61 61 20 20 61 61 61 61 20 20 20 61 61  aaaa  aaaa   aa
4F10 61 06 A6 11 9E 2C 61 20 20 20 61 20 20 61 61 20 a....,a   a  aa 
4F20 20 61 20 61 20 20 61 20 20 20 61 20 61 20 20 20  a a  a   a a   
4F30 61 20 61 20 20 20 20 20 61 20 61 20 20 20 20 20 a a     a a     
4F40 20 20 61 08 A6 10 9E 2C 61 61 61 20 20 61 20 20   a....,aaa  a  
4F50 20 61 20 20 20 61 20 20 20 61 20 20 20 61 20 61  a   a   a   a a
4F60 61 61 61 20 20 61 61 61 61 61 20 61 20 20 61 20 aaa  aaaaa a  a 
4F70 20 20 61 61 61 08 08 A6 45 9E 07 53 43 4F 52 45   aaa...E..SCORE
4F80 20 33 30 08 08 A6 45 9E 07 53 43 4F 52 45 20 32  30...E..SCORE 2
4F90 30 08 08 A6 45 9E 07 53 43 4F 52 45 20 31 30 06 0...E..SCORE 10.
4FA0 9E 19 20 57 68 61 74 27 73 20 79 6F 75 72 20 6E .. What's your n
4FB0 61 6D 65 20 74 68 65 6E 20 3A 2D 20 06 9E 42 20 ame then :- ..B 
4FC0 5A 20 2D 20 50 61 6E 69 63 20 42 75 74 74 6F 6E Z - Panic Button
4FD0 20 20 20 2F 20 20 20 53 70 61 63 65 20 42 61 72    /   Space Bar
4FE0 20 2D 20 46 69 72 65 20 20 20 2F 20 20 20 3C 20  - Fire   /   < 
4FF0 4C 65 66 74 20 20 20 2F 20 20 20 3E 20 52 69 67 Left   /   > Rig
5000 68 74 06 0E 01 00 05 00 06 00 07 00 1E 00 00 00 ht..............
5010 16 00 14 00 03 00 0A 00 08 00 2F 00 00 00 01 00 ........../.....
5020 04 50 02 00 0E 50 10 50 01 00 0E 50 02 00 12 50 .P...P.P...P...P
5030 14 50 02 00 06 50 04 50 04 00 C0 56 16 50 08 50 .P...P.P...V.P.P
5040 B4 4D 04 00 C0 56 16 50 08 50 BC 4D 04 00 C0 56 .M...V.P.P.M...V
5050 18 50 08 50 C4 4D 04 00 C0 56 18 50 08 50 CC 4D .P.P.M...V.P.P.M
5060 04 00 C0 56 08 50 0A 50 D4 4D 04 00 C0 56 08 50 ...V.P.P.M...V.P
5070 0A 50 DC 4D 04 00 1A 50 14 50 0C 50 98 58 F6 12 .P.M...P.P.P.X..
5080 E6 59 01 00 C4 56 3D 00 3D 2F 61 5C 3D 00 01 00 .Y...V=.=/a\=...
5090 05 00 10 00 00 00 04 00 94 50 94 50 92 50 C6 56 .........P.P.P.V
50A0 01 00 8E 50 04 00 DA 56 94 50 90 50 88 50 01 00 ...P...V.P.P.P..
50B0 94 50 BB 0C 40 1F 00 00 DE 56 20 00 2C 00 3C 00 .P..@....V .,.<.
50C0 2E 00 3E 00 41 00 61 00 5A 00 7A 00 20 00 7C 00 ..>.A.a.Z.z. .|.
50D0 20 00 20 2F 61 5C 20 00 00 00 0A 00 00 00 05 00  . /a\ .........
50E0 0A 00 0F 00 14 00 19 00 1E 00 23 00 28 00 2D 00 ..........#.(.-.
50F0 00 00 32 00 01 00 05 00 00 00 00 00 01 00 F8 50 ..2............P
5100 01 00 F4 50 04 00 BE 58 F0 56 F4 50 CC 50 04 00 ...P...X.V.P.P..
5110 BE 58 F2 56 F4 50 CE 50 04 00 BE 58 C0 58 F4 50 .X.V.P.P...X.X.P
5120 D0 50 04 00 F4 56 F4 50 F6 50 D2 50 34 46 00 4B .P...V.P.P.P4F.K
5130 01 00 FE 56 20 00 12 05 06 0E 00 00 0A 00 00 00 ...V ...........
5140 05 00 0A 00 0F 00 14 00 19 00 1E 00 23 00 28 00 ............#.(.
5150 2D 00 00 00 32 00 01 00 05 00 47 00 17 00 02 00 -...2.....G.....
5160 BE 58 16 57 02 00 12 57 14 57 04 00 BE 58 18 57 .X.W...W.W...X.W
5170 56 51 34 51 04 00 5A 51 5C 51 58 51 00 57 E5 0E VQ4Q..ZQ\QXQ.W..
5180 80 0C 02 00 1E 57 20 00 66 00 00 00 0A 00 00 00 .....W .f.......
5190 05 00 0A 00 0F 00 14 00 19 00 1E 00 23 00 28 00 ............#.(.
51A0 2D 00 00 00 32 00 01 00 00 00 66 40 66 66 02 00 -...2.....f@ff..
51B0 B6 58 B8 58 01 00 4A 57 04 00 3A 57 3C 57 A6 51 .X.X..JW..:W<W.Q
51C0 86 51 01 00 A6 51 04 00 3A 57 3C 57 A6 51 88 51 .Q...Q..:W<W.Q.Q
51D0 01 00 A8 51 02 00 3A 57 3C 57 00 00 C9 19 00 19 ...Q..:W<W......
51E0 00 00 5A 57 20 00 20 00 20 00 20 00 20 00 2A 00 ..ZW . . . . .*.
51F0 2A 00 2A 00 2A 00 2A 00 1E 24 10 01 06 0E 00 00 *.*.*.*..$......
5200 05 00 0A 00 0F 00 01 00 05 00 04 00 66 57 64 57 ............fWdW
5210 06 52 E4 51 04 00 BA 58 68 57 06 52 E6 51 04 00 .R.Q...XhW.R.Q..
5220 6C 57 6A 57 06 52 E8 51 04 00 6E 57 06 52 06 52 lWjW.R.Q..nW.R.R
5230 EA 51 04 00 70 57 06 52 06 52 EC 51 04 00 74 57 .Q..pW.R.R.Q..tW
5240 72 57 06 52 EE 51 04 00 BA 58 76 57 06 52 F0 51 rW.R.Q...XvW.R.Q
5250 04 00 7A 57 78 57 06 52 F2 51 04 00 7C 57 06 52 ..zWxW.R.Q..|W.R
5260 06 52 F4 51 04 00 7E 57 06 52 06 52 F6 51 3B 55 .R.Q..~W.R.R.Q;U
5270 DA 7D 00 00 84 57 20 3C 58 3E 20 00 20 20 20 20 .}...W <X> .    
5280 20 00 20 20 20 20 20 00 20 20 20 20 20 00 12 05  .     .     ...
5290 06 0E 05 00 7D 40 A4 70 7E 40 52 B8 02 00 B6 58 ....}@.p~@R....X
52A0 B8 58 01 00 94 57 04 00 9E 57 98 57 92 52 76 52 .X...W...W.W.RvR
52B0 04 00 A0 57 98 57 92 52 7C 52 02 00 A2 57 98 57 ...W.W.R|R...W.W
52C0 01 00 A4 57 04 00 90 57 98 57 92 52 84 57 04 00 ...W...W.W.R.W..
52D0 90 57 98 57 92 52 82 52 04 00 A8 57 98 57 92 52 .W.W.R.R...W.W.R
52E0 88 52 0C 78 DA 7D 00 00 AC 57 00 00 05 00 0A 00 .R.x.}...W......
52F0 0F 00 01 00 00 00 02 00 01 00 F2 52 04 00 BA 57 ...........R...W
5300 F6 52 F2 52 B0 57 01 00 F4 52 10 23 5C 4D 02 00 .R.R.W...R.#\M..
5310 C0 57 20 20 2A 20 20 00 20 20 20 20 20 00 00 00 .W  *  .     ...
5320 05 00 0A 00 0F 00 01 00 05 00 02 00 26 53 C6 57 ............&S.W
5330 A5 14 10 09 00 00 D4 57 48 00 4A 00 04 00 02 00 .......WH.J.....
5340 3C 53 D4 57 6B 66 6E 3B 02 00 D8 57 04 00 02 00 <S.Wkfn;...W....
5350 4C 53 DC 57 91 2E 49 65 01 00 E4 57 46 00 47 00 LS.W..Ie...WF.G.
5360 02 00 02 00 60 53 E6 57 B6 70 E0 79 00 00 E8 57 ....`S.W.p.y...W
5370 92 01 01 06 02 00 01 00 E8 57 6B 66 40 60 04 00 .........Wkf@`..
5380 08 58 24 00 90 04 01 10 01 06 90 04 01 90 04 01 .X$.............
5390 06 90 04 01 90 05 01 06 90 04 01 90 06 01 06 90 ................
53A0 04 01 90 1D 01 06 01 00 05 00 06 00 07 00 1E 00 ................
53B0 40 60 00 00 02 00 64 58 1E 24 10 01 06 0A 05 00 @`....dX.$......
53C0 C3 8C 00 C8 00 00 6E 58 5B 00 3F 00 32 00 6C 00 ......nX[.?.2.l.
53D0 05 00 02 00 D0 53 6E 58 BF 8C 30 C0 00 00 74 58 .....SnX..0...tX
53E0 3C 00 02 00 02 00 E2 53 74 58 88 00 00 00 06 00 <......StX......
53F0 EC 11 58 08 7A 08 6E 09 00 09 FE 11 92 09 48 09 ..X.z.n.......H.
5400 B6 09 EE 09 FE 09 0E 0A 48 0A 88 08 1A 0A EA 08 ........H.......
5410 54 0A 2E 08 EC 11 8C 0A FE 11 76 0A FF 9F 02 00 T.........v.....
5420 00 00 4C 54 2C 54 00 00 00 00 00 00 00 00 00 00 ..LT,T..........
5430 00 00 00 00 00 00 00 00 00 00 00 00 00 00 00 00 ................
; ...

;; fn5A90: 5A90
fn5A90 proc
	tst	(r5)+
	clr	r0
	mov	@#0024,r1
	bis	#5040,@#0024
	emt	#E0
	rts	pc
5AA2       00 00 00 00 00 00 00 00 00 00 00 00 00 00   ..............
5AB0 00 00 00 00 00 00 00 00 00 00 00 00 00 00 00 00 ................
; ...
5C00 1A                                              .              
