00400000 00 00 00 00 00 00 00 00 00 00 00 00 00 00 00 00 ................
00400010 00 00 00 00 00 00 00 00 00 00 00 00 00 00 00 00 ................
00400020 00 00 00 00 00 00 00 00 00 00 00 00 00 00 00 00 ................
00400030 00 00 00 00 00 00 00 00 00 00 00 00 00 00 00 00 ................
00400040 00 00 00 00 00 00 00 00 00 00 00 00 00 00 00 00 ................
00400050 00 00 00 00 00 00 00 00 00 00 00 00 00 00 00 00 ................
00400060 00 00 00 00 00 00 00 00 00 00 00 00 00 00 00 00 ................
00400070 00 00 00 00 00 00 00 00 00 00 00 00 00 00 00 00 ................
00400080 00 00 00 00 00 00 00 00 00 00 00 00 00 00 00 00 ................
00400090 00 00 00 00 00 00 00 00 00 00 00 00 00 00 00 00 ................
004000A0 00 00 00 00 00 00 00 00 00 00 00 00 00 00 00 00 ................
004000B0 00 00 00 00 00 00 00 00 00 00 00 00 00 00 00 00 ................
004000C0 00 00 00 00 00 00 00 00 00 00 00 00 00 00 00 00 ................
004000D0 00 00 00 00 00 00 00 00 00 00 00 00 00 00 00 00 ................
004000E0 00 00 00 00 00 00 00 00 00 00 00 00 00 00 00 00 ................
004000F0 00 00 00 00 00 00 00 00 00 00 00 00 00 00 00 00 ................
00400100 00 00 00 00 00 00 00 00 00 00 00 00 00 00 00 00 ................
00400110 00 00 00 00 00 00 00 00 00 00 00 00 00 00 00 00 ................
00400120 00 00 00 00 00 00 00 00 00 00 00 00 00 00 00 00 ................
00400130 00 00 00 00 00 00 00 00 00 00 00 00 00 00 00 00 ................
00400140 00 00 00 00 00 00 00 00 00 00 00 00 00 00 00 00 ................
00400150 00 00 00 00 00 00 00 00 00 00 00 00 00 00 00 00 ................
00400160 00 00 00 00 00 00 00 00 00 00 00 00 00 00 00 00 ................
00400170 00 00 00 00 00 00 00 00 00 00 00 00 00 00 00 00 ................
00400180 00 00 00 00 00 00 00 00 00 00 00 00 00 00 00 00 ................
00400190 00 00 00 00 00 00 00 00 00 00 00 00 00 00 00 00 ................
004001A0 00 00 00 00 00 00 00 00 00 00 00 00 00 00 00 00 ................
004001B0 00 00 00 00 00 00 00 00 00 00 00 00 00 00 00 00 ................
004001C0 00 00 00 00 00 00 00 00 00 00 00 00 00 00 00 00 ................
004001D0 00 00 00 00 00 00 00 00 00 00 00 00 00 00 00 00 ................
004001E0 00 00 00 00 00 00 00 00 00 00 00 00 00 00 00 00 ................
004001F0 00 00 00 00 00 00 00 00 00 00 00 00 00 00 00 00 ................
00400200 00 00 00 00 00 00 00 00 00 00 00 00 00 00 00 00 ................
00400210 00 00 00 00 00 00 00 00 00 00 00 00 00 00 00 00 ................
00400220 00 00 00 00 00 00 00 00 00 00 00 00 00 00 00 00 ................
00400230 00 00 00 00 00 00 00 00 00 00 00 00 00 00 00 00 ................
00400240 00 00 00 00 00 00 00 00 00 00 00 00 00 00 00 00 ................
00400250 00 00 00 00 00 00 00 00 00 00 00 00 00 00 00 00 ................
00400260 00 00 00 00 00 00 00 00 00 00 00 00 00 00 00 00 ................
00400270 00 00 00 00 00 00 00 00 00 00 00 00 00 00 00 00 ................
00400280 00 00 00 00 00 00 00 00 00 00 00 00 00 00 00 00 ................
00400290 00 00 00 00 00 00 00 00 00 00 00 00 00 00 00 00 ................
004002A0 00 00 00 00 00 00 00 00 00 00 00 00 00 00 00 00 ................
004002B0 00 00 00 00 00 00 00 00 00 00 00 00 00 00 00 00 ................
004002C0 00 00 00 00 00 00 00 00 00 00 00 00 00 00 00 00 ................
004002D0 00 00 00 00 00 00 00 00 00 00 00 00 00 00 00 00 ................
004002E0 00 00 00 00 00 00 00 00 00 00 00 00 00 00 00 00 ................
004002F0 00 00 00 00 00 00 00 00 00 00 00 00 00 00 00 00 ................
00400300 00 00 00 00 00 00 00 00 00 00 00 00 00 00 00 00 ................
00400310 00 00 00 00 00 00 00 00 00 00 00 00 00 00 00 00 ................
00400320 00 00 00 00 00 00 00 00 00 00 00 00 00 00 00 00 ................
00400330 00 00 00 00 00 00 00 00 00 00 00 00 00 00 00 00 ................
00400340 00 00 00 00 00 00 00 00 00 00 00 00 00 00 00 00 ................
00400350 00 00 00 00 00 00 00 00 00 00 00 00 00 00 00 00 ................
00400360 00 00 00 00 00 00 00 00 00 00 00 00 00 00 00 00 ................
00400370 00 00 00 00 00 00 00 00 00 00 00 00 00 00 00 00 ................
00400380 00 00 00 00 00 00 00 00 00 00 00 00 00 00 00 00 ................
00400390 00 00 00 00 00 00 00 00 00 00 00 00 00 00 00 00 ................
004003A0 00 00 00 00 00 00 00 00 00 00 00 00 00 00 00 00 ................
004003B0 00 00 00 00 00 00 00 00 00 00 00 00 00 00 00 00 ................
004003C0 00 00 00 00 00 00 00 00 00 00 00 00 00 00 00 00 ................
004003D0 00 00 00 00 00 00 00 00 00 00 00 00 00 00 00 00 ................
004003E0 00 00 00 00 00 00 00 00 00 00 00 00 00 00 00 00 ................
004003F0 00 00 00 00 00 00 00 00 00 00 00 00 00 00 00 00 ................
00400400 00 00 00 00 00 00 00 00 00 00 00 00 00 00 00 00 ................
00400410 00 00 00 00 00 00 00 00 00 00 00 00 00 00 00 00 ................
00400420 00 00 00 00 00 00 00 00 00 00 00 00 00 00 00 00 ................
00400430 00 00 00 00 00 00 00 00 00 00 00 00 00 00 00 00 ................
00400440 00 00 00 00 00 00 00 00 00 00 00 00 00 00 00 00 ................
00400450 00 00 00 00 00 00 00 00 00 00 00 00 00 00 00 00 ................
00400460 00 00 00 00 00 00 00 00 00 00 00 00 00 00 00 00 ................
00400470 00 00 00 00 00 00 00 00 00 00 00 00 00 00 00 00 ................
00400480 00 00 00 00 00 00 00 00 00 00 00 00 00 00 00 00 ................
00400490 00 00 00 00 00 00 00 00 00 00 00 00 00 00 00 00 ................
004004A0 00 00 00 00 00 00 00 00 00 00 00 00 00 00 00 00 ................
004004B0 00 00 00 00 00 00 00 00 00 00 00 00 00 00 00 00 ................
004004C0 00 00 00 00 00 00 00 00 00 00 00 00 00 00 00 00 ................
004004D0 00 00 00 00 00 00 00 00 00 00 00 00 00 00 00 00 ................
004004E0 00 00 00 00 00 00 00 00 00 00 00 00 00 00 00 00 ................
004004F0 00 00 00 00 00 00 00 00 00 00 00 00 00 00 00 00 ................
00400500 00 00 00 00 00 00 00 00 00 00 00 00 00 00 00 00 ................
00400510 00 00 00 00 00 00 00 00 00 00 00 00 00 00 00 00 ................
00400520 00 00 00 00 00 00 00 00 00 00 00 00 00 00 00 00 ................
00400530 00 00 00 00 00 00 00 00 00 00 00 00 00 00 00 00 ................
00400540 00 00 00 00 00 00 00 00 00 00 00 00 00 00 00 00 ................
00400550 00 00 00 00 00 00 00 00 00 00 00 00 00 00 00 00 ................
00400560 00 00 00 00 00 00 00 00 00 00 00 00 00 00 00 00 ................
00400570 00 00 00 00 00 00 00 00 00 00 00 00 00 00 00 00 ................
00400580 00 00 00 00 00 00 00 00 00 00 00 00 00 00 00 00 ................
00400590 00 00 00 00 00 00 00 00 00 00 00 00 00 00 00 00 ................
004005A0 00 00 00 00 00 00 00 00 00 00 00 00 00 00 00 00 ................
004005B0 00 00 00 00 00 00 00 00 00 00 00 00 00 00 00 00 ................
004005C0 00 00 00 00 00 00 00 00 00 00 00 00 00 00 00 00 ................
004005D0 00 00 00 00 00 00 00 00 00 00 00 00 00 00 00 00 ................
004005E0 00 00 00 00 00 00 00 00 00 00 00 00 00 00 00 00 ................
004005F0 00 00 00 00 00 00 00 00 00 00 00 00 00 00 00 00 ................
00400600 00 00 00 00 00 00 00 00 00 00 00 00 00 00 00 00 ................
00400610 00 00 00 00 00 00 00 00 00 00 00 00 00 00 00 00 ................
00400620 00 00 00 00 00 00 00 00 00 00 00 00 00 00 00 00 ................
00400630 00 00 00 00 00 00 00 00 00 00 00 00 00 00 00 00 ................
00400640 00 00 00 00 00 00 00 00 00 00 00 00 00 00 00 00 ................
00400650 00 00 00 00 00 00 00 00 00 00 00 00 00 00 00 00 ................
00400660 00 00 00 00 00 00 00 00 00 00 00 00 00 00 00 00 ................
00400670 00 00 00 00 00 00 00 00 00 00 00 00 00 00 00 00 ................
00400680 00 00 00 00 00 00 00 00 00 00 00 00 00 00 00 00 ................
00400690 00 00 00 00 00 00 00 00 00 00 00 00 00 00 00 00 ................
004006A0 00 00 00 00 00 00 00 00 00 00 00 00 00 00 00 00 ................
004006B0 00 00 00 00 00 00 00 00 00 00 00 00 00 00 00 00 ................
004006C0 00 00 00 00 00 00 00 00 00 00 00 00 00 00 00 00 ................
004006D0 00 00 00 00 00 00 00 00 00 00 00 00 00 00 00 00 ................
004006E0 00 00 00 00 00 00 00 00 00 00 00 00 00 00 00 00 ................
004006F0 00 00 00 00 00 00 00 00 00 00 00 00 00 00 00 00 ................
00400700 00 00 00 00 00 00 00 00 00 00 00 00 00 00 00 00 ................
00400710 00 00 00 00 00 00 00 00 00 00 00 00 00 00 00 00 ................
00400720 00 00 00 00 00 00 00 00 00 00 00 00 00 00 00 00 ................
00400730 00 00 00 00 00 00 00 00 00 00 00 00 00 00 00 00 ................
00400740 00 00 00 00 00 00 00 00 00 00 00 00 00 00 00 00 ................
00400750 00 00 00 00 00 00 00 00 00 00 00 00 00 00 00 00 ................
00400760 00 00 00 00 00 00 00 00 00 00 00 00 00 00 00 00 ................
00400770 00 00 00 00 00 00 00 00 00 00 00 00 00 00 00 00 ................
00400780 00 00 00 00 00 00 00 00 00 00 00 00 00 00 00 00 ................
00400790 00 00 00 00 00 00 00 00 00 00 00 00 00 00 00 00 ................
004007A0 00 00 00 00 00 00 00 00 00 00 00 00 00 00 00 00 ................
004007B0 00 00 00 00 00 00 00 00 00 00 00 00 00 00 00 00 ................
004007C0 00 00 00 00 00 00 00 00 00 00 00 00 00 00 00 00 ................
004007D0 00 00 00 00 00 00 00 00 00 00 00 00 00 00 00 00 ................
004007E0 00 00 00 00 00 00 00 00 00 00 00 00 00 00 00 00 ................
004007F0 00 00 00 00 00 00 00 00 00 00 00 00 00 00 00 00 ................
00400800 00 00 00 00 00 00 00 00 00 00 00 00 00 00 00 00 ................
00400810 00 00 00 00 00 00 00 00 00 00 00 00 00 00 00 00 ................
00400820 00 00 00 00 00 00 00 00 00 00 00 00 00 00 00 00 ................
00400830 00 00 00 00 00 00 00 00 00 00 00 00 00 00 00 00 ................
00400840 00 00 00 00 00 00 00 00 00 00 00 00 00 00 00 00 ................
00400850 00 00 00 00 00 00 00 00 00 00 00 00 00 00 00 00 ................
00400860 00 00 00 00 00 00 00 00 00 00 00 00 00 00 00 00 ................
00400870 00 00 00 00 00 00 00 00 00 00 00 00 00 00 00 00 ................
00400880 00 00 00 00 00 00 00 00 00 00 00 00 00 00 00 00 ................
00400890 00 00 00 00 00 00 00 00 00 00 00 00 00 00 00 00 ................
004008A0 00 00 00 00 00 00 00 00 00 00 00 00 00 00 00 00 ................
004008B0 00 00 00 00 00 00 00 00 00 00 00 00 00 00 00 00 ................
004008C0 00 00 00 00 00 00 00 00 00 00 00 00 00 00 00 00 ................
004008D0 00 00 00 00 00 00 00 00 00 00 00 00 00 00 00 00 ................
004008E0 00 00 00 00 00 00 00 00 00 00 00 00 00 00 00 00 ................
004008F0 00 00 00 00 00 00 00 00 00 00 00 00 00 00 00 00 ................
00400900 00 00 00 00 00 00 00 00 00 00 00 00 00 00 00 00 ................
00400910 00 00 00 00 00 00 00 00 00 00 00 00 00 00 00 00 ................
00400920 00 00 00 00 00 00 00 00 00 00 00 00 00 00 00 00 ................
00400930 00 00 00 00 00 00 00 00 00 00 00 00 00 00 00 00 ................
00400940 00 00 00 00 00 00 00 00 00 00 00 00 00 00 00 00 ................
00400950 00 00 00 00 00 00 00 00 00 00 00 00 00 00 00 00 ................
00400960 00 00 00 00 00 00 00 00 00 00 00 00 00 00 00 00 ................
00400970 00 00 00 00 00 00 00 00 00 00 00 00 00 00 00 00 ................
00400980 00 00 00 00 00 00 00 00 00 00 00 00 00 00 00 00 ................
00400990 00 00 00 00 00 00 00 00 00 00 00 00 00 00 00 00 ................
004009A0 00 00 00 00 00 00 00 00 00 00 00 00 00 00 00 00 ................
004009B0 00 00 00 00 00 00 00 00 00 00 00 00 00 00 00 00 ................
004009C0 00 00 00 00 00 00 00 00 00 00 00 00 00 00 00 00 ................
004009D0 00 00 00 00 00 00 00 00 00 00 00 00 00 00 00 00 ................
004009E0 00 00 00 00 00 00 00 00 00 00 00 00 00 00 00 00 ................
004009F0 00 00 00 00 00 00 00 00 00 00 00 00 00 00 00 00 ................
00400A00 00 00 00 00 00 00 00 00 00 00 00 00 00 00 00 00 ................
00400A10 00 00 00 00 00 00 00 00 00 00 00 00 00 00 00 00 ................
00400A20 00 00 00 00 00 00 00 00 00 00 00 00 00 00 00 00 ................
00400A30 00 00 00 00 00 00 00 00 00 00 00 00 00 00 00 00 ................
00400A40 00 00 00 00 00 00 00 00 00 00 00 00 00 00 00 00 ................
00400A50 00 00 00 00 00 00 00 00 00 00 00 00 00 00 00 00 ................
00400A60 00 00 00 00 00 00 00 00 00 00 00 00 00 00 00 00 ................
00400A70 00 00 00 00 00 00 00 00 00 00 00 00 00 00 00 00 ................
00400A80 00 00 00 00 00 00 00 00 00 00 00 00 00 00 00 00 ................
00400A90 00 00 00 00 00 00 00 00 00 00 00 00 00 00 00 00 ................
00400AA0 00 00 00 00 00 00 00 00 00 00 00 00 00 00 00 00 ................
00400AB0 00 00 00 00 00 00 00 00 00 00 00 00 00 00 00 00 ................
00400AC0 00 00 00 00 00 00 00 00 00 00 00 00 00 00 00 00 ................
00400AD0 00 00 00 00 00 00 00 00 00 00 00 00 00 00 00 00 ................
00400AE0 00 00 00 00 00 00 00 00 00 00 00 00 00 00 00 00 ................
00400AF0 00 00 00 00 00 00 00 00 00 00 00 00 00 00 00 00 ................
00400B00 00 00 00 00 00 00 00 00 00 00 00 00 00 00 00 00 ................
00400B10 00 00 00 00 00 00 00 00 00 00 00 00 00 00 00 00 ................
00400B20 00 00 00 00 00 00 00 00 00 00 00 00 00 00 00 00 ................
00400B30 00 00 00 00 00 00 00 00 00 00 00 00 00 00 00 00 ................
00400B40 00 00 00 00 00 00 00 00 00 00 00 00 00 00 00 00 ................
00400B50 00 00 00 00 00 00 00 00 00 00 00 00 00 00 00 00 ................
00400B60 00 00 00 00 00 00 00 00 00 00 00 00 00 00 00 00 ................
00400B70 00 00 00 00 00 00 00 00 00 00 00 00 00 00 00 00 ................
00400B80 00 00 00 00 00 00 00 00 00 00 00 00 00 00 00 00 ................
00400B90 00 00 00 00 00 00 00 00 00 00 00 00 00 00 00 00 ................
00400BA0 00 00 00 00 00 00 00 00 00 00 00 00 00 00 00 00 ................
00400BB0 00 00 00 00 00 00 00 00 00 00 00 00 00 00 00 00 ................
00400BC0 00 00 00 00 00 00 00 00 00 00 00 00 00 00 00 00 ................
00400BD0 00 00 00 00 00 00 00 00 00 00 00 00 00 00 00 00 ................
00400BE0 00 00 00 00 00 00 00 00 00 00 00 00 00 00 00 00 ................
00400BF0 00 00 00 00 00 00 00 00 00 00 00 00 00 00 00 00 ................
00400C00 00 00 00 00 00 00 00 00 00 00 00 00 00 00 00 00 ................
00400C10 00 00 00 00 00 00 00 00 00 00 00 00 00 00 00 00 ................
00400C20 00 00 00 00 00 00 00 00 00 00 00 00 00 00 00 00 ................
00400C30 00 00 00 00 00 00 00 00 00 00 00 00 00 00 00 00 ................
00400C40 00 00 00 00 00 00 00 00 00 00 00 00 00 00 00 00 ................
00400C50 00 00 00 00 00 00 00 00 00 00 00 00 00 00 00 00 ................
00400C60 00 00 00 00 00 00 00 00 00 00 00 00 00 00 00 00 ................
00400C70 00 00 00 00 00 00 00 00 00 00 00 00 00 00 00 00 ................
00400C80 00 00 00 00 00 00 00 00 00 00 00 00 00 00 00 00 ................
00400C90 00 00 00 00 00 00 00 00 00 00 00 00 00 00 00 00 ................
00400CA0 00 00 00 00 00 00 00 00 00 00 00 00 00 00 00 00 ................
00400CB0 00 00 00 00 00 00 00 00 00 00 00 00 00 00 00 00 ................
00400CC0 00 00 00 00 00 00 00 00 00 00 00 00 00 00 00 00 ................
00400CD0 00 00 00 00 00 00 00 00 00 00 00 00 00 00 00 00 ................
00400CE0 00 00 00 00 00 00 00 00 00 00 00 00 00 00 00 00 ................
00400CF0 00 00 00 00 00 00 00 00 00 00 00 00 00 00 00 00 ................
00400D00 00 00 00 00 00 00 00 00 00 00 00 00 00 00 00 00 ................
00400D10 00 00 00 00 00 00 00 00 00 00 00 00 00 00 00 00 ................
00400D20 00 00 00 00 00 00 00 00 00 00 00 00 00 00 00 00 ................
00400D30 00 00 00 00 00 00 00 00 00 00 00 00 00 00 00 00 ................
00400D40 00 00 00 00 00 00 00 00 00 00 00 00 00 00 00 00 ................
00400D50 00 00 00 00 00 00 00 00 00 00 00 00 00 00 00 00 ................
00400D60 00 00 00 00 00 00 00 00 00 00 00 00 00 00 00 00 ................
00400D70 00 00 00 00 00 00 00 00 00 00 00 00 00 00 00 00 ................
00400D80 00 00 00 00 00 00 00 00 00 00 00 00 00 00 00 00 ................
00400D90 00 00 00 00 00 00 00 00 00 00 00 00 00 00 00 00 ................
00400DA0 00 00 00 00 00 00 00 00 00 00 00 00 00 00 00 00 ................
00400DB0 00 00 00 00 00 00 00 00 00 00 00 00 00 00 00 00 ................
00400DC0 00 00 00 00 00 00 00 00 00 00 00 00 00 00 00 00 ................
00400DD0 00 00 00 00 00 00 00 00 00 00 00 00 00 00 00 00 ................
00400DE0 00 00 00 00 00 00 00 00 00 00 00 00 00 00 00 00 ................
00400DF0 00 00 00 00 00 00 00 00 00 00 00 00 00 00 00 00 ................
00400E00 00 00 00 00 00 00 00 00 00 00 00 00 00 00 00 00 ................
00400E10 00 00 00 00 00 00 00 00 00 00 00 00 00 00 00 00 ................
00400E20 00 00 00 00 00 00 00 00 00 00 00 00 00 00 00 00 ................
00400E30 00 00 00 00 00 00 00 00 00 00 00 00 00 00 00 00 ................
00400E40 00 00 00 00 00 00 00 00 00 00 00 00 00 00 00 00 ................
00400E50 00 00 00 00 00 00 00 00 00 00 00 00 00 00 00 00 ................
00400E60 00 00 00 00 00 00 00 00 00 00 00 00 00 00 00 00 ................
00400E70 00 00 00 00 00 00 00 00 00 00 00 00 00 00 00 00 ................
00400E80 00 00 00 00 00 00 00 00 00 00 00 00 00 00 00 00 ................
00400E90 00 00 00 00 00 00 00 00 00 00 00 00 00 00 00 00 ................
00400EA0 00 00 00 00 00 00 00 00 00 00 00 00 00 00 00 00 ................
00400EB0 00 00 00 00 00 00 00 00 00 00 00 00 00 00 00 00 ................
00400EC0 00 00 00 00 00 00 00 00 00 00 00 00 00 00 00 00 ................
00400ED0 00 00 00 00 00 00 00 00 00 00 00 00 00 00 00 00 ................
00400EE0 00 00 00 00 00 00 00 00 00 00 00 00 00 00 00 00 ................
00400EF0 00 00 00 00 00 00 00 00 00 00 00 00 00 00 00 00 ................
00400F00 00 00 00 00 00 00 00 00 00 00 00 00 00 00 00 00 ................
00400F10 00 00 00 00 00 00 00 00 00 00 00 00 00 00 00 00 ................
00400F20 00 00 00 00 00 00 00 00 00 00 00 00 00 00 00 00 ................
00400F30 00 00 00 00 00 00 00 00 00 00 00 00 00 00 00 00 ................
00400F40 00 00 00 00 00 00 00 00 00 00 00 00 00 00 00 00 ................
00400F50 00 00 00 00 00 00 00 00 00 00 00 00 00 00 00 00 ................
00400F60 00 00 00 00 00 00 00 00 00 00 00 00 00 00 00 00 ................
00400F70 00 00 00 00 00 00 00 00 00 00 00 00 00 00 00 00 ................
00400F80 00 00 00 00 00 00 00 00 00 00 00 00 00 00 00 00 ................
00400F90 00 00 00 00 00 00 00 00 00 00 00 00 00 00 00 00 ................
00400FA0 00 00 00 00 00 00 00 00 00 00 00 00 00 00 00 00 ................
00400FB0 00 00 00 00 00 00 00 00 00 00 00 00 00 00 00 00 ................
00400FC0 00 00 00 00 00 00 00 00 00 00 00 00 00 00 00 00 ................
00400FD0 00 00 00 00 00 00 00 00 00 00 00 00 00 00 00 00 ................
00400FE0 00 00 00 00 00 00 00 00 00 00 00 00 00 00 00 00 ................
00400FF0 00 00 00 00 00 00 00 00 00 00 00 00 00 00 00 00 ................
00401000 00 00 00 00 00 00 00 00 00 00 00 00             ............   

fn0040100C()
	movw	ip,#&2121
	movt	ip,#&40
	bx	ip
00401016                   00 00 00 00 00 00 00 00 00 00       ..........
00401020 00 00 00 00 81 B0 4A F2 20 0C C0 F2 40 0C DC F8 ......J. ...@...
00401030 00 C0 AD EB 0C 0C CD F8 00 C0 70 47 4A F2 20 0C ..........pGJ. .
00401040 C0 F2 40 0C 00 9B DC F8 00 C0 AD EB 03 03 63 45 ..@...........cE
00401050 01 D1 01 B0 70 47 18 46 10 B5 6C 46 EC 46 2C F0 ....pG.F..lF.F,.
00401060 07 0C E5 46 00 F0 10 F8 A5 46 BD E8 10 40 70 47 ...F.....F...@pG
00401070 00 00 00 00 00 00 00 00 00 00 00 00 00 00 00 00 ................
00401080 00 00 00 00 00 00 00 00 DF F8 0C C0 DC F8 00 C0 ................
00401090 60 45 03 D1 70 47 00 00 20 A0 40 00 08 B5 82 B0 `E..pG.. .@.....
004010A0 DF F8 1C C0 DC F8 00 C0 CD F8 04 C0 DF F8 14 C0 ................
004010B0 DC F8 00 C0 CD F8 00 C0 02 F0 A0 FE FE DE 00 00 ................
004010C0 24 A0 40 00 20 A0 40 00 00 00 00 00 00 00 00 00 $.@. .@.........
004010D0 00 00 00 00 00 00 00 00 00 00 00 00 00 00 00 00 ................
004010E0 00 00 00 00 00 00 00 00 00 00 00 00 00 00 00 00 ................
004010F0 00 00 00 00 00 00 00 00 00 00 00 00 00 00 00 00 ................
00401100 00 00 00 00 00 00 00 00 00 00 00 00 00 00 00 00 ................
00401110 00 00 00 00 00 00 00 00 00 00 00 00 00 00 00 00 ................
00401120 00 00 00 00 00 00 00 00 00 00 00 00 00 00 00 00 ................
00401130 00 00 00 00 00 00 00 00 00 00 00 00 00 00 00 00 ................
00401140 00 00 00 00 00 00 00 00 00 00 00 00 00 00 00 00 ................
00401150 00 00 00 00 00 00 00 00 00 00 00 00 00 00 00 00 ................
00401160 00 00 00 00 00 00 00 00 00 00 00 00 00 00 00 00 ................
00401170 00 00 00 00 00 00 00 00 00 00 00 00 00 00 00 00 ................
00401180 00 00 00 00 00 00 00 00 00 00 00 00 00 00 00 00 ................
00401190 00 00 00 00 00 00 00 00 00 00 00 00 00 00 00 00 ................
004011A0 00 00 00 00 00 00 00 00 00 00 00 00 00 00 00 00 ................
004011B0 00 00 00 00 00 00 00 00 00 00 00 00 00 00 00 00 ................
004011C0 00 00 00 00 00 00 00 00 00 00 00 00 00 00 00 00 ................
004011D0 00 00 00 00 00 00 00 00 00 00 00 00 00 00 00 00 ................
004011E0 00 00 00 00 00 00 00 00 00 00 00 00 00 00 00 00 ................
004011F0 00 00 00 00 00 00 00 00 00 00 00 00 00 00 00 00 ................
00401200 00 00 00 00 00 00 00 00 00 00 00 00 00 00 00 00 ................
00401210 00 00 00 00 00 00 00 00 00 00 00 00 00 00 00 00 ................
00401220 00 00 00 00 00 00 00 00 00 00 00 00 00 00 00 00 ................
00401230 00 00 00 00 00 00 00 00 00 00 00 00 00 00 00 00 ................
00401240 00 00 00 00 00 00 00 00 00 00 00 00 00 00 00 00 ................
00401250 00 00 00 00 00 00 00 00 00 00 00 00 00 00 00 00 ................
00401260 00 00 00 00 00 00 00 00 00 00 00 00 00 00 00 00 ................
00401270 00 00 00 00 00 00 00 00 00 00 00 00 00 00 00 00 ................
00401280 00 00 00 00 00 00 00 00 00 00 00 00 00 00 00 00 ................
00401290 00 00 00 00 00 00 00 00 00 00 00 00 00 00 00 00 ................
004012A0 00 00 00 00 00 00 00 00 00 00 00 00 00 00 00 00 ................
004012B0 00 00 00 00 00 00 00 00 00 00 00 00 00 00 00 00 ................
004012C0 00 00 00 00 00 00 00 00 00 00 00 00 00 00 00 00 ................
004012D0 00 00 00 00 00 00 00 00 00 00 00 00 00 00 00 00 ................
004012E0 00 00 00 00 00 00 00 00 00 00 00 00 00 00 00 00 ................
004012F0 00 00 00 00 00 00 00 00 00 00 00 00 00 00 00 00 ................
00401300 00 00 00 00 00 00 00 00 00 00 00 00 00 00 00 00 ................
00401310 00 00 00 00 00 00 00 00 00 00 00 00 00 00 00 00 ................
00401320 00 00 00 00 00 00 00 00 00 00 00 00 00 00 00 00 ................
00401330 00 00 00 00 00 00 00 00 00 00 00 00 00 00 00 00 ................
00401340 00 00 00 00 00 00 00 00 00 00 00 00 00 00 00 00 ................
00401350 00 00 00 00 00 00 00 00 00 00 00 00 00 00 00 00 ................
00401360 00 00 00 00 00 00 00 00 00 00 00 00 00 00 00 00 ................
00401370 00 00 00 00 00 00 00 00 00 00 00 00 00 00 00 00 ................
00401380 00 00 00 00 00 00 00 00 00 00 00 00 00 00 00 00 ................
00401390 00 00 00 00 00 00 00 00 00 00 00 00 00 00 00 00 ................
004013A0 00 00 00 00 00 00 00 00 00 00 00 00 00 00 00 00 ................
004013B0 00 00 00 00 00 00 00 00 00 00 00 00 00 00 00 00 ................
004013C0 00 00 00 00 00 00 00 00 00 00 00 00 00 00 00 00 ................
004013D0 00 00 00 00 00 00 00 00 00 00 00 00 00 00 00 00 ................
004013E0 00 00 00 00 00 00 00 00 00 00 00 00 00 00 00 00 ................
004013F0 00 00 00 00 00 00 00 00 00 00 00 00 00 00 00 00 ................
00401400 00 00 00 00 00 00 00 00 00 00 00 00 00 00 00 00 ................
00401410 00 00 00 00 00 00 00 00 00 00 00 00 00 00 00 00 ................
00401420 00 00 00 00 00 00 00 00 00 00 00 00 00 00 00 00 ................
00401430 00 00 00 00 00 00 00 00 00 00 00 00 00 00 00 00 ................
00401440 00 00 00 00 00 00 00 00 00 00 00 00 00 00 00 00 ................
00401450 00 00 00 00 00 00 00 00 00 00 00 00 00 00 00 00 ................
00401460 00 00 00 00 00 00 00 00 00 00 00 00 00 00 00 00 ................
00401470 00 00 00 00 00 00 00 00 00 00 00 00 00 00 00 00 ................
00401480 00 00 00 00 00 00 00 00 00 00 00 00 00 00 00 00 ................
00401490 00 00 00 00 00 00 00 00 00 00 00 00 00 00 00 00 ................
004014A0 00 00 00 00 00 00 00 00 00 00 00 00 00 00 00 00 ................
004014B0 00 00 00 00 00 00 00 00 00 00 00 00 00 00 00 00 ................
004014C0 00 00 00 00 00 00 00 00 00 00 00 00 00 00 00 00 ................
004014D0 00 00 00 00 00 00 00 00 00 00 00 00 00 00 00 00 ................
004014E0 00 00 00 00 00 00 00 00 00 00 00 00 00 00 00 00 ................
004014F0 00 00 00 00 00 00 00 00 00 00 00 00 00 00 00 00 ................
00401500 00 00 00 00 00 00 00 00 00 00 00 00 00 00 00 00 ................
00401510 00 00 00 00 00 00 00 00 00 00 00 00 00 00 00 00 ................
00401520 00 00 00 00 00 00 00 00 00 00 00 00 00 00 00 00 ................
00401530 00 00 00 00 00 00 00 00 00 00 00 00 00 00 00 00 ................
00401540 00 00 00 00 00 00 00 00 00 00 00 00 00 00 00 00 ................
00401550 00 00 00 00 00 00 00 00 00 00 00 00 00 00 00 00 ................
00401560 00 00 00 00 00 00 00 00 00 00 00 00 00 00 00 00 ................
00401570 00 00 00 00 00 00 00 00 00 00 00 00 00 00 00 00 ................
00401580 00 00 00 00 00 00 00 00 00 00 00 00 00 00 00 00 ................
00401590 00 00 00 00 00 00 00 00 00 00 00 00 00 00 00 00 ................
004015A0 00 00 00 00 00 00 00 00 00 00 00 00 00 00 00 00 ................
004015B0 00 00 00 00 00 00 00 00 00 00 00 00 00 00 00 00 ................
004015C0 00 00 00 00 00 00 00 00 00 00 00 00 00 00 00 00 ................
004015D0 00 00 00 00 00 00 00 00 00 00 00 00 00 00 00 00 ................
004015E0 00 00 00 00 00 00 00 00 00 00 00 00 00 00 00 00 ................
004015F0 00 00 00 00 00 00 00 00 00 00 00 00 00 00 00 00 ................
00401600 00 00 00 00 00 00 00 00 00 00 00 00 00 00 00 00 ................
00401610 00 00 00 00 00 00 00 00 00 00 00 00 00 00 00 00 ................
00401620 00 00 00 00 00 00 00 00 00 00 00 00 00 00 00 00 ................
00401630 00 00 00 00 00 00 00 00 00 00 00 00 00 00 00 00 ................
00401640 00 00 00 00 00 00 00 00 00 00 00 00 00 00 00 00 ................
00401650 00 00 00 00 00 00 00 00 00 00 00 00 00 00 00 00 ................
00401660 00 00 00 00 00 00 00 00 00 00 00 00 00 00 00 00 ................
00401670 00 00 00 00 00 00 00 00 00 00 00 00 00 00 00 00 ................
00401680 00 00 00 00 00 00 00 00 00 00 00 00 00 00 00 00 ................
00401690 00 00 00 00 00 00 00 00 00 00 00 00 00 00 00 00 ................
004016A0 00 00 00 00 00 00 00 00 00 00 00 00 00 00 00 00 ................
004016B0 00 00 00 00 00 00 00 00 00 00 00 00 00 00 00 00 ................
004016C0 00 00 00 00 00 00 00 00 00 00 00 00 00 00 00 00 ................
004016D0 00 00 00 00 00 00 00 00 00 00 00 00 00 00 00 00 ................
004016E0 00 00 00 00 00 00 00 00 00 00 00 00 00 00 00 00 ................
004016F0 00 00 00 00 00 00 00 00 00 00 00 00 00 00 00 00 ................
00401700 00 00 00 00 00 00 00 00 00 00 00 00 00 00 00 00 ................
00401710 00 00 00 00 00 00 00 00 00 00 00 00 00 00 00 00 ................
00401720 00 00 00 00 00 00 00 00 00 00 00 00 00 00 00 00 ................
00401730 00 00 00 00 00 00 00 00 00 00 00 00 00 00 00 00 ................
00401740 00 00 00 00 00 00 00 00 00 00 00 00 00 00 00 00 ................
00401750 00 00 00 00 00 00 00 00 00 00 00 00 00 00 00 00 ................
00401760 00 00 00 00 00 00 00 00 00 00 00 00 00 00 00 00 ................
00401770 00 00 00 00 00 00 00 00 00 00 00 00 00 00 00 00 ................
00401780 00 00 00 00 00 00 00 00 00 00 00 00 00 00 00 00 ................
00401790 00 00 00 00 00 00 00 00 00 00 00 00 00 00 00 00 ................
004017A0 00 00 00 00 00 00 00 00 00 00 00 00 00 00 00 00 ................
004017B0 00 00 00 00 00 00 00 00 00 00 00 00 00 00 00 00 ................
004017C0 00 00 00 00 00 00 00 00 00 00 00 00 00 00 00 00 ................
004017D0 00 00 00 00 00 00 00 00 00 00 00 00 00 00 00 00 ................
004017E0 00 00 00 00 00 00 00 00 00 00 00 00 00 00 00 00 ................
004017F0 00 00 00 00 00 00 00 00 00 00 00 00 00 00 00 00 ................
00401800 00 00 00 00 00 00 00 00 00 00 00 00 00 00 00 00 ................
00401810 00 00 00 00 00 00 00 00 00 00 00 00 00 00 00 00 ................
00401820 00 00 00 00 00 00 00 00 00 00 00 00 00 00 00 00 ................
00401830 00 00 00 00 00 00 00 00 00 00 00 00 00 00 00 00 ................
00401840 00 00 00 00 00 00 00 00 00 00 00 00 00 00 00 00 ................
00401850 00 00 00 00 00 00 00 00 00 00 00 00 00 00 00 00 ................
00401860 00 00 00 00 00 00 00 00 00 00 00 00 00 00 00 00 ................
00401870 00 00 00 00 00 00 00 00 00 00 00 00 00 00 00 00 ................
00401880 00 00 00 00 00 00 00 00 00 00 00 00 00 00 00 00 ................
00401890 00 00 00 00 00 00 00 00 00 00 00 00 00 00 00 00 ................
004018A0 00 00 00 00 00 00 00 00 00 00 00 00 00 00 00 00 ................
004018B0 00 00 00 00 00 00 00 00 00 00 00 00 00 00 00 00 ................
004018C0 00 00 00 00 00 00 00 00 00 00 00 00 00 00 00 00 ................
004018D0 00 00 00 00 00 00 00 00 00 00 00 00 00 00 00 00 ................
004018E0 00 00 00 00 00 00 00 00 00 00 00 00 00 00 00 00 ................
004018F0 00 00 00 00 00 00 00 00 00 00 00 00 00 00 00 00 ................
00401900 00 00 00 00 00 00 00 00 00 00 00 00 00 00 00 00 ................
00401910 00 00 00 00 00 00 00 00 00 00 00 00 00 00 00 00 ................
00401920 00 00 00 00 00 00 00 00 00 00 00 00 00 00 00 00 ................
00401930 00 00 00 00 00 00 00 00 00 00 00 00 00 00 00 00 ................
00401940 00 00 00 00 00 00 00 00 00 00 00 00 00 00 00 00 ................
00401950 00 00 00 00 00 00 00 00 00 00 00 00 00 00 00 00 ................
00401960 00 00 00 00 00 00 00 00 00 00 00 00 00 00 00 00 ................
00401970 00 00 00 00 00 00 00 00 00 00 00 00 00 00 00 00 ................
00401980 00 00 00 00 00 00 00 00 00 00 00 00 00 00 00 00 ................
00401990 00 00 00 00 00 00 00 00 00 00 00 00 00 00 00 00 ................
004019A0 00 00 00 00 00 00 00 00 00 00 00 00 00 00 00 00 ................
004019B0 00 00 00 00 00 00 00 00 00 00 00 00 00 00 00 00 ................
004019C0 00 00 00 00 00 00 00 00 00 00 00 00 00 00 00 00 ................
004019D0 00 00 00 00 00 00 00 00 00 00 00 00 00 00 00 00 ................
004019E0 00 00 00 00 00 00 00 00 00 00 00 00 00 00 00 00 ................
004019F0 00 00 00 00 00 00 00 00 00 00 00 00 00 00 00 00 ................
00401A00 00 00 00 00 00 00 00 00 00 00 00 00 00 00 00 00 ................
00401A10 00 00 00 00 00 00 00 00 00 00 00 00 00 00 00 00 ................
00401A20 00 00 00 00 00 00 00 00 00 00 00 00 00 00 00 00 ................
00401A30 00 00 00 00 00 00 00 00 00 00 00 00 00 00 00 00 ................
00401A40 00 00 00 00 00 00 00 00 00 00 00 00 00 00 00 00 ................
00401A50 00 00 00 00 00 00 00 00 00 00 00 00 00 00 00 00 ................
00401A60 00 00 00 00 00 00 00 00 00 00 00 00 00 00 00 00 ................
00401A70 00 00 00 00 00 00 00 00 00 00 00 00 00 00 00 00 ................
00401A80 00 00 00 00 00 00 00 00 00 00 00 00 00 00 00 00 ................
00401A90 00 00 00 00 00 00 00 00 00 00 00 00 00 00 00 00 ................
00401AA0 00 00 00 00 00 00 00 00 00 00 00 00 00 00 00 00 ................
00401AB0 00 00 00 00 00 00 00 00 00 00 00 00 00 00 00 00 ................
00401AC0 00 00 00 00 00 00 00 00 00 00 00 00 00 00 00 00 ................
00401AD0 00 00 00 00 00 00 00 00 00 00 00 00 00 00 00 00 ................
00401AE0 00 00 00 00 00 00 00 00 00 00 00 00 00 00 00 00 ................
00401AF0 00 00 00 00 00 00 00 00 00 00 00 00 00 00 00 00 ................
00401B00 00 00 00 00 00 00 00 00 00 00 00 00 00 00 00 00 ................
00401B10 00 00 00 00 00 00 00 00 00 00 00 00 00 00 00 00 ................
00401B20 00 00 00 00 00 00 00 00 00 00 00 00 00 00 00 00 ................
00401B30 00 00 00 00 00 00 00 00 00 00 00 00 00 00 00 00 ................
00401B40 00 00 00 00 00 00 00 00 00 00 00 00 00 00 00 00 ................
00401B50 00 00 00 00 00 00 00 00 00 00 00 00 00 00 00 00 ................
00401B60 00 00 00 00 00 00 00 00 00 00 00 00 00 00 00 00 ................
00401B70 00 00 00 00 00 00 00 00 00 00 00 00 00 00 00 00 ................
00401B80 00 00 00 00 00 00 00 00 00 00 00 00 00 00 00 00 ................
00401B90 00 00 00 00 00 00 00 00 00 00 00 00 00 00 00 00 ................
00401BA0 00 00 00 00 00 00 00 00 00 00 00 00 00 00 00 00 ................
00401BB0 00 00 00 00 00 00 00 00 00 00 00 00 00 00 00 00 ................
00401BC0 00 00 00 00 00 00 00 00 00 00 00 00 00 00 00 00 ................
00401BD0 00 00 00 00 00 00 00 00 00 00 00 00 00 00 00 00 ................
00401BE0 00 00 00 00 00 00 00 00 00 00 00 00 00 00 00 00 ................
00401BF0 00 00 00 00 00 00 00 00 00 00 00 00 00 00 00 00 ................
00401C00 00 00 00 00 00 00 00 00 00 00 00 00 00 00 00 00 ................
00401C10 00 00 00 00 00 00 00 00 00 00 00 00 00 00 00 00 ................
00401C20 00 00 00 00 00 00 00 00 00 00 00 00 00 00 00 00 ................
00401C30 00 00 00 00 00 00 00 00 00 00 00 00 00 00 00 00 ................
00401C40 00 00 00 00 00 00 00 00 00 00 00 00 00 00 00 00 ................
00401C50 00 00 00 00 00 00 00 00 00 00 00 00 00 00 00 00 ................
00401C60 00 00 00 00 00 00 00 00 00 00 00 00 00 00 00 00 ................
00401C70 00 00 00 00 00 00 00 00 00 00 00 00 00 00 00 00 ................
00401C80 00 00 00 00 00 00 00 00 00 00 00 00 00 00 00 00 ................
00401C90 00 00 00 00 00 00 00 00 00 00 00 00 00 00 00 00 ................
00401CA0 00 00 00 00 00 00 00 00 00 00 00 00 00 00 00 00 ................
00401CB0 00 00 00 00 00 00 00 00 00 00 00 00 00 00 00 00 ................
00401CC0 00 00 00 00 00 00 00 00 00 00 00 00 00 00 00 00 ................
00401CD0 00 00 00 00 00 00 00 00 00 00 00 00 00 00 00 00 ................
00401CE0 00 00 00 00 00 00 00 00 00 00 00 00 00 00 00 00 ................
00401CF0 00 00 00 00 00 00 00 00 00 00 00 00 00 00 00 00 ................
00401D00 00 00 00 00 00 00 00 00 00 00 00 00 00 00 00 00 ................
00401D10 00 00 00 00 00 00 00 00 00 00 00 00 00 00 00 00 ................
00401D20 00 00 00 00 00 00 00 00 00 00 00 00 00 00 00 00 ................
00401D30 00 00 00 00 00 00 00 00 00 00 00 00 00 00 00 00 ................
00401D40 00 00 00 00 00 00 00 00 00 00 00 00 00 00 00 00 ................
00401D50 00 00 00 00 00 00 00 00 00 00 00 00 00 00 00 00 ................
00401D60 00 00 00 00 00 00 00 00 00 00 00 00 00 00 00 00 ................
00401D70 00 00 00 00 00 00 00 00 00 00 00 00 00 00 00 00 ................
00401D80 00 00 00 00 00 00 00 00 00 00 00 00 00 00 00 00 ................
00401D90 00 00 00 00 00 00 00 00 00 00 00 00 00 00 00 00 ................
00401DA0 00 00 00 00 00 00 00 00 00 00 00 00 00 00 00 00 ................
00401DB0 00 00 00 00 00 00 00 00 00 00 00 00 00 00 00 00 ................
00401DC0 00 00 00 00 00 00 00 00 00 00 00 00 00 00 00 00 ................
00401DD0 00 00 00 00 00 00 00 00 00 00 00 00 00 00 00 00 ................
00401DE0 00 00 00 00 00 00 00 00 00 00 00 00 00 00 00 00 ................
00401DF0 00 00 00 00 00 00 00 00 00 00 00 00 00 00 00 00 ................
00401E00 00 00 00 00 00 00 00 00 00 00 00 00 00 00 00 00 ................
00401E10 00 00 00 00 00 00 00 00 00 00 00 00 00 00 00 00 ................
00401E20 00 00 00 00 00 00 00 00 00 00 00 00 00 00 00 00 ................
00401E30 00 00 00 00 00 00 00 00 00 00 00 00 00 00 00 00 ................
00401E40 00 00 00 00 00 00 00 00 00 00 00 00 00 00 00 00 ................
00401E50 00 00 00 00 00 00 00 00 00 00 00 00 00 00 00 00 ................
00401E60 00 00 00 00 00 00 00 00 00 00 00 00 00 00 00 00 ................
00401E70 00 00 00 00 00 00 00 00 00 00 00 00 00 00 00 00 ................
00401E80 00 00 00 00 00 00 00 00 00 00 00 00 00 00 00 00 ................
00401E90 00 00 00 00 00 00 00 00 00 00 00 00 00 00 00 00 ................
00401EA0 00 00 00 00 00 00 00 00 00 00 00 00 00 00 00 00 ................
00401EB0 00 00 00 00 00 00 00 00 00 00 00 00 00 00 00 00 ................
00401EC0 00 00 00 00 00 00 00 00 00 00 00 00 00 00 00 00 ................
00401ED0 00 00 00 00 00 00 00 00 00 00 00 00 00 00 00 00 ................
00401EE0 00 00 00 00 00 00 00 00 00 00 00 00 00 00 00 00 ................
00401EF0 00 00 00 00 00 00 00 00 00 00 00 00 00 00 00 00 ................
00401F00 00 00 00 00 00 00 00 00 00 00 00 00 00 00 00 00 ................
00401F10 00 00 00 00 00 00 00 00 00 00 00 00 00 00 00 00 ................
00401F20 00 00 00 00 00 00 00 00 00 00 00 00 00 00 00 00 ................
00401F30 00 00 00 00 00 00 00 00 00 00 00 00 00 00 00 00 ................
00401F40 00 00 00 00 00 00 00 00 00 00 00 00 00 00 00 00 ................
00401F50 00 00 00 00 00 00 00 00 00 00 00 00 00 00 00 00 ................
00401F60 00 00 00 00 00 00 00 00 00 00 00 00 00 00 00 00 ................
00401F70 00 00 00 00 00 00 00 00 00 00 00 00 00 00 00 00 ................
00401F80 00 00 00 00 00 00 00 00 00 00 00 00 00 00 00 00 ................
00401F90 00 00 00 00 00 00 00 00 00 00 00 00 00 00 00 00 ................
00401FA0 00 00 00 00 00 00 00 00 00 00 00 00 00 00 00 00 ................
00401FB0 00 00 00 00 00 00 00 00 00 00 00 00 00 00 00 00 ................
00401FC0 00 00 00 00 00 00 00 00 00 00 00 00 00 00 00 00 ................
00401FD0 00 00 00 00 00 00 00 00 00 00 00 00 00 00 00 00 ................
00401FE0 00 00 00 00 00 00 00 00 00 00 00 00 00 00 00 00 ................
00401FF0 00 00 00 00 00 00 00 00 00 00 00 00 00 00 00 00 ................
00402000 00 00 00 00 00 00 00 00 00 00 00 00 00 00 00 00 ................
00402010 00 00 00 00 00 00 00 00 00 00 00 00 00 00 00 00 ................
00402020 00 00 00 00 00 00 00 00 00 00 00 00 00 00 00 00 ................
00402030 00 00 00 00 00 00 00 00 00 00 00 00 00 00 00 00 ................
00402040 00 00 00 00 00 00 00 00 00 00 00 00 00 00 00 00 ................
00402050 00 00 00 00 00 00 00 00 00 00 00 00 00 00 00 00 ................
00402060 00 00 00 00 00 00 00 00 00 00 00 00 00 00 00 00 ................
00402070 00 00 00 00 00 00 00 00 00 00 00 00 00 00 00 00 ................
00402080 00 00 00 00 00 00 00 00 00 00 00 00 00 00 00 00 ................
00402090 00 00 00 00 00 00 00 00 00 00 00 00 00 00 00 00 ................
004020A0 00 00 00 00 00 00 00 00 00 00 00 00 00 00 00 00 ................
004020B0 00 00 00 00 00 00 00 00 00 00 00 00 00 00 00 00 ................
004020C0 00 00 00 00 00 00 00 00 00 00 00 00 00 00 00 00 ................
004020D0 00 00 00 00 00 00 00 00 00 00 00 00 00 00 00 00 ................
004020E0 00 00 00 00 00 00 00 00 00 00 00 00 00 00 00 00 ................
004020F0 00 00 00 00 00 00 00 00 00 00 00 00 00 00 00 00 ................
00402100 00 00 00 00 00 00 00 00 00 00 00 00 00 00 00 00 ................
00402110 00 00 00 00 00 00 00 00 00 00 00 00 00 00 00 00 ................
00402120 03 B4 2D E9 30 48 0D F1 08 0B 82 B0 4F F0 CC 30 ..-.0H......O..0
00402130 00 90 01 90 06 48 05 4B 1B 68 98 47 00 23 00 93 .....H.K.h.G.#..
00402140 00 98 02 B0 BD E8 30 08 5D F8 0C FB 08 C1 40 00 ......0.].....@.
00402150 58 78 40 00 00 00 00 00 00 00 00 00 00 00 00 00 Xx@.............
00402160 00 00 00 00 4C F2 08 1C C0 F2 40 0C DC F8 00 F0 ....L.....@.....
00402170 2D E9 0C 48 0D F1 08 0B 4A F2 30 12 C0 F2 40 02 -..H....J.0...@.
00402180 13 78 5B B9 01 23 13 70 00 23 00 93 01 23 00 22 .x[..#.p.#...#."
00402190 00 21 00 20 00 F0 3A FB 00 F0 16 FB BD E8 0C 88 .!. ..:.........
004021A0 00 00 00 00 00 00 00 00 00 00 00 00 00 00 00 00 ................
004021B0 00 00 00 00 00 00 00 00 00 00 00 00 00 00 00 00 ................
004021C0 00 00 00 00 00 00 00 00 00 00 00 00 00 00 00 00 ................
004021D0 2D E9 0C 48 0D F1 08 0B 01 23 00 22 00 21 00 20 -..H.....#.".!. 
004021E0 00 93 00 F0 13 FB BD E8 0C 88 00 00 00 00 00 00 ................
004021F0 00 00 00 00 00 00 00 00 00 00 00 00 00 00 00 00 ................
00402200 00 00 00 00 2D E9 00 48 EB 46 84 B0 00 F0 34 FA ....-..H.F....4.
00402210 00 90 00 9A 29 4B 1A 60 01 20 27 4B 1B 68 98 47 ....)K.`. 'K.h.G
00402220 6F F0 00 00 23 4B 1B 68 98 47 01 90 01 9A 20 4B o...#K.h.G.... K
00402230 1A 60 1F 4B 1A 68 1D 4B 1A 60 1B 4B 1A 68 19 4B .`.K.h.K.`.K.h.K
00402240 1B 68 1A 60 16 4B 1A 68 14 4B 1B 68 1A 60 00 F0 .h.`.K.h.K.h.`..
00402250 EB FD 00 F0 59 FB 10 4B 1B 68 00 2B 03 D1 0D 48 ....Y..K.h.+...H
00402260 0B 4B 1B 68 98 47 09 4B 1B 68 B3 F1 FF 3F 04 D1 .K.h.G.K.h...?..
00402270 6F F0 00 00 04 4B 1B 68 98 47 00 23 02 93 02 98 o....K.h.G.#....
00402280 04 B0 BD E8 00 88 FE DE D8 C0 40 00 04 A0 40 00 ..........@...@.
00402290 D4 C0 40 00 E9 2B 40 00 00 A0 40 00 BC C0 40 00 ..@..+@...@...@.
004022A0 5C A1 40 00 C0 C0 40 00 68 A1 40 00 8C A3 40 00 \.@...@.h.@...@.
004022B0 7C A3 40 00 4C C0 40 00 F0 C0 40 00 3C A1 40 00 |.@.L.@...@.<.@.
004022C0 00 00 00 00 00 00 00 00 00 00 00 00 00 00 00 00 ................
004022D0 00 00 00 00 00 00 00 00 00 00 00 00 00 00 00 00 ................
004022E0 00 00 00 00 00 00 00 00 00 00 00 00 00 00 00 00 ................
004022F0 00 00 00 00 00 00 00 00 00 00 00 00 00 00 00 00 ................
00402300 00 00 00 00 00 00 00 00 2D E9 10 48 0D F1 04 0B ........-..H....
00402310 83 B0 17 48 00 F0 62 FD 14 4B 1A 68 12 4B 1A 60 ...H..b..K.h.K.`
00402320 11 4B 00 93 0F 4B 1B 68 0D 4A 0C 49 0A 48 09 4C .K...K.h.J.I.H.L
00402330 24 68 A0 47 02 90 02 9A 05 4B 1A 60 04 4B 1B 68 $h.G.....K.`.K.h
00402340 00 2B 02 DA 08 20 00 F0 D9 FA 03 B0 BD E8 10 88 .+... ..........
00402350 4C A1 40 00 F4 C0 40 00 40 A1 40 00 44 A1 40 00 L.@...@.@.@.D.@.
00402360 48 A1 40 00 60 A1 40 00 50 A1 40 00 64 A1 40 00 H.@.`.@.P.@.d.@.
00402370 59 2E 40 00 00 00 00 00 00 00 00 00 00 00 00 00 Y.@.............
00402380 00 00 00 00 00 00 00 00 00 00 00 00 00 00 00 00 ................
00402390 00 00 00 00 00 00 00 00 00 00 00 00 00 00 00 00 ................
004023A0 00 00 00 00                                     ....           

fn004023A4()
	push.w	{fp,lr}
	mov	fp,sp
	sub	sp,#8
	mrc	p15,#0,r3,c13
	str	r3,[sp]
	ldr	r3,[sp]
	str	r3,[sp,#4]
	ldr	r0,[sp,#4]
	add	sp,#8
	pop.w	{fp,pc}
004023BE                                           00 00               ..

fn004023C0()
	push.w	{r4,r7,fp,lr}
	add.w	fp,sp,#8
	sub	sp,#&50
	mov	r7,sp
	sub	sp,#8
	movs	r3,#0
	str	r3,[r7,#4]
	bl	$004023A4
	str	r0,[r7,#&28]
	ldr	r3,[r7,#&28]
	adds	r3,r3,#4
	ldr	r3,[r3]
	str	r3,[r7,#8]
	movs	r3,#0
	str	r3,[r7,#&C]

l004023E4:
	dmb
	ldr	r0,[pc,#&1D4]
	ldr	r1,[r7,#8]

l004023EC:
	ldrex	r2,[r0]
	cmp	r2,#0
	bne	$004023FC

l004023F4:
	strex	r3,r1,[r0]
	cmp	r3,#0
	bne	$004023EC

l004023FC:
	mov	r3,r2
	str	r3,[r7,#&40]
	dmb
	ldr	r3,[r7,#&40]
	str	r3,[r7,#4]
	ldr	r3,[r7,#4]
	cmp	r3,#0
	beq	$0040241E

l0040240E:
	ldr	r2,[r7,#4]
	ldr	r3,[r7,#8]
	cmp	r2,r3
	bne	$0040241C

l00402416:
	movs	r3,#1
	str	r3,[r7,#&C]
	b	$0040241E

l0040241C:
	b	$004023E4

l0040241E:
	ldr	r3,[pc,#&1B4]
	ldr	r3,[r3]
	str	r3,[r7,#&20]
	dmb
	ldr	r3,[r7,#&20]
	cmp	r3,#1
	bne	$00402436

l0040242E:
	movs	r0,#&1F
	bl	$004028FC
	b	$00402472

l00402436:
	ldr	r3,[pc,#&19C]
	ldr	r3,[r3]
	str	r3,[r7,#&38]
	dmb
	ldr	r3,[r7,#&38]
	cmp	r3,#0
	bne	$0040246C

l00402446:
	dmb
	ldr	r2,[pc,#&188]
	movs	r3,#1
	str	r3,[r2]
	ldr	r1,[pc,#&190]
	ldr	r0,[pc,#&18C]
	bl	$00402EA0
	str	r0,[r7,#&14]
	ldr	r3,[r7,#&14]
	cmp	r3,#0
	beq	$0040246A

l00402460:
	movs	r3,#&FF
	str	r3,[r7,#&48]
	ldr	r3,[r7,#&48]
	str	r3,[r7,#&10]
	b	$00402586

l0040246A:
	b	$00402472

l0040246C:
	ldr	r2,[pc,#&128]
	movs	r3,#1
	str	r3,[r2]

l00402472:
	ldr	r3,[pc,#&160]
	ldr	r3,[r3]
	str	r3,[r7,#&30]
	dmb
	ldr	r3,[r7,#&30]
	cmp	r3,#1
	bne	$00402494

l00402482:
	ldr	r1,[pc,#&158]
	ldr	r0,[pc,#&150]
	bl	$00402EAC
	dmb
	ldr	r2,[pc,#&144]
	movs	r3,#2
	str	r3,[r2]

l00402494:
	ldr	r3,[pc,#&13C]
	ldr	r3,[r3]
	str	r3,[r7,#&18]
	dmb
	ldr	r3,[r7,#&18]
	cmp	r3,#2
	beq	$004024C6

l004024A4:
	ldr	r3,[pc,#&128]
	str	r3,[sp,#4]
	ldr	r3,[pc,#&120]
	str	r3,[sp]
	movs	r3,#0
	movw	r2,#&229
	ldr	r1,[pc,#&114]
	movs	r0,#2
	ldr	r4,[pc,#&10C]
	ldr	r4,[r4]
	blx	r4
	str	r0,[r7,#&1C]
	ldr	r3,[r7,#&1C]
	cmp	r3,#1
	bne	$004024C6

l004024C4:
	trap

l004024C6:
	ldr	r3,[r7,#&C]
	cmp	r3,#0
	bne	$004024E4

l004024CC:
	dmb
	ldr	r0,[pc,#&EC]
	movs	r1,#0

l004024D4:
	ldrex	r2,[r0]
	strex	r3,r1,[r0]
	cmp	r3,#0
	bne	$004024D4

l004024E0:
	dmb

l004024E4:
	ldr	r3,[pc,#&D4]
	ldr	r3,[r3]
	cmp	r3,#0
	beq	$00402506

l004024EC:
	ldr	r0,[pc,#&CC]
	bl	$004029CC
	str	r0,[r7,#&24]
	ldr	r3,[r7,#&24]
	cmp	r3,#0
	beq	$00402506

l004024FA:
	movs	r2,#0
	movs	r1,#2
	movs	r0,#0
	ldr	r3,[pc,#&B8]
	ldr	r3,[r3]
	blx	r3

l00402506:
	movs	r0,#1
	ldr	r3,[pc,#&AC]
	ldr	r3,[r3]
	blx	r3
	ldr	r3,[pc,#&A0]
	ldr	r2,[r3]
	ldr	r3,[pc,#&A0]
	ldr	r3,[r3]
	str	r2,[r3]
	ldr	r3,[pc,#&94]
	ldr	r2,[r3]
	ldr	r3,[pc,#&8C]
	ldr	r1,[r3]
	ldr	r3,[pc,#&84]
	ldr	r0,[r3]
	bl	$0040100C
	str	r0,[r7,#&2C]
	ldr	r2,[r7,#&2C]
	ldr	r3,[pc,#&60]
	str	r2,[r3]
	ldr	r3,[pc,#&6C]
	ldr	r3,[r3]
	cmp	r3,#0
	bne	$00402542

l00402538:
	ldr	r3,[pc,#&54]
	ldr	r0,[r3]
	ldr	r3,[pc,#&64]
	ldr	r3,[r3]
	blx	r3

l00402542:
	ldr	r3,[pc,#&54]
	ldr	r3,[r3]
	cmp	r3,#0
	bne	$00402550

l0040254A:
	ldr	r3,[pc,#&48]
	ldr	r3,[r3]
	blx	r3

l00402550:
	b	$00402580
00402552       38 60 3B 68 FB 64 FA 6C 0D 4B 1A 60 10 4B   8`;h.d.l.K.`.K
00402560 1B 68 00 2B 04 D1 0A 4B 18 68 0C 4B 1B 68 98 47 .h.+...K.h.K.h.G
00402570 09 4B 1B 68 00 2B 02 D1 06 4B 1B 68 98 47 FF E7 .K.h.+...K.h.G..

l00402580:
	ldr	r3,[pc,#&C]
	ldr	r3,[r3]
	str	r3,[r7,#&10]

l00402586:
	ldr	r0,[r7,#&10]
	add	sp,#&58
	pop.w	{r4,r7,fp,pc}
0040258E                                           FE DE               ..
00402590 38 A1 40 00 DC C0 40 00 34 A1 40 00 E0 C0 40 00 8.@...@.4.@...@.
004025A0 3C A1 40 00 E4 C0 40 00 40 A1 40 00 44 A1 40 00 <.@...@.@.@.D.@.
004025B0 48 A1 40 00 C4 C0 40 00 E8 C0 40 00 90 A3 40 00 H.@...@...@...@.
004025C0 68 A3 40 00 EC C0 40 00 C0 78 40 00 B8 78 40 00 h.@...@..x@..x@.
004025D0 68 78 40 00 78 A3 40 00 00 70 40 00 08 72 40 00 hx@.x.@..p@..r@.
004025E0 0C 73 40 00 1C 77 40 00 00 00 00 00 00 00 00 00 .s@..w@.........
004025F0 00 00 00 00 00 00 00 00 00 00 00 00 00 00 00 00 ................
00402600 00 00 00 00 00 00 00 00 00 00 00 00 00 00 00 00 ................
00402610 00 00 00 00 00 00 00 00 00 00 00 00 00 00 00 00 ................
00402620 00 00 00 00 00 00 00 00 00 00 00 00 00 00 00 00 ................
00402630 00 00 00 00 00 00 00 00 00 00 00 00 00 00 00 00 ................
00402640 00 00 00 00 00 00 00 00 00 00 00 00 00 00 00 00 ................
00402650 00 00 00 00 00 00 00 00 00 00 00 00 00 00 00 00 ................
00402660 00 00 00 00 00 00 00 00 00 00 00 00 00 00 00 00 ................
00402670 00 00 00 00 00 00 00 00 2D E9 00 48 EB 46 84 B0 ........-..H.F..
00402680 1E 4B 02 93 02 9B 1A 88 45 F6 4D 23 9A 42 02 D0 .K......E.M#.B..
00402690 00 23 00 93 2D E0 02 9B 3C 33 02 9A 1B 68 13 44 .#..-...<3...h.D
004026A0 01 93 01 9B 1A 68 44 F2 50 53 9A 42 02 D0 00 23 .....hD.PS.B...#
004026B0 00 93 1E E0 01 9B 18 33 1A 88 40 F2 0B 13 9A 42 .......3..@....B
004026C0 02 D0 00 23 00 93 14 E0 01 9B 74 33 1B 68 0E 2B ...#......t3.h.+
004026D0 02 D8 00 23 00 93 0C E0 01 9B 78 33 70 33 1B 68 ...#......x3p3.h
004026E0 00 2B 02 D0 01 23 03 93 01 E0 00 23 03 93 03 9B .+...#.....#....
004026F0 00 93 00 98 04 B0 BD E8 00 88 FE DE 00 00 40 00 ..............@.

fn00402700()
	push.w	{fp,lr}
	mov	fp,sp
	sub	sp,#8
	bl	$00402B18
	bl	$004023C0
	str	r0,[sp]
	ldr	r3,[sp]
	str	r3,[sp,#4]
	ldr	r0,[sp,#4]
	add	sp,#8
	pop.w	{fp,pc}
0040271E                                           00 00               ..
00402720 00 00 00 00 00 00 00 00 00 00 00 00 00 00 00 00 ................
00402730 00 00 00 00 00 00 00 00 00 00 00 00 00 00 00 00 ................
00402740 00 00 00 00 00 00 00 00 00 00 00 00 00 00 00 00 ................
00402750 2D E9 00 48 EB 46 4A F2 54 13 C0 F2 40 03 18 68 -..H.FJ.T...@..h
00402760 BD E8 00 88 2D E9 00 48 EB 46 4A F2 58 13 C0 F2 ....-..H.FJ.X...
00402770 40 03 18 68 BD E8 00 88 2D E9 00 48 EB 46 04 28 @..h....-..H.F.(
00402780 07 D8 47 F6 18 13 C0 F2 40 03 53 F8 20 00 BD E8 ..G.....@.S. ...
00402790 00 88 00 20 BD E8 00 88 00 00 00 00 00 00 00 00 ... ............
004027A0 2D E9 00 48 EB 46 05 20 BD E8 00 88 2D E9 00 48 -..H.F. ....-..H
004027B0 EB 46 4A F2 54 12 C0 F2 40 02 03 46 10 68 13 60 .FJ.T...@..F.h.`
004027C0 00 23 53 60 BD E8 00 88 2D E9 00 48 EB 46 4A F2 .#S`....-..H.FJ.
004027D0 54 12 C0 F2 40 02 03 46 50 68 53 60 00 23 13 60 T...@..FPhS`.#.`
004027E0 BD E8 00 88 2D E9 00 48 EB 46 02 46 04 2A 09 D8 ....-..H.F.F.*..
004027F0 4A F2 0C 03 C0 F2 40 03 53 F8 20 00 43 F8 22 10 J.....@.S. .C.".
00402800 BD E8 00 88 6F F0 00 00 BD E8 00 88 4C F2 00 1C ....o.......L...
00402810 C0 F2 40 0C DC F8 00 F0 03 B4 2D E9 00 48 EB 46 ..@.......-..H.F
00402820 82 B0 04 9B 1B 68 1A 68 1C 4B 9A 42 26 D1 04 9B .....h.h.K.B&...
00402830 1B 68 10 33 1B 68 04 2B 20 D1 04 9B 1B 68 14 33 .h.3.h.+ ....h.3
00402840 1A 68 15 4B 9A 42 14 D0 04 9B 1B 68 14 33 1A 68 .h.K.B.....h.3.h
00402850 10 4B 9A 42 0D D0 04 9B 1B 68 14 33 1A 68 0C 4B .K.B.....h.3.h.K
00402860 9A 42 06 D0 04 9B 1B 68 14 33 1A 68 07 4B 9A 42 .B.....h.3.h.K.B
00402870 04 D1 00 F0 D1 FE 01 23 00 93 01 E0 00 23 00 93 .......#.....#..
00402880 00 98 02 B0 5D F8 04 BB 5D F8 0C FB 00 40 99 01 ....]...]....@..
00402890 22 05 93 19 21 05 93 19 20 05 93 19 63 73 6D E0 "...!... ...csm.
004028A0 00 00 00 00 00 00 00 00 00 00 00 00 00 00 00 00 ................
004028B0 00 00 00 00 00 00 00 00 2D E9 00 48 EB 46 82 B0 ........-..H.F..
004028C0 04 48 00 F0 AF FE 00 23 00 93 00 98 02 B0 BD E8 .H.....#........
004028D0 00 88 FE DE 19 28 40 00 00 00 00 00 00 00 00 00 .....(@.........
004028E0 00 00 00 00 00 00 00 00 00 00 00 00 00 00 00 00 ................
004028F0 4C F2 FC 0C C0 F2 40 0C DC F8 00 F0             L.....@.....   

fn004028FC()
	movw	ip,#&C0F8
	movt	ip,#&40
	ldr.w	pc,[ip]
00402908                         2D E9 00 48 EB 46 82 B0         -..H.F..
00402910 00 23 00 93 00 98 02 B0 BD E8 00 88 4C F2 F4 0C .#..........L...
00402920 C0 F2 40 0C DC F8 00 F0 4C F2 F0 0C C0 F2 40 0C ..@.....L.....@.
00402930 DC F8 00 F0 4C F2 EC 0C C0 F2 40 0C DC F8 00 F0 ....L.....@.....
00402940 4C F2 E8 0C C0 F2 40 0C DC F8 00 F0             L.....@.....   

fn0040294C()
	push	{r0,r1}
	push.w	{fp,lr}
	mov	fp,sp
	sub	sp,#&10
	ldr	r3,[sp,#&18]
	adds	r3,#&3C
	ldr	r2,[sp,#&18]
	ldr	r3,[r3]
	add	r3,r2
	str	r3,[sp,#4]
	movs	r3,#0
	str	r3,[sp,#8]
	ldr	r3,[sp,#4]
	add.w	r2,r3,#&18
	ldr	r3,[sp,#4]
	adds	r3,#&14
	ldrh	r3,[r3]
	add	r3,r2
	str	r3,[sp]
	b	$00402984

l00402978:
	ldr	r3,[sp,#8]
	adds	r3,r3,#1
	str	r3,[sp,#8]
	ldr	r3,[sp]
	adds	r3,#&28
	str	r3,[sp]

l00402984:
	ldr	r3,[sp,#4]
	adds	r3,r3,#6
	ldrh	r2,[r3]
	ldr	r3,[sp,#8]
	cmp	r3,r2
	bhs	$004029BA

l00402990:
	ldr	r3,[sp]
	adds	r3,#&C
	ldr	r2,[sp,#&1C]
	ldr	r3,[r3]
	cmp	r2,r3
	blo	$004029B8

l0040299C:
	ldr	r3,[sp]
	add.w	r2,r3,#&C
	ldr	r3,[sp]
	adds	r3,#8
	ldr	r2,[r2]
	ldr	r3,[r3]
	add	r2,r3
	ldr	r3,[sp,#&1C]
	cmp	r3,r2
	bhs	$004029B8

l004029B2:
	ldr	r3,[sp]
	str	r3,[sp,#&C]
	b	$004029BE

l004029B8:
	b	$00402978

l004029BA:
	movs	r3,#0
	str	r3,[sp,#&C]

l004029BE:
	ldr	r0,[sp,#&C]
	add	sp,#&10
	ldr	fp,[sp],#4
	ldr	pc,[sp],#&C
004029CA                               00 00                       ..   

fn004029CC()
	push	{r0,r1}
	push.w	{r7,fp,lr}
	add.w	fp,sp,#4
	sub	sp,#&3C
	mov	r7,sp
	ldr	r3,[pc,#&7C]
	str	r3,[r7,#4]
	ldr	r0,[r7,#4]
	bl	$00402A8C
	str	r0,[r7,#&14]
	ldr	r3,[r7,#&14]
	cmp	r3,#0
	bne	$004029F6

l004029EC:
	movs	r3,#0
	str	r3,[r7,#&18]
	ldr	r3,[r7,#&18]
	str	r3,[r7]
	b	$00402A4A

l004029F6:
	ldr	r2,[r7,#&48]
	ldr	r3,[r7,#4]
	subs	r3,r2,r3
	str	r3,[r7,#&1C]
	ldr	r1,[r7,#&1C]
	ldr	r0,[r7,#4]
	bl	$0040294C
	str	r0,[r7,#&20]
	ldr	r3,[r7,#&20]
	str	r3,[r7,#8]
	ldr	r3,[r7,#8]
	cmp	r3,#0
	bne	$00402A1C

l00402A12:
	movs	r3,#0
	str	r3,[r7,#&24]
	ldr	r3,[r7,#&24]
	str	r3,[r7]
	b	$00402A4A

l00402A1C:
	ldr	r3,[r7,#8]
	adds	r3,#&24
	ldr	r3,[r3]
	tst.w	r3,#&80000000
	bne	$00402A2E

l00402A28:
	movs	r3,#1
	str	r3,[r7,#&C]
	b	$00402A32

l00402A2E:
	movs	r3,#0
	str	r3,[r7,#&C]

l00402A32:
	ldr	r3,[r7,#&C]
	str	r3,[r7,#&28]
	ldr	r3,[r7,#&28]
	str	r3,[r7]
	b	$00402A4A
00402A3C                                     05 E0 00 23             ...#
00402A40 7B 63 7B 6B 3B 60 00 E0 FF E7                   {c{k;`....     

l00402A4A:
	ldr	r0,[r7]
	add	sp,#&3C
	pop.w	{r7,fp}
	ldr	pc,[sp],#&C
00402A56                   FE DE 00 00 40 00 00 00 00 00       ....@.....
00402A60 00 00 00 00 00 00 00 00 00 00 00 00 00 00 00 00 ................
00402A70 00 00 00 00 00 00 00 00 00 00 00 00 00 00 00 00 ................
00402A80 00 00 00 00 00 00 00 00 00 00 00 00             ............   

fn00402A8C()
	push	{r0,r1}
	push.w	{fp,lr}
	mov	fp,sp
	sub	sp,#&10
	ldr	r3,[sp,#&18]
	str	r3,[sp,#4]
	ldr	r3,[sp,#4]
	ldrh	r2,[r3]
	movw	r3,#&5A4D
	cmp	r2,r3
	beq	$00402AAC

l00402AA6:
	movs	r3,#0
	str	r3,[sp]
	b	$00402AE6

l00402AAC:
	ldr	r3,[sp,#4]
	adds	r3,#&3C
	ldr	r2,[sp,#4]
	ldr	r3,[r3]
	add	r3,r2
	str	r3,[sp,#8]
	ldr	r3,[sp,#8]
	ldr	r2,[r3]
	movw	r3,#&4550
	cmp	r2,r3
	beq	$00402ACA

l00402AC4:
	movs	r3,#0
	str	r3,[sp]
	b	$00402AE6

l00402ACA:
	ldr	r3,[sp,#8]
	adds	r3,#&18
	str	r3,[sp,#&C]
	ldr	r3,[sp,#&C]
	ldrh	r2,[r3]
	movw	r3,#&10B
	cmp	r2,r3
	beq	$00402AE2

l00402ADC:
	movs	r3,#0
	str	r3,[sp]
	b	$00402AE6

l00402AE2:
	movs	r3,#1
	str	r3,[sp]

l00402AE6:
	ldr	r0,[sp]
	add	sp,#&10
	ldr	fp,[sp],#4
	ldr	pc,[sp],#&C
00402AF2       00 00 4C F2 E4 0C C0 F2 40 0C DC F8 00 F0   ..L.....@.....
00402B00 4C F2 E0 0C C0 F2 40 0C DC F8 00 F0 4C F2 DC 0C L.....@.....L...
00402B10 C0 F2 40 0C DC F8 00 F0                         ..@.....       

fn00402B18()
	push.w	{fp,lr}
	mov	fp,sp
	sub	sp,#&28
	movs	r3,#0
	str	r3,[sp,#&10]
	movs	r3,#0
	str	r3,[sp,#&14]
	ldr	r3,[pc,#&9C]
	ldr	r2,[r3]
	ldr	r3,[pc,#&A0]
	cmp	r2,r3
	beq	$00402B3E

l00402B32:
	ldr	r3,[pc,#&94]
	ldr	r3,[r3]
	mvns	r2,r3
	ldr	r3,[pc,#&88]
	str	r2,[r3]
	b	$00402BBE

l00402B3E:
	add	r0,sp,#&10
	ldr	r3,[pc,#&A0]
	ldr	r3,[r3]
	blx	r3
	ldr	r3,[sp,#&10]
	str	r3,[sp]
	ldr	r2,[sp]
	ldr	r3,[sp,#&14]
	eors	r3,r2
	str	r3,[sp]
	ldr	r3,[pc,#&8C]
	ldr	r3,[r3]
	blx	r3
	str	r0,[sp,#4]
	ldr	r2,[sp]
	ldr	r3,[sp,#4]
	eors	r3,r2
	str	r3,[sp]
	ldr	r3,[pc,#&78]
	ldr	r3,[r3]
	blx	r3
	str	r0,[sp,#8]
	ldr	r2,[sp]
	ldr	r3,[sp,#8]
	eors	r3,r2
	str	r3,[sp]
	ldr	r3,[pc,#&64]
	ldr	r3,[r3]
	blx	r3
	str	r1,[sp,#&1C]
	str	r0,[sp,#&18]
	ldr	r2,[sp,#&18]
	ldr	r3,[sp]
	eors	r3,r2
	str	r3,[sp]
	add	r0,sp,#&20
	ldr	r3,[pc,#&4C]
	ldr	r3,[r3]
	blx	r3
	ldr	r2,[sp]
	ldr	r3,[sp,#&20]
	eors	r3,r2
	str	r3,[sp]
	ldr	r2,[sp]
	ldr	r3,[sp,#&24]
	eors	r3,r2
	str	r3,[sp]
	ldr	r2,[sp]
	mov	r3,sp
	eors	r3,r2
	str	r3,[sp]
	ldr	r2,[sp]
	ldr	r3,[pc,#&28]
	cmp	r2,r3
	bne	$00402BB0

l00402BAC:
	ldr	r3,[pc,#&1C]
	str	r3,[sp]

l00402BB0:
	ldr	r2,[sp]
	ldr	r3,[pc,#&14]
	str	r2,[r3]
	ldr	r3,[sp]
	mvns	r2,r3
	ldr	r3,[pc,#8]
	str	r2,[r3]

l00402BBE:
	add	sp,#&28
	pop.w	{fp,pc}
00402BC4             24 A0 40 00 20 A0 40 00 4F E6 40 BB     $.@. .@.O.@.
00402BD0 4E E6 40 BB 48 C0 40 00 38 C0 40 00 44 C0 40 00 N.@.H.@.8.@.D.@.
00402BE0 40 C0 40 00 3C C0 40 00 03 B4 2D E9 00 48 EB 46 @.@.<.@...-..H.F
00402BF0 82 B0 00 23 00 93 00 98 02 B0 5D F8 04 BB 5D F8 ...#......]...].
00402C00 0C FB 00 00 2D E9 10 48 0D F1 04 0B 87 B0 28 4B ....-..H......(K
00402C10 1B 68 00 2B 03 D0 25 4B 1B 68 00 2B 17 D1 24 4B .h.+..%K.h.+..$K
00402C20 1B 68 00 2B 03 D1 21 4B 1B 68 00 2B 0F D0 27 4B .h.+..!K.h.+..'K
00402C30 01 93 25 4B 00 93 00 23 45 22 22 49 02 20 20 4C ..%K...#E""I.  L
00402C40 24 68 A0 47 04 90 04 9B 01 2B 00 D1 FE DE 18 4B $h.G.....+.....K
00402C50 1B 68 00 2B 02 D0 00 23 03 93 22 E0 4D 23 00 93 .h.+...#..".M#..
00402C60 16 4B 02 22 04 21 20 20 13 4C 24 68 A0 47 05 90 .K.".!  .L$h.G..
00402C70 05 9B 02 93 02 98 0F 4B 1B 68 98 47 06 90 06 9A .......K.h.G....
00402C80 0B 4B 1A 60 0A 4B 1A 68 08 4B 1A 60 02 9B 00 2B .K.`.K.h.K.`...+
00402C90 02 D1 18 23 03 93 04 E0 02 9A 00 23 13 60 00 23 ...#.......#.`.#
00402CA0 03 93 03 98 07 B0 BD E8 10 88 FE DE 7C A3 40 00 ............|.@.
00402CB0 8C A3 40 00 4C C0 40 00 98 C0 40 00 14 7B 40 00 ..@.L.@...@..{@.
00402CC0 EC C0 40 00 B8 7A 40 00 B8 78 40 00 F0 79 40 00 ..@..z@..x@..y@.
00402CD0 03 B4 2D E9 80 48 0D F1 04 0B 8D B0 6F 46 00 23 ..-..H......oF.#
00402CE0 BB 60 29 4B 18 68 29 4B 1B 68 98 47 38 61 3B 69 .`)K.h)K.h.G8a;i
00402CF0 3B 60 3B 68 B3 F1 FF 3F 07 D1 38 6C 24 4B 1B 68 ;`;h...?..8l$K.h
00402D00 98 47 78 61 7B 69 FB 60 34 E0 08 20 00 F0 90 FC .Gxa{i.`4.. ....
00402D10 1D 4B 18 68 1D 4B 1B 68 98 47 B8 61 BB 69 3B 60 .K.h.K.h.G.a.i;`
00402D20 17 4B 18 68 19 4B 1B 68 98 47 F8 61 FB 69 7B 60 .K.h.K.h.G.a.i{`
00402D30 38 6C 14 4B 1B 68 98 47 38 62 3A 1D 39 46 38 6A 8l.K.h.G8b:.9F8j
00402D40 00 F0 88 FC 78 62 7B 6A BB 60 38 68 0D 4B 1B 68 ....xb{j.`8h.K.h
00402D50 98 47 B8 62 BA 6A 0C 4B 1A 60 78 68 09 4B 1B 68 .G.b.j.K.`xh.K.h
00402D60 98 47 F8 62 FA 6A 06 4B 1A 60 08 20 00 F0 66 FC .G.b.j.K.`. ..f.
00402D70 BB 68 FB 60 F8 68 0D B0 BD E8 80 08 5D F8 0C FB .h.`.h......]...
00402D80 7C A3 40 00 4C C0 40 00 8C A3 40 00 34 C0 40 00 |.@.L.@...@.4.@.
00402D90 04 C1 40 00 00 00 00 00 00 00 00 00 00 00 00 00 ..@.............
00402DA0 00 00 00 00 00 00 00 00 00 00 00 00 00 00 00 00 ................
00402DB0 00 00 00 00 00 00 00 00 00 00 00 00 00 00 00 00 ................
00402DC0 00 00 00 00 00 00 00 00 00 00 00 00 00 00 00 00 ................
00402DD0 00 00 00 00 00 00 00 00 00 00 00 00 03 B4 2D E9 ..............-.
00402DE0 00 48 EB 46 84 B0 06 98 FF F7 72 FF 01 90 01 9B .H.F......r.....
00402DF0 00 2B 03 D1 6F F0 00 03 00 93 01 E0 00 23 00 93 .+..o........#..
00402E00 00 9B 02 93 02 98 04 B0 5D F8 04 BB 5D F8 0C FB ........]...]...
00402E10 00 00 00 00 00 00 00 00 00 00 00 00 00 00 00 00 ................
00402E20 00 00 00 00 00 00 00 00 2D E9 30 48 0D F1 08 0B ........-.0H....
00402E30 48 F2 9C 73 C0 F2 40 03 48 F6 A4 15 C0 F2 40 05 H..s..@.H.....@.
00402E40 1C 1D 1B 1D AB 42 05 D2 54 F8 04 3B 03 B1 98 47 .....B..T..;...G
00402E50 AC 42 F9 D3 BD E8 30 88 2D E9 30 48 0D F1 08 0B .B....0.-.0H....
00402E60 48 F6 A8 23 C0 F2 40 03 48 F6 B0 45 C0 F2 40 05 H..#..@.H..E..@.
00402E70 1C 1D 1B 1D AB 42 05 D2 54 F8 04 3B 03 B1 98 47 .....B..T..;...G
00402E80 AC 42 F9 D3 BD E8 30 88 4C F2 D8 0C C0 F2 40 0C .B....0.L.....@.
00402E90 DC F8 00 F0 4C F2 D4 0C C0 F2 40 0C DC F8 00 F0 ....L.....@.....

fn00402EA0()
	movw	ip,#&C0D0
	movt	ip,#&40
	ldr.w	pc,[ip]

fn00402EAC()
	movw	ip,#&C0CC
	movt	ip,#&40
	ldr.w	pc,[ip]
00402EB8                         4C F2 C8 0C C0 F2 40 0C         L.....@.
00402EC0 DC F8 00 F0 2D E9 90 48 0D F1 08 0B 88 B0 6F 46 ....-..H......oF
00402ED0 00 23 3B 70 41 F2 01 03 BB 60 F8 60 3B 46 3B 61 .#;pA....`.`;F;a
00402EE0 17 F1 08 03 06 22 00 21 06 48 4C F2 2C 04 C0 F2 .....".!.HL.,...
00402EF0 40 04 24 68 A0 47 38 78 00 E0 78 68 08 B0 BD E8 @.$h.G8x..xh....
00402F00 90 88 FE DE 88 13 6D 40 2D E9 90 48 0D F1 08 0B ......m@-..H....
00402F10 88 B0 6F 46 00 24 3C 70 41 F2 02 04 BC 60 F8 60 ..oF.$<pA....`.`
00402F20 39 61 7A 61 3A 46 BA 61 FB 61 17 F1 08 03 06 22 9aza:F.a.a....."
00402F30 00 21 06 48 4C F2 2C 04 C0 F2 40 04 24 68 A0 47 .!.HL.,...@.$h.G
00402F40 38 78 00 E0 78 68 08 B0 BD E8 90 88 88 13 6D 40 8x..xh........m@
00402F50 2D E9 F0 48 0D F1 10 0B FE F7 64 F8 D9 B0 4A F2 -..H......d...J.
00402F60 0C 03 C0 F2 40 03 0E 46 07 46 1D 69 B5 F1 FF 3F ....@..F.F.i...?
00402F70 57 D0 26 B9 47 F6 B0 73 C0 F2 40 03 4C E0 47 F6 W.&.G..s..@.L.G.
00402F80 FC 73 C0 F2 40 03 05 92 48 F2 98 02 C0 F2 40 02 .s..@...H.....@.
00402F90 06 93 48 F2 08 03 C0 F2 40 03 06 F1 20 04 1C A8 ..H.....@... ...
00402FA0 04 93 F3 68 F4 21 01 94 24 3B 03 93 48 F2 34 03 ...h.!..$;..H.4.
00402FB0 C0 F2 40 03 02 93 48 F2 3C 03 C0 F2 40 03 00 93 ..@...H.<...@...
00402FC0 48 F2 50 03 C0 F2 40 03 00 F0 AA FE F3 68 0E A9 H.P...@......h..
00402FD0 08 A8 24 3B 22 46 00 F0 31 F9 1C A8 00 F0 6C F9 ..$;"F..1.....l.
00402FE0 04 46 1C A8 00 F0 68 F9 48 F2 AC 03 C0 F2 40 03 .F....h.H.....@.
00402FF0 48 F2 B4 02 C0 F2 40 02 C4 F1 F4 01 02 93 0E AB H.....@.........
00403000 01 93 48 F2 B0 03 C0 F2 40 03 1C AC 20 44 00 93 ..H.....@... D..
00403010 08 AB 00 F0 85 FE 1C AB 04 22 29 46 38 46 00 F0 .........")F8F..
00403020 57 F9 59 B0 FE F7 0A F8 BD E8 F0 88 00 00 00 00 W.Y.............
00403030 00 00 00 00 00 00 00 00 00 00 00 00 00 00 00 00 ................
00403040 00 00 00 00 00 00 00 00 00 00 00 00 00 00 00 00 ................
00403050 00 00 00 00 00 00 00 00 00 00 00 00 00 00 00 00 ................
00403060 00 00 00 00 00 00 00 00 00 00 00 00 00 00 00 00 ................
00403070 00 00 00 00 00 00 00 00 00 00 00 00 00 00 00 00 ................
00403080 00 00 00 00 00 00 00 00 00 00 00 00 00 00 00 00 ................
00403090 00 00 00 00 00 00 00 00 00 00 00 00 00 00 00 00 ................
004030A0 00 00 00 00 00 00 00 00 00 00 00 00 00 00 00 00 ................
004030B0 00 00 00 00 00 00 00 00 00 00 00 00 2D E9 18 48 ............-..H
004030C0 0D F1 08 0B 04 29 14 D8 4A F2 0C 03 C0 F2 40 03 .....)..J.....@.
004030D0 53 F8 21 40 47 F6 44 33 C0 F2 40 03 B4 F1 FF 3F S.!@G.D3..@....?
004030E0 53 F8 21 30 10 D0 0A 46 21 46 00 F0 F1 F8 BD E8 S.!0...F!F......
004030F0 18 88 47 F6 44 33 C0 F2 40 03 01 24 05 21 5B 69 ..G.D3..@..$.![i
00403100 0A 46 21 46 00 F0 E4 F8 BD E8 18 88 00 00 00 00 .F!F............
00403110 00 00 00 00 00 00 00 00 00 00 00 00 00 00 00 00 ................
00403120 00 00 00 00 2D E9 F0 49 0D F1 14 0B FD F7 7A FF ....-..I......z.
00403130 AD F5 80 6D 4A F2 0C 03 C0 F2 40 03 0C 46 80 46 ...mJ.....@..F.F
00403140 9F 68 B7 F1 FF 3F 37 D0 91 F9 00 30 53 B3 08 46 .h...?7....0S..F
00403150 00 F0 B2 F8 00 F1 2D 03 B3 F5 80 6F 22 D8 47 F6 ......-....o".G.
00403160 74 35 C0 F2 40 05 68 46 6E 46 29 46 00 F0 2E FE t5..@.hFnF)F....
00403170 68 46 42 1E 12 F8 01 3F 00 2B FB D1 14 F8 01 3B hFB....?.+.....;
00403180 00 2B 02 F8 01 3B F9 D1 05 F1 1C 01 42 1E 12 F8 .+...;......B...
00403190 01 3F 00 2B FB D1 11 F8 01 3B 00 2B 02 F8 01 3B .?.+.....;.+...;
004031A0 F9 D1 03 E0 47 F6 80 76 C0 F2 40 06 33 46 02 22 ....G..v..@.3F."
004031B0 39 46 40 46 00 F0 8C F8 0D F5 80 6D FD F7 3E FF 9F@F.......m..>.
004031C0 BD E8 F0 89 00 00 00 00 00 00 00 00 00 00 00 00 ................
004031D0 00 00 00 00 00 00 00 00 00 00 00 00 00 00 00 00 ................
004031E0 00 00 00 00 00 00 00 00 00 00 00 00 00 00 00 00 ................
004031F0 00 00 00 00 00 00 00 00 00 00 00 00 00 00 00 00 ................
00403200 00 00 00 00 00 00 00 00 00 00 00 00 00 00 00 00 ................
00403210 00 00 00 00 00 00 00 00 00 00 00 00 00 00 00 00 ................
00403220 00 00 00 00 00 00 00 00 00 00 00 00 00 00 00 00 ................
00403230 00 00 00 00 00 00 00 00 00 00 00 00 2D E9 FE 4F ............-..O
00403240 0D F1 28 0B 1E 46 00 25 00 27 13 1A 00 93 9A 46 ..(..F.%.'.....F
00403250 88 46 01 90 81 46 10 2E 38 BF 32 46 28 BF 10 22 .F...F..8.2F(.."
00403260 95 42 11 D2 1A F8 09 40 47 F6 A8 72 C0 F2 40 02 .B.....@G..r..@.
00403270 C7 F1 31 01 23 46 07 EB 08 00 00 F0 51 FD 6D 1C ..1.#F......Q.m.
00403280 FF 1C 09 F8 01 4B E6 E7 DD F8 04 A0 00 22 05 EB .....K......."..
00403290 45 03 05 F8 0A 20 03 F8 08 20 BD E8 FE 8F 00 00 E.... ... ......
004032A0 00 00 00 00 00 00 00 00 00 00 00 00 00 00 00 00 ................
004032B0 00 00 00 00 00 00 00 00 2D E9 00 48 EB 46 02 46 ........-..H.F.F
004032C0 12 F9 01 3B 00 2B FB D1 13 1A 58 1E BD E8 00 88 ...;.+....X.....
004032D0 2D E9 F0 4F 0D F1 1C 0B FD F7 A4 FE AD F6 48 6D -..O..........Hm
004032E0 98 46 05 93 91 46 8A 46 06 46 00 27 FF F7 3A FA .F...F.F.F.'..:.
004032F0 05 46 1D B9 30 46 FF F7 2B FA 07 46 4C F2 28 04 .F..0F..+..FL.(.
00403300 C0 F2 40 04 00 23 01 93 24 68 00 93 DB 43 42 46 ..@..#..$h...CBF
00403310 00 21 4F F6 E9 50 A0 47 B0 F5 00 7F 13 D2 4C F2 .!O..P.G......L.
00403320 28 04 C0 F2 40 04 0D F6 48 23 01 90 24 68 00 93 (...@...H#..$h..
00403330 6F F0 00 03 42 46 00 21 4F F6 E9 50 A0 47 10 B1 o...BF.!O..P.G..
00403340 0D F6 48 24 03 E0 47 F6 88 64 C0 F2 40 04 41 F2 ..H$..G..d..@.A.
00403350 02 00 FF F7 B7 FD 70 B1 47 F6 5C 33 C0 F2 40 03 ......p.G.\3..@.
00403360 32 46 48 46 53 F8 29 10 23 46 FF F7 CD FD 00 28 2FHFS.).#F.....(
00403370 6E D1 00 23 00 E0 01 23 0F B9 00 2D 67 D0 3B B1 n..#...#...-g.;.
00403380 4C F2 30 03 C0 F2 40 03 1B 68 98 47 00 28 5E D1 L.0...@..h.G.(^.
00403390 06 AB 00 93 4F F4 82 72 04 AB 88 A9 30 1F 01 92 ....O..r....0...
004033A0 00 F0 4E FB 6D B1 47 F6 F8 63 C0 F2 40 03 04 9A ..N.m.G..c..@...
004033B0 50 46 00 93 06 AB 88 A9 02 94 CD F8 04 90 A8 47 PF.............G
004033C0 43 E0 4C F2 24 04 C0 F2 40 04 00 23 0D F5 85 62 C.L.$...@..#...b
004033D0 24 68 47 F6 38 76 C0 F2 40 06 03 93 02 93 40 F2 $hG.8v..@.....@.
004033E0 0A 38 00 92 DB 43 88 AA 00 21 4F F6 E9 50 CD F8 .8...C...!O..P..
004033F0 04 80 A0 47 08 B1 0D F5 85 66 4C F2 24 04 C0 F2 ...G.....fL.$...
00403400 40 04 00 23 0D F5 E7 62 24 68 47 F6 4C 75 C0 F2 @..#...b$hG.Lu..
00403410 40 05 03 93 02 93 00 92 DB 43 06 AA 00 21 4F F6 @........C...!O.
00403420 E9 50 CD F8 04 80 A0 47 08 B1 0D F5 E7 65 47 F6 .P.....G.....eG.
00403430 60 72 C0 F2 40 02 05 9B 31 46 00 92 04 9A 02 93 `r..@...1F......
00403440 2B 46 50 46 CD F8 04 90 B8 47 01 28 00 D1 FE DE +FPF.....G.(....
00403450 0D F6 48 6D FD F7 F2 FD BD E8 F0 8F 00 00 00 00 ..Hm............
00403460 00 00 00 00 00 00 00 00 00 00 00 00 00 00 00 00 ................
00403470 00 00 00 00 00 00 00 00 00 00 00 00 00 00 00 00 ................
00403480 00 00 00 00 00 00 00 00 00 00 00 00 00 00 00 00 ................
00403490 00 00 00 00 00 00 00 00 00 00 00 00 00 00 00 00 ................
004034A0 00 00 00 00 00 00 00 00 00 00 00 00 00 00 00 00 ................
004034B0 00 00 00 00 00 00 00 00 00 00 00 00 00 00 00 00 ................
004034C0 00 00 00 00 00 00 00 00 00 00 00 00 00 00 00 00 ................
004034D0 00 00 00 00 00 00 00 00 00 00 00 00 00 00 00 00 ................
004034E0 00 00 00 00 00 00 00 00 00 00 00 00 00 00 00 00 ................
004034F0 00 00 00 00 00 00 00 00 00 00 00 00 00 00 00 00 ................
00403500 00 00 00 00 2D E9 F0 48 0D F1 10 0B FD F7 8A FD ....-..H........
00403510 AD F2 04 4D 4A F2 0C 03 C0 F2 40 03 04 46 DF 68 ...MJ.....@..F.h
00403520 B7 F1 FF 3F 35 D0 4C B3 FF F7 C6 FE 00 F1 3A 03 ...?5.L.......:.
00403530 B3 F5 80 6F 22 D8 47 F6 A4 35 C0 F2 40 05 68 46 ...o".G..5..@.hF
00403540 6E 46 29 46 00 F0 42 FC 68 46 42 1E 12 F8 01 3F nF)F..B.hFB....?
00403550 00 2B FB D1 14 F8 01 3B 00 2B 02 F8 01 3B F9 D1 .+.....;.+...;..
00403560 05 F1 10 01 42 1E 12 F8 01 3F 00 2B FB D1 11 F8 ....B....?.+....
00403570 01 3B 00 2B 02 F8 01 3B F9 D1 03 E0 48 F2 C0 06 .;.+...;....H...
00403580 C0 F2 40 06 DD F8 1C 04 33 46 03 22 39 46 FF F7 ..@.....3F."9F..
00403590 9F FE 0D F2 04 4D FD F7 51 FD BD E8 F0 88 00 00 .....M..Q.......
004035A0 00 00 00 00 00 00 00 00 00 00 00 00 00 00 00 00 ................
004035B0 00 00 00 00 00 00 00 00 00 00 00 00 00 00 00 00 ................
004035C0 00 00 00 00 00 00 00 00 00 00 00 00 00 00 00 00 ................
004035D0 00 00 00 00 00 00 00 00 00 00 00 00 00 00 00 00 ................
004035E0 00 00 00 00 00 00 00 00 00 00 00 00 00 00 00 00 ................
004035F0 00 00 00 00 00 00 00 00 00 00 00 00 00 00 00 00 ................
00403600 00 00 00 00 00 00 00 00 00 00 00 00 00 00 00 00 ................
00403610 00 00 00 00 00 00 00 00 4C F2 B8 0C C0 F2 40 0C ........L.....@.
00403620 DC F8 00 F0 4C F2 A0 0C C0 F2 40 0C DC F8 00 F0 ....L.....@.....
00403630 4C F2 90 0C C0 F2 40 0C DC F8 00 F0 4C F2 94 0C L.....@.....L...
00403640 C0 F2 40 0C DC F8 00 F0 4C F2 98 0C C0 F2 40 0C ..@.....L.....@.
00403650 DC F8 00 F0 4C F2 9C 0C C0 F2 40 0C DC F8 00 F0 ....L.....@.....
00403660 2D E9 00 48 EB 46 FD F7 DD FC AD F2 14 4D 4A F2 -..H.F.......MJ.
00403670 70 12 C0 F2 40 02 13 78 33 B1 00 20 0D F2 14 4D p...@..x3.. ...M
00403680 FD F7 DC FC BD E8 00 88 01 23 13 70 00 F0 6E F8 .........#.p..n.
00403690 00 28 F3 D1 4C F2 04 03 C0 F2 40 03 48 F2 34 10 .(..L.....@.H.4.
004036A0 C0 F2 40 00 1B 68 98 47 E0 B1 4C F2 08 03 C0 F2 ..@..h.G..L.....
004036B0 40 03 4F F4 82 72 69 46 1B 68 98 47 90 B1 82 A9 @.O..riF.h.G....
004036C0 68 46 4F F4 82 72 00 F0 35 F9 58 B1 4C F2 50 03 hFO..r..5.X.L.P.
004036D0 C0 F2 40 03 4F F4 10 62 00 21 1B 68 82 A8 98 47 ..@.O..b.!.h...G
004036E0 00 28 CB D1 4C F2 50 03 C0 F2 40 03 48 F2 58 20 .(..L.P...@.H.X 
004036F0 C0 F2 40 00 4F F4 20 62 1B 68 00 21 98 47 0D F2 ..@.O. b.h.!.G..
00403700 14 4D FD F7 9B FC BD E8 00 88 00 00 00 00 00 00 .M..............
00403710 00 00 00 00 00 00 00 00 00 00 00 00 00 00 00 00 ................
00403720 00 00 00 00 00 00 00 00 00 00 00 00 00 00 00 00 ................
00403730 00 00 00 00 00 00 00 00 00 00 00 00 00 00 00 00 ................
00403740 00 00 00 00 00 00 00 00 00 00 00 00 00 00 00 00 ................
00403750 00 00 00 00 00 00 00 00 00 00 00 00 00 00 00 00 ................
00403760 00 00 00 00 00 00 00 00 00 00 00 00 2D E9 F0 48 ............-..H
00403770 0D F1 10 0B FD F7 56 FC AD F5 09 7D 4C F2 50 03 ......V....}L.P.
00403780 C0 F2 40 03 48 F2 50 10 C0 F2 40 00 4F F4 00 62 ..@.H.P...@.O..b
00403790 1B 68 00 21 98 47 05 46 AD B9 4C F2 20 03 C0 F2 .h.!.G.F..L. ...
004037A0 40 03 1B 68 98 47 57 28 48 D1 4C F2 50 03 C0 F2 @..h.GW(H.L.P...
004037B0 40 03 48 F2 50 10 C0 F2 40 00 00 22 1B 68 00 21 @.H.P...@..".h.!
004037C0 98 47 05 46 D5 B3 4C F2 00 03 C0 F2 40 03 48 F2 .G.F..L.....@.H.
004037D0 98 11 C0 F2 40 01 28 46 1B 68 98 47 04 46 6C B3 ....@.(F.h.G.Fl.
004037E0 4C F2 00 03 C0 F2 40 03 48 F2 A8 11 C0 F2 40 01 L.....@.H.....@.
004037F0 28 46 1B 68 98 47 06 46 06 B3 4C F2 00 03 C0 F2 (F.h.G.F..L.....
00403800 40 03 48 F2 BC 11 C0 F2 40 01 28 46 1B 68 98 47 @.H.....@.(F.h.G
00403810 07 46 9F B1 48 F2 C8 11 C0 F2 40 01 03 AB 4F F0 .F..H.....@...O.
00403820 00 40 00 93 01 23 00 22 80 1C A0 47 68 B1 4C F2 .@...#."...Gh.L.
00403830 0C 03 C0 F2 40 03 28 46 1B 68 98 47 00 20 0D F5 ....@.(F.h.G. ..
00403840 09 7D FD F7 FB FB BD E8 F0 88 4F F4 02 73 02 93 .}........O..s..
00403850 02 AB 01 93 48 F2 24 21 C0 F2 40 01 03 98 06 AB ....H.$!..@.....
00403860 00 93 04 AB 00 22 B0 47 04 46 03 98 B8 47 4C F2 .....".G.F...GL.
00403870 0C 03 C0 F2 40 03 28 46 1B 68 98 47 00 2C DD D1 ....@.(F.h.G.,..
00403880 04 9B 01 2B DA D1 02 9B 13 F0 01 0F D6 D1 5A 08 ...+..........Z.
00403890 02 2A D3 D3 52 1E 06 AB 03 EB 42 01 33 F8 12 30 .*..R.....B.3..0
004038A0 00 2B CB D1 31 F8 02 3C 5C 2B 02 D0 5C 23 0B 80 .+..1..<\+..\#..
004038B0 52 1C C2 F1 FF 33 12 2B C0 D3 02 F1 11 03 B3 F5 R....3.+........
004038C0 82 7F BB D8 06 AB 03 EB 42 02 48 F2 10 11 C0 F2 ........B.H.....
004038D0 40 01 02 F1 22 00 31 F8 02 3B 22 F8 02 3B 82 42 @...".1..;"..;.B
004038E0 F9 D1 4C F2 50 03 C0 F2 40 03 00 21 4F F4 10 62 ..L.P...@..!O..b
004038F0 1B 68 06 A8 98 47 0D F5 09 7D FD F7 9F FB BD E8 .h...G...}......
00403900 F0 88 00 00 00 00 00 00 00 00 00 00 00 00 00 00 ................
00403910 00 00 00 00 00 00 00 00 00 00 00 00 00 00 00 00 ................
00403920 00 00 00 00 00 00 00 00 00 00 00 00 00 00 00 00 ................
00403930 00 00 00 00 2D E9 70 48 0D F1 0C 0B FD F7 72 FB ....-.pH......r.
00403940 AD F5 C4 6D 08 AB 03 93 88 AB 01 93 15 46 0E 46 ...m.........F.F
00403950 4F F4 80 74 0D F5 84 63 06 A9 03 22 04 94 02 94 O..t...c..."....
00403960 00 94 00 F0 45 FA 30 B1 00 20 0D F5 C4 6D FD F7 ....E.0.. ...m..
00403970 65 FB BD E8 70 88 48 F2 44 22 C0 F2 40 02 88 A8 e...p.H.D"..@...
00403980 09 21 00 F0 29 FA 00 28 EE D1 48 F2 3C 22 C0 F2 .!..)..(..H.<"..
00403990 40 02 08 A8 04 21 00 F0 1F FA 00 28 E4 D1 08 AB @....!.....(....
004039A0 01 93 88 AB 00 93 0D F5 84 63 06 AA 29 46 30 46 .........c..)F0F
004039B0 00 F0 18 FA 00 28 D7 D1 01 20 0D F5 C4 6D FD F7 .....(... ...m..
004039C0 3D FB BD E8 70 88 00 00 00 00 00 00 00 00 00 00 =...p...........
004039D0 00 00 00 00 00 00 00 00 00 00 00 00 00 00 00 00 ................
004039E0 00 00 00 00 00 00 00 00 00 00 00 00 00 00 00 00 ................
004039F0 00 00 00 00 00 00 00 00 00 00 00 00 00 00 00 00 ................
00403A00 00 00 00 00 00 00 00 00 00 00 00 00 00 00 00 00 ................
00403A10 00 00 00 00 00 00 00 00 00 00 00 00 00 00 00 00 ................
00403A20 00 00 00 00 00 00 00 00 00 00 00 00 00 00 00 00 ................
00403A30 00 00 00 00 00 00 00 00 00 00 00 00 00 00 00 00 ................
00403A40 0F B4 2D E9 F0 4F 0D F1 1C 0B 97 B0 4C F2 10 04 ..-..O......L...
00403A50 C0 F2 40 04 05 46 4F F0 00 08 24 68 C3 F8 00 80 ..@..FO...$h....
00403A60 6D 1E 0D 91 A1 F8 00 80 1C 22 10 A9 28 46 0C 93 m........"..(F..
00403A70 A0 47 30 B9 00 26 30 46 17 B0 BD E8 F0 0F 5D F8 .G0..&0F......].
00403A80 14 FB 4C F2 08 03 C0 F2 40 03 25 9A 24 99 1B 68 ..L.....@.%.$..h
00403A90 11 98 98 47 00 28 ED D0 11 99 45 F6 4D 23 0A 88 ...G.(....E.M#..
00403AA0 9A 42 E7 D1 CB 6B 00 2B E4 DD 5A 58 5C 18 44 F2 .B...k.+..ZX\.D.
00403AB0 50 53 9A 42 DE D1 A3 8A E0 88 69 1A 23 44 00 27 PS.B......i.#D.'
00403AC0 00 25 60 B1 03 F1 18 02 D3 68 99 42 03 D3 CF 1A .%`......h.B....
00403AD0 93 68 99 42 03 D3 6D 1C 28 32 85 42 F4 D3 85 42 .h.B..m.(2.B...B
00403AE0 C8 D0 4A F2 71 16 C0 F2 40 06 4A F2 6C 14 C0 F2 ..J.q...@.J.l...
00403AF0 40 04 6D 1C 33 78 53 B9 23 68 00 2B BA D1 FF F7 @.m.3xS.#h.+....
00403B00 AF FD 20 60 00 28 B5 D0 01 23 33 70 00 E0 20 68 .. `.(...#3p.. h
00403B10 4C F2 00 03 C0 F2 40 03 48 F2 6C 21 C0 F2 40 01 L.....@.H.l!..@.
00403B20 1B 68 98 47 04 46 00 2C A4 D0 08 AB 03 93 24 98 .h.G.F.,......$.
00403B30 0F AB 00 93 00 23 00 22 00 21 CD F8 08 80 CD F8 .....#.".!......
00403B40 04 80 A0 47 00 28 95 D0 08 9B 00 26 18 46 1B 68 ...G.(.....&.F.h
00403B50 1B 68 98 47 6B 4B 98 42 40 F0 C8 80 08 9C 48 F2 .h.GkK.B@.....H.
00403B60 80 22 C0 F2 40 02 0A AB 20 46 24 68 00 21 E4 69 ."..@... F$h.!.i
00403B70 A0 47 00 28 00 F0 BA 80 0A 9C 07 AB 3A 46 20 46 .G.(........:F F
00403B80 24 68 A9 B2 CD F8 08 80 24 6A CD F8 04 80 CD F8 $h......$j......
00403B90 00 80 A0 47 00 28 00 F0 A4 80 00 23 05 93 07 9B ...G.(.....#....
00403BA0 05 A9 18 46 1B 68 9B 6E 98 47 00 28 00 F0 94 80 ...F.h.n.G.(....
00403BB0 05 9B 00 2B 00 F0 90 80 18 46 1B 68 B0 46 9B 68 ...+.....F.h.F.h
00403BC0 98 47 00 28 75 D0 0D F1 18 09 0D F1 2C 0A 05 9C .G.(u.......,...
00403BD0 00 23 02 93 20 46 24 68 04 AB 09 AA E4 68 00 21 .#.. F$h.....h.!
00403BE0 CD F8 04 90 CD F8 00 A0 A0 47 00 28 6F D0 BD F8 .........G.(o...
00403BF0 10 30 AB 42 06 D1 09 9A BA 42 03 D8 0B 9B 13 44 .0.B.....B.....D
00403C00 9F 42 07 D3 05 9B 18 46 1B 68 9B 68 98 47 00 28 .B.....F.h.h.G.(
00403C10 DD D1 4E E0 06 9A 00 2A 59 D0 6F F0 60 43 9A 42 ..N....*Y.o.`C.B
00403C20 55 D2 4C F2 14 03 C0 F2 40 03 1B 68 98 47 06 9B U.L.....@..h.G..
00403C30 00 21 DA 00 4C F2 1C 03 C0 F2 40 03 1B 68 98 47 .!..L.....@..h.G
00403C40 80 46 00 28 43 D0 05 9C 02 90 06 AB 20 46 24 68 .F.(C....... F$h
00403C50 01 93 00 25 E4 68 00 23 00 22 0E A9 00 95 A0 47 ...%.h.#.".....G
00403C60 38 B3 09 9B FC 1A D8 F8 00 30 9C 42 21 D3 06 98 8........0.B!...
00403C70 01 22 01 28 08 D9 08 F1 08 01 51 F8 08 3B 9C 42 .".(......Q..;.B
00403C80 02 D3 52 1C 82 42 F8 D3 08 EB C2 03 53 F8 04 3C ..R..B......S..<
00403C90 0C 9A 07 9C 23 F0 7F 43 13 60 20 46 24 68 0D 9A ....#..C.` F$h..
00403CA0 0E 99 24 6F 22 AB 02 95 01 95 00 95 A0 47 00 B1 ..$o"........G..
00403CB0 01 26 4C F2 14 03 C0 F2 40 03 1B 68 98 47 4C F2 .&L.....@..h.GL.
00403CC0 18 03 C0 F2 40 03 42 46 00 21 1B 68 98 47 05 9B ....@.BF.!.h.G..
00403CD0 18 46 1B 68 1B 68 98 47 07 9B 18 46 1B 68 1B 6C .F.h.h.G...F.h.l
00403CE0 98 47 0A 9B 18 46 1B 68 9B 6B 98 47 08 9B 18 46 .G...F.h.k.G...F
00403CF0 1B 68 DB 6A 98 47 30 46 17 B0 BD E8 F0 0F 5D F8 .h.j.G0F......].
00403D00 14 FB FE DE 41 91 32 01 00 00 00 00 00 00 00 00 ....A.2.........
00403D10 00 00 00 00 00 00 00 00 00 00 00 00 00 00 00 00 ................
00403D20 4C F2 A4 0C C0 F2 40 0C DC F8 00 F0 0F B4 2D E9 L.....@.......-.
00403D30 00 48 EB 46 82 B0 07 9B 1C 33 1A 68 07 99 05 98 .H.F.....3.h....
00403D40 00 F0 14 F8 01 23 00 93 00 98 02 B0 5D F8 04 BB .....#......]...
00403D50 5D F8 14 FB 00 00 00 00 00 00 00 00 00 00 00 00 ]...............
00403D60 00 00 00 00 00 00 00 00 00 00 00 00 0F B4 2D E9 ..............-.
00403D70 00 48 EB 46 84 B0 08 9B 1B 68 23 F0 03 03 02 93 .H.F.....h#.....
00403D80 06 9B 01 93 01 9A 02 9B 13 44 1B 68 00 93 08 9B .........D.h....
00403D90 1B 68 13 F0 01 0F 05 D0 01 9A 02 9B 1A 44 00 9B .h...........D..
00403DA0 D3 1A 00 93 00 98 FD F7 6F F9 04 B0 5D F8 04 BB ........o...]...
00403DB0 5D F8 14 FB 00 00 00 00 00 00 00 00 00 00 00 00 ]...............
00403DC0 00 00 00 00 00 00 00 00 00 00 00 00 4C F2 A8 0C ............L...
00403DD0 C0 F2 40 0C DC F8 00 F0 4C F2 AC 0C C0 F2 40 0C ..@.....L.....@.
00403DE0 DC F8 00 F0 4C F2 B0 0C C0 F2 40 0C DC F8 00 F0 ....L.....@.....
00403DF0 4C F2 B4 0C C0 F2 40 0C DC F8 00 F0 03 B4 2D E9 L.....@.......-.
00403E00 00 48 EB 46 02 20 FB DE 2D E9 00 48 EB 46 08 20 .H.F. ..-..H.F. 
00403E10 00 F0 0E F8 FE DE 00 00 00 00 00 00 00 00 00 00 ................
00403E20 00 00 00 00 00 00 00 00 00 00 00 00 00 00 00 00 ................
00403E30 03 B4 2D E9 00 48 EB 46 02 98 FB DE 0F B4 2D E9 ..-..H.F......-.
00403E40 00 48 EB 46 02 98 FB DE 4C F2 4C 0C C0 F2 40 0C .H.F....L.L...@.
00403E50 DC F8 00 F0 4C F2 48 0C C0 F2 40 0C DC F8 00 F0 ....L.H...@.....
00403E60 4C F2 44 0C C0 F2 40 0C DC F8 00 F0 4C F2 40 0C L.D...@.....L.@.
00403E70 C0 F2 40 0C DC F8 00 F0 4C F2 3C 0C C0 F2 40 0C ..@.....L.<...@.
00403E80 DC F8 00 F0 4C F2 38 0C C0 F2 40 0C DC F8 00 F0 ....L.8...@.....
00403E90 4C F2 34 0C C0 F2 40 0C DC F8 00 F0 4C F2 30 0C L.4...@.....L.0.
00403EA0 C0 F2 40 0C DC F8 00 F0 4C F2 2C 0C C0 F2 40 0C ..@.....L.,...@.
00403EB0 DC F8 00 F0 4C F2 28 0C C0 F2 40 0C DC F8 00 F0 ....L.(...@.....
00403EC0 4C F2 24 0C C0 F2 40 0C DC F8 00 F0 4C F2 20 0C L.$...@.....L. .
00403ED0 C0 F2 40 0C DC F8 00 F0 4C F2 1C 0C C0 F2 40 0C ..@.....L.....@.
00403EE0 DC F8 00 F0 4C F2 18 0C C0 F2 40 0C DC F8 00 F0 ....L.....@.....
00403EF0 4C F2 14 0C C0 F2 40 0C DC F8 00 F0 4C F2 10 0C L.....@.....L...
00403F00 C0 F2 40 0C DC F8 00 F0 4C F2 0C 0C C0 F2 40 0C ..@.....L.....@.
00403F10 DC F8 00 F0 4C F2 08 0C C0 F2 40 0C DC F8 00 F0 ....L.....@.....
00403F20 4C F2 04 0C C0 F2 40 0C DC F8 00 F0 4C F2 00 0C L.....@.....L...
00403F30 C0 F2 40 0C DC F8 00 F0 4C F2 50 0C C0 F2 40 0C ..@.....L.P...@.
00403F40 DC F8 00 F0 00 00 00 00 00 00 00 00 00 00 00 00 ................
00403F50 00 00 00 00 00 00 00 00 00 00 00 00 00 00 00 00 ................
00403F60 00 00 00 00 00 00 00 00 00 00 00 00 00 00 00 00 ................
00403F70 00 00 00 00 00 00 00 00 00 00 00 00 00 00 00 00 ................
00403F80 00 00 00 00 00 00 00 00 00 00 00 00 00 00 00 00 ................
00403F90 00 00 00 00 00 00 00 00 00 00 00 00 00 00 00 00 ................
00403FA0 00 00 00 00 00 00 00 00 00 00 00 00 00 00 00 00 ................
00403FB0 00 00 00 00 00 00 00 00 00 00 00 00 00 00 00 00 ................
00403FC0 00 00 00 00 00 00 00 00 00 00 00 00 00 00 00 00 ................
00403FD0 00 00 00 00 00 00 00 00 00 00 00 00 00 00 00 00 ................
00403FE0 00 00 00 00 00 00 00 00 00 00 00 00 00 00 00 00 ................
00403FF0 00 00 00 00 00 00 00 00 00 00 00 00 00 00 00 00 ................
00404000 00 00 00 00 00 00 00 00 00 00 00 00 00 00 00 00 ................
00404010 00 00 00 00 00 00 00 00 00 00 00 00 00 00 00 00 ................
00404020 00 00 00 00 00 00 00 00 00 00 00 00 00 00 00 00 ................
00404030 00 00 00 00 00 00 00 00 00 00 00 00 00 00 00 00 ................
00404040 00 00 00 00 00 00 00 00 00 00 00 00 00 00 00 00 ................
00404050 00 00 00 00 00 00 00 00 00 00 00 00 00 00 00 00 ................
00404060 00 00 00 00 00 00 00 00 00 00 00 00 00 00 00 00 ................
00404070 00 00 00 00 00 00 00 00 00 00 00 00 00 00 00 00 ................
00404080 00 00 00 00 00 00 00 00 00 00 00 00 00 00 00 00 ................
00404090 00 00 00 00 00 00 00 00 00 00 00 00 00 00 00 00 ................
004040A0 00 00 00 00 00 00 00 00 00 00 00 00 00 00 00 00 ................
004040B0 00 00 00 00 00 00 00 00 00 00 00 00 00 00 00 00 ................
004040C0 00 00 00 00 00 00 00 00 00 00 00 00 00 00 00 00 ................
004040D0 00 00 00 00 00 00 00 00 00 00 00 00 00 00 00 00 ................
004040E0 00 00 00 00 00 00 00 00 00 00 00 00 00 00 00 00 ................
004040F0 00 00 00 00 00 00 00 00 00 00 00 00 00 00 00 00 ................
00404100 00 00 00 00 00 00 00 00 00 00 00 00 00 00 00 00 ................
00404110 00 00 00 00 00 00 00 00 00 00 00 00 00 00 00 00 ................
00404120 00 00 00 00 00 00 00 00 00 00 00 00 00 00 00 00 ................
00404130 00 00 00 00 00 00 00 00 00 00 00 00 00 00 00 00 ................
00404140 00 00 00 00 00 00 00 00 00 00 00 00 00 00 00 00 ................
00404150 00 00 00 00 00 00 00 00 00 00 00 00 00 00 00 00 ................
00404160 00 00 00 00 00 00 00 00 00 00 00 00 00 00 00 00 ................
00404170 00 00 00 00 00 00 00 00 00 00 00 00 00 00 00 00 ................
00404180 00 00 00 00 00 00 00 00 00 00 00 00 00 00 00 00 ................
00404190 00 00 00 00 00 00 00 00 00 00 00 00 00 00 00 00 ................
004041A0 00 00 00 00 00 00 00 00 00 00 00 00 00 00 00 00 ................
004041B0 00 00 00 00 00 00 00 00 00 00 00 00 00 00 00 00 ................
004041C0 00 00 00 00 00 00 00 00 00 00 00 00 00 00 00 00 ................
004041D0 00 00 00 00 00 00 00 00 00 00 00 00 00 00 00 00 ................
004041E0 00 00 00 00 00 00 00 00 00 00 00 00 00 00 00 00 ................
004041F0 00 00 00 00 00 00 00 00 00 00 00 00 00 00 00 00 ................
00404200 00 00 00 00 00 00 00 00 00 00 00 00 00 00 00 00 ................
00404210 00 00 00 00 00 00 00 00 00 00 00 00 00 00 00 00 ................
00404220 00 00 00 00 00 00 00 00 00 00 00 00 00 00 00 00 ................
00404230 00 00 00 00 00 00 00 00 00 00 00 00 00 00 00 00 ................
00404240 00 00 00 00 00 00 00 00 00 00 00 00 00 00 00 00 ................
00404250 00 00 00 00 00 00 00 00 00 00 00 00 00 00 00 00 ................
00404260 00 00 00 00 00 00 00 00 00 00 00 00 00 00 00 00 ................
00404270 00 00 00 00 00 00 00 00 00 00 00 00 00 00 00 00 ................
00404280 00 00 00 00 00 00 00 00 00 00 00 00 00 00 00 00 ................
00404290 00 00 00 00 00 00 00 00 00 00 00 00 00 00 00 00 ................
004042A0 00 00 00 00 00 00 00 00 00 00 00 00 00 00 00 00 ................
004042B0 00 00 00 00 00 00 00 00 00 00 00 00 00 00 00 00 ................
004042C0 00 00 00 00 00 00 00 00 00 00 00 00 00 00 00 00 ................
004042D0 00 00 00 00 00 00 00 00 00 00 00 00 00 00 00 00 ................
004042E0 00 00 00 00 00 00 00 00 00 00 00 00 00 00 00 00 ................
004042F0 00 00 00 00 00 00 00 00 00 00 00 00 00 00 00 00 ................
00404300 00 00 00 00 00 00 00 00 00 00 00 00 00 00 00 00 ................
00404310 00 00 00 00 00 00 00 00 00 00 00 00 00 00 00 00 ................
00404320 00 00 00 00 00 00 00 00 00 00 00 00 00 00 00 00 ................
00404330 00 00 00 00 00 00 00 00 00 00 00 00 00 00 00 00 ................
00404340 00 00 00 00 00 00 00 00 00 00 00 00 00 00 00 00 ................
00404350 00 00 00 00 00 00 00 00 00 00 00 00 00 00 00 00 ................
00404360 00 00 00 00 00 00 00 00 00 00 00 00 00 00 00 00 ................
00404370 00 00 00 00 00 00 00 00 00 00 00 00 00 00 00 00 ................
00404380 00 00 00 00 00 00 00 00 00 00 00 00 00 00 00 00 ................
00404390 00 00 00 00 00 00 00 00 00 00 00 00 00 00 00 00 ................
004043A0 00 00 00 00 00 00 00 00 00 00 00 00 00 00 00 00 ................
004043B0 00 00 00 00 00 00 00 00 00 00 00 00 00 00 00 00 ................
004043C0 00 00 00 00 00 00 00 00 00 00 00 00 00 00 00 00 ................
004043D0 00 00 00 00 00 00 00 00 00 00 00 00 00 00 00 00 ................
004043E0 00 00 00 00 00 00 00 00 00 00 00 00 00 00 00 00 ................
004043F0 00 00 00 00 00 00 00 00 00 00 00 00 00 00 00 00 ................
00404400 00 00 00 00 00 00 00 00 00 00 00 00 00 00 00 00 ................
00404410 00 00 00 00 00 00 00 00 00 00 00 00 00 00 00 00 ................
00404420 00 00 00 00 00 00 00 00 00 00 00 00 00 00 00 00 ................
00404430 00 00 00 00 00 00 00 00 00 00 00 00 00 00 00 00 ................
00404440 00 00 00 00 00 00 00 00 00 00 00 00 00 00 00 00 ................
00404450 00 00 00 00 00 00 00 00 00 00 00 00 00 00 00 00 ................
00404460 00 00 00 00 00 00 00 00 00 00 00 00 00 00 00 00 ................
00404470 00 00 00 00 00 00 00 00 00 00 00 00 00 00 00 00 ................
00404480 00 00 00 00 00 00 00 00 00 00 00 00 00 00 00 00 ................
00404490 00 00 00 00 00 00 00 00 00 00 00 00 00 00 00 00 ................
004044A0 00 00 00 00 00 00 00 00 00 00 00 00 00 00 00 00 ................
004044B0 00 00 00 00 00 00 00 00 00 00 00 00 00 00 00 00 ................
004044C0 00 00 00 00 00 00 00 00 00 00 00 00 00 00 00 00 ................
004044D0 00 00 00 00 00 00 00 00 00 00 00 00 00 00 00 00 ................
004044E0 00 00 00 00 00 00 00 00 00 00 00 00 00 00 00 00 ................
004044F0 00 00 00 00 00 00 00 00 00 00 00 00 00 00 00 00 ................
00404500 00 00 00 00 00 00 00 00 00 00 00 00 00 00 00 00 ................
00404510 00 00 00 00 00 00 00 00 00 00 00 00 00 00 00 00 ................
00404520 00 00 00 00 00 00 00 00 00 00 00 00 00 00 00 00 ................
00404530 00 00 00 00 00 00 00 00 00 00 00 00 00 00 00 00 ................
00404540 00 00 00 00 00 00 00 00 00 00 00 00 00 00 00 00 ................
00404550 00 00 00 00 00 00 00 00 00 00 00 00 00 00 00 00 ................
00404560 00 00 00 00 00 00 00 00 00 00 00 00 00 00 00 00 ................
00404570 00 00 00 00 00 00 00 00 00 00 00 00 00 00 00 00 ................
00404580 00 00 00 00 00 00 00 00 00 00 00 00 00 00 00 00 ................
00404590 00 00 00 00 00 00 00 00 00 00 00 00 00 00 00 00 ................
004045A0 00 00 00 00 00 00 00 00 00 00 00 00 00 00 00 00 ................
004045B0 00 00 00 00 00 00 00 00 00 00 00 00 00 00 00 00 ................
004045C0 00 00 00 00 00 00 00 00 00 00 00 00 00 00 00 00 ................
004045D0 00 00 00 00 00 00 00 00 00 00 00 00 00 00 00 00 ................
004045E0 00 00 00 00 00 00 00 00 00 00 00 00 00 00 00 00 ................
004045F0 00 00 00 00 00 00 00 00 00 00 00 00 00 00 00 00 ................
00404600 00 00 00 00 00 00 00 00 00 00 00 00 00 00 00 00 ................
00404610 00 00 00 00 00 00 00 00 00 00 00 00 00 00 00 00 ................
00404620 00 00 00 00 00 00 00 00 00 00 00 00 00 00 00 00 ................
00404630 00 00 00 00 00 00 00 00 00 00 00 00 00 00 00 00 ................
00404640 00 00 00 00 00 00 00 00 00 00 00 00 00 00 00 00 ................
00404650 00 00 00 00 00 00 00 00 00 00 00 00 00 00 00 00 ................
00404660 00 00 00 00 00 00 00 00 00 00 00 00 00 00 00 00 ................
00404670 00 00 00 00 00 00 00 00 00 00 00 00 00 00 00 00 ................
00404680 00 00 00 00 00 00 00 00 00 00 00 00 00 00 00 00 ................
00404690 00 00 00 00 00 00 00 00 00 00 00 00 00 00 00 00 ................
004046A0 00 00 00 00 00 00 00 00 00 00 00 00 00 00 00 00 ................
004046B0 00 00 00 00 00 00 00 00 00 00 00 00 00 00 00 00 ................
004046C0 00 00 00 00 00 00 00 00 00 00 00 00 00 00 00 00 ................
004046D0 00 00 00 00 00 00 00 00 00 00 00 00 00 00 00 00 ................
004046E0 00 00 00 00 00 00 00 00 00 00 00 00 00 00 00 00 ................
004046F0 00 00 00 00 00 00 00 00 00 00 00 00 00 00 00 00 ................
00404700 00 00 00 00 00 00 00 00 00 00 00 00 00 00 00 00 ................
00404710 00 00 00 00 00 00 00 00 00 00 00 00 00 00 00 00 ................
00404720 00 00 00 00 00 00 00 00 00 00 00 00 00 00 00 00 ................
00404730 00 00 00 00 00 00 00 00 00 00 00 00 00 00 00 00 ................
00404740 00 00 00 00 00 00 00 00 00 00 00 00 00 00 00 00 ................
00404750 00 00 00 00 00 00 00 00 00 00 00 00 00 00 00 00 ................
00404760 00 00 00 00 00 00 00 00 00 00 00 00 00 00 00 00 ................
00404770 00 00 00 00 00 00 00 00 00 00 00 00 00 00 00 00 ................
00404780 00 00 00 00 00 00 00 00 00 00 00 00 00 00 00 00 ................
00404790 00 00 00 00 00 00 00 00 00 00 00 00 00 00 00 00 ................
004047A0 00 00 00 00 00 00 00 00 00 00 00 00 00 00 00 00 ................
004047B0 00 00 00 00 00 00 00 00 00 00 00 00 00 00 00 00 ................
004047C0 00 00 00 00 00 00 00 00 00 00 00 00 00 00 00 00 ................
004047D0 00 00 00 00 00 00 00 00 00 00 00 00 00 00 00 00 ................
004047E0 00 00 00 00 00 00 00 00 00 00 00 00 00 00 00 00 ................
004047F0 00 00 00 00 00 00 00 00 00 00 00 00 00 00 00 00 ................
00404800 00 00 00 00 00 00 00 00 00 00 00 00 00 00 00 00 ................
00404810 00 00 00 00 00 00 00 00 00 00 00 00 00 00 00 00 ................
00404820 00 00 00 00 00 00 00 00 00 00 00 00 00 00 00 00 ................
00404830 00 00 00 00 00 00 00 00 00 00 00 00 00 00 00 00 ................
00404840 00 00 00 00 00 00 00 00 00 00 00 00 00 00 00 00 ................
00404850 00 00 00 00 00 00 00 00 00 00 00 00 00 00 00 00 ................
00404860 00 00 00 00 00 00 00 00 00 00 00 00 00 00 00 00 ................
00404870 00 00 00 00 00 00 00 00 00 00 00 00 00 00 00 00 ................
00404880 00 00 00 00 00 00 00 00 00 00 00 00 00 00 00 00 ................
00404890 00 00 00 00 00 00 00 00 00 00 00 00 00 00 00 00 ................
004048A0 00 00 00 00 00 00 00 00 00 00 00 00 00 00 00 00 ................
004048B0 00 00 00 00 00 00 00 00 00 00 00 00 00 00 00 00 ................
004048C0 00 00 00 00 00 00 00 00 00 00 00 00 00 00 00 00 ................
004048D0 00 00 00 00 00 00 00 00 00 00 00 00 00 00 00 00 ................
004048E0 00 00 00 00 00 00 00 00 00 00 00 00 00 00 00 00 ................
004048F0 00 00 00 00 00 00 00 00 00 00 00 00 00 00 00 00 ................
00404900 00 00 00 00 00 00 00 00 00 00 00 00 00 00 00 00 ................
00404910 00 00 00 00 00 00 00 00 00 00 00 00 00 00 00 00 ................
00404920 00 00 00 00 00 00 00 00 00 00 00 00 00 00 00 00 ................
00404930 00 00 00 00 00 00 00 00 00 00 00 00 00 00 00 00 ................
00404940 00 00 00 00 00 00 00 00 00 00 00 00 00 00 00 00 ................
00404950 00 00 00 00 00 00 00 00 00 00 00 00 00 00 00 00 ................
00404960 00 00 00 00 00 00 00 00 00 00 00 00 00 00 00 00 ................
00404970 00 00 00 00 00 00 00 00 00 00 00 00 00 00 00 00 ................
00404980 00 00 00 00 00 00 00 00 00 00 00 00 00 00 00 00 ................
00404990 00 00 00 00 00 00 00 00 00 00 00 00 00 00 00 00 ................
004049A0 00 00 00 00 00 00 00 00 00 00 00 00 00 00 00 00 ................
004049B0 00 00 00 00 00 00 00 00 00 00 00 00 00 00 00 00 ................
004049C0 00 00 00 00 00 00 00 00 00 00 00 00 00 00 00 00 ................
004049D0 00 00 00 00 00 00 00 00 00 00 00 00 00 00 00 00 ................
004049E0 00 00 00 00 00 00 00 00 00 00 00 00 00 00 00 00 ................
004049F0 00 00 00 00 00 00 00 00 00 00 00 00 00 00 00 00 ................
00404A00 00 00 00 00 00 00 00 00 00 00 00 00 00 00 00 00 ................
00404A10 00 00 00 00 00 00 00 00 00 00 00 00 00 00 00 00 ................
00404A20 00 00 00 00 00 00 00 00 00 00 00 00 00 00 00 00 ................
00404A30 00 00 00 00 00 00 00 00 00 00 00 00 00 00 00 00 ................
00404A40 00 00 00 00 00 00 00 00 00 00 00 00 00 00 00 00 ................
00404A50 00 00 00 00 00 00 00 00 00 00 00 00 00 00 00 00 ................
00404A60 00 00 00 00 00 00 00 00 00 00 00 00 00 00 00 00 ................
00404A70 00 00 00 00 00 00 00 00 00 00 00 00 00 00 00 00 ................
00404A80 00 00 00 00 00 00 00 00 00 00 00 00 00 00 00 00 ................
00404A90 00 00 00 00 00 00 00 00 00 00 00 00 00 00 00 00 ................
00404AA0 00 00 00 00 00 00 00 00 00 00 00 00 00 00 00 00 ................
00404AB0 00 00 00 00 00 00 00 00 00 00 00 00 00 00 00 00 ................
00404AC0 00 00 00 00 00 00 00 00 00 00 00 00 00 00 00 00 ................
00404AD0 00 00 00 00 00 00 00 00 00 00 00 00 00 00 00 00 ................
00404AE0 00 00 00 00 00 00 00 00 00 00 00 00 00 00 00 00 ................
00404AF0 00 00 00 00 00 00 00 00 00 00 00 00 00 00 00 00 ................
00404B00 00 00 00 00 00 00 00 00 00 00 00 00 00 00 00 00 ................
00404B10 00 00 00 00 00 00 00 00 00 00 00 00 00 00 00 00 ................
00404B20 00 00 00 00 00 00 00 00 00 00 00 00 00 00 00 00 ................
00404B30 00 00 00 00 00 00 00 00 00 00 00 00 00 00 00 00 ................
00404B40 00 00 00 00 00 00 00 00 00 00 00 00 00 00 00 00 ................
00404B50 00 00 00 00 00 00 00 00 00 00 00 00 00 00 00 00 ................
00404B60 00 00 00 00 00 00 00 00 00 00 00 00 00 00 00 00 ................
00404B70 00 00 00 00 00 00 00 00 00 00 00 00 00 00 00 00 ................
00404B80 00 00 00 00 00 00 00 00 00 00 00 00 00 00 00 00 ................
00404B90 00 00 00 00 00 00 00 00 00 00 00 00 00 00 00 00 ................
00404BA0 00 00 00 00 00 00 00 00 00 00 00 00 00 00 00 00 ................
00404BB0 00 00 00 00 00 00 00 00 00 00 00 00 00 00 00 00 ................
00404BC0 00 00 00 00 00 00 00 00 00 00 00 00 00 00 00 00 ................
00404BD0 00 00 00 00 00 00 00 00 00 00 00 00 00 00 00 00 ................
00404BE0 00 00 00 00 00 00 00 00 00 00 00 00 00 00 00 00 ................
00404BF0 00 00 00 00 00 00 00 00 00 00 00 00 00 00 00 00 ................
00404C00 00 00 00 00 00 00 00 00 00 00 00 00 00 00 00 00 ................
00404C10 00 00 00 00 00 00 00 00 00 00 00 00 00 00 00 00 ................
00404C20 00 00 00 00 00 00 00 00 00 00 00 00 00 00 00 00 ................
00404C30 00 00 00 00 00 00 00 00 00 00 00 00 00 00 00 00 ................
00404C40 00 00 00 00 00 00 00 00 00 00 00 00 00 00 00 00 ................
00404C50 00 00 00 00 00 00 00 00 00 00 00 00 00 00 00 00 ................
00404C60 00 00 00 00 00 00 00 00 00 00 00 00 00 00 00 00 ................
00404C70 00 00 00 00 00 00 00 00 00 00 00 00 00 00 00 00 ................
00404C80 00 00 00 00 00 00 00 00 00 00 00 00 00 00 00 00 ................
00404C90 00 00 00 00 00 00 00 00 00 00 00 00 00 00 00 00 ................
00404CA0 00 00 00 00 00 00 00 00 00 00 00 00 00 00 00 00 ................
00404CB0 00 00 00 00 00 00 00 00 00 00 00 00 00 00 00 00 ................
00404CC0 00 00 00 00 00 00 00 00 00 00 00 00 00 00 00 00 ................
00404CD0 00 00 00 00 00 00 00 00 00 00 00 00 00 00 00 00 ................
00404CE0 00 00 00 00 00 00 00 00 00 00 00 00 00 00 00 00 ................
00404CF0 00 00 00 00 00 00 00 00 00 00 00 00 00 00 00 00 ................
00404D00 00 00 00 00 00 00 00 00 00 00 00 00 00 00 00 00 ................
00404D10 00 00 00 00 00 00 00 00 00 00 00 00 00 00 00 00 ................
00404D20 00 00 00 00 00 00 00 00 00 00 00 00 00 00 00 00 ................
00404D30 00 00 00 00 00 00 00 00 00 00 00 00 00 00 00 00 ................
00404D40 00 00 00 00 00 00 00 00 00 00 00 00 00 00 00 00 ................
00404D50 00 00 00 00 00 00 00 00 00 00 00 00 00 00 00 00 ................
00404D60 00 00 00 00 00 00 00 00 00 00 00 00 00 00 00 00 ................
00404D70 00 00 00 00 00 00 00 00 00 00 00 00 00 00 00 00 ................
00404D80 00 00 00 00 00 00 00 00 00 00 00 00 00 00 00 00 ................
00404D90 00 00 00 00 00 00 00 00 00 00 00 00 00 00 00 00 ................
00404DA0 00 00 00 00 00 00 00 00 00 00 00 00 00 00 00 00 ................
00404DB0 00 00 00 00 00 00 00 00 00 00 00 00 00 00 00 00 ................
00404DC0 00 00 00 00 00 00 00 00 00 00 00 00 00 00 00 00 ................
00404DD0 00 00 00 00 00 00 00 00 00 00 00 00 00 00 00 00 ................
00404DE0 00 00 00 00 00 00 00 00 00 00 00 00 00 00 00 00 ................
00404DF0 00 00 00 00 00 00 00 00 00 00 00 00 00 00 00 00 ................
00404E00 00 00 00 00 00 00 00 00 00 00 00 00 00 00 00 00 ................
00404E10 00 00 00 00 00 00 00 00 00 00 00 00 00 00 00 00 ................
00404E20 00 00 00 00 00 00 00 00 00 00 00 00 00 00 00 00 ................
00404E30 00 00 00 00 00 00 00 00 00 00 00 00 00 00 00 00 ................
00404E40 00 00 00 00 00 00 00 00 00 00 00 00 00 00 00 00 ................
00404E50 00 00 00 00 00 00 00 00 00 00 00 00 00 00 00 00 ................
00404E60 00 00 00 00 00 00 00 00 00 00 00 00 00 00 00 00 ................
00404E70 00 00 00 00 00 00 00 00 00 00 00 00 00 00 00 00 ................
00404E80 00 00 00 00 00 00 00 00 00 00 00 00 00 00 00 00 ................
00404E90 00 00 00 00 00 00 00 00 00 00 00 00 00 00 00 00 ................
00404EA0 00 00 00 00 00 00 00 00 00 00 00 00 00 00 00 00 ................
00404EB0 00 00 00 00 00 00 00 00 00 00 00 00 00 00 00 00 ................
00404EC0 00 00 00 00 00 00 00 00 00 00 00 00 00 00 00 00 ................
00404ED0 00 00 00 00 00 00 00 00 00 00 00 00 00 00 00 00 ................
00404EE0 00 00 00 00 00 00 00 00 00 00 00 00 00 00 00 00 ................
00404EF0 00 00 00 00 00 00 00 00 00 00 00 00 00 00 00 00 ................
00404F00 00 00 00 00 00 00 00 00 00 00 00 00 00 00 00 00 ................
00404F10 00 00 00 00 00 00 00 00 00 00 00 00 00 00 00 00 ................
00404F20 00 00 00 00 00 00 00 00 00 00 00 00 00 00 00 00 ................
00404F30 00 00 00 00 00 00 00 00 00 00 00 00 00 00 00 00 ................
00404F40 00 00 00 00 00 00 00 00 00 00 00 00 00 00 00 00 ................
00404F50 00 00 00 00 00 00 00 00 00 00 00 00 00 00 00 00 ................
00404F60 00 00 00 00 00 00 00 00 00 00 00 00 00 00 00 00 ................
00404F70 00 00 00 00 00 00 00 00 00 00 00 00 00 00 00 00 ................
00404F80 00 00 00 00 00 00 00 00 00 00 00 00 00 00 00 00 ................
00404F90 00 00 00 00 00 00 00 00 00 00 00 00 00 00 00 00 ................
00404FA0 00 00 00 00 00 00 00 00 00 00 00 00 00 00 00 00 ................
00404FB0 00 00 00 00 00 00 00 00 00 00 00 00 00 00 00 00 ................
00404FC0 00 00 00 00 00 00 00 00 00 00 00 00 00 00 00 00 ................
00404FD0 00 00 00 00 00 00 00 00 00 00 00 00 00 00 00 00 ................
00404FE0 00 00 00 00 00 00 00 00 00 00 00 00 00 00 00 00 ................
00404FF0 00 00 00 00 00 00 00 00 00 00 00 00 00 00 00 00 ................
00405000 00 00 00 00 00 00 00 00 00 00 00 00 00 00 00 00 ................
00405010 00 00 00 00 00 00 00 00 00 00 00 00 00 00 00 00 ................
00405020 00 00 00 00 00 00 00 00 00 00 00 00 00 00 00 00 ................
00405030 00 00 00 00 00 00 00 00 00 00 00 00 00 00 00 00 ................
00405040 00 00 00 00 00 00 00 00 00 00 00 00 00 00 00 00 ................
00405050 00 00 00 00 00 00 00 00 00 00 00 00 00 00 00 00 ................
00405060 00 00 00 00 00 00 00 00 00 00 00 00 00 00 00 00 ................
00405070 00 00 00 00 00 00 00 00 00 00 00 00 00 00 00 00 ................
00405080 00 00 00 00 00 00 00 00 00 00 00 00 00 00 00 00 ................
00405090 00 00 00 00 00 00 00 00 00 00 00 00 00 00 00 00 ................
004050A0 00 00 00 00 00 00 00 00 00 00 00 00 00 00 00 00 ................
004050B0 00 00 00 00 00 00 00 00 00 00 00 00 00 00 00 00 ................
004050C0 00 00 00 00 00 00 00 00 00 00 00 00 00 00 00 00 ................
004050D0 00 00 00 00 00 00 00 00 00 00 00 00 00 00 00 00 ................
004050E0 00 00 00 00 00 00 00 00 00 00 00 00 00 00 00 00 ................
004050F0 00 00 00 00 00 00 00 00 00 00 00 00 00 00 00 00 ................
00405100 00 00 00 00 00 00 00 00 00 00 00 00 00 00 00 00 ................
00405110 00 00 00 00 00 00 00 00 00 00 00 00 00 00 00 00 ................
00405120 00 00 00 00 00 00 00 00 00 00 00 00 00 00 00 00 ................
00405130 00 00 00 00 00 00 00 00 00 00 00 00 00 00 00 00 ................
00405140 00 00 00 00 00 00 00 00 00 00 00 00 00 00 00 00 ................
00405150 00 00 00 00 00 00 00 00 00 00 00 00 00 00 00 00 ................
00405160 00 00 00 00 00 00 00 00 00 00 00 00 00 00 00 00 ................
00405170 00 00 00 00 00 00 00 00 00 00 00 00 00 00 00 00 ................
00405180 00 00 00 00 00 00 00 00 00 00 00 00 00 00 00 00 ................
00405190 00 00 00 00 00 00 00 00 00 00 00 00 00 00 00 00 ................
004051A0 00 00 00 00 00 00 00 00 00 00 00 00 00 00 00 00 ................
004051B0 00 00 00 00 00 00 00 00 00 00 00 00 00 00 00 00 ................
004051C0 00 00 00 00 00 00 00 00 00 00 00 00 00 00 00 00 ................
004051D0 00 00 00 00 00 00 00 00 00 00 00 00 00 00 00 00 ................
004051E0 00 00 00 00 00 00 00 00 00 00 00 00 00 00 00 00 ................
004051F0 00 00 00 00 00 00 00 00 00 00 00 00 00 00 00 00 ................
00405200 00 00 00 00 00 00 00 00 00 00 00 00 00 00 00 00 ................
00405210 00 00 00 00 00 00 00 00 00 00 00 00 00 00 00 00 ................
00405220 00 00 00 00 00 00 00 00 00 00 00 00 00 00 00 00 ................
00405230 00 00 00 00 00 00 00 00 00 00 00 00 00 00 00 00 ................
00405240 00 00 00 00 00 00 00 00 00 00 00 00 00 00 00 00 ................
00405250 00 00 00 00 00 00 00 00 00 00 00 00 00 00 00 00 ................
00405260 00 00 00 00 00 00 00 00 00 00 00 00 00 00 00 00 ................
00405270 00 00 00 00 00 00 00 00 00 00 00 00 00 00 00 00 ................
00405280 00 00 00 00 00 00 00 00 00 00 00 00 00 00 00 00 ................
00405290 00 00 00 00 00 00 00 00 00 00 00 00 00 00 00 00 ................
004052A0 00 00 00 00 00 00 00 00 00 00 00 00 00 00 00 00 ................
004052B0 00 00 00 00 00 00 00 00 00 00 00 00 00 00 00 00 ................
004052C0 00 00 00 00 00 00 00 00 00 00 00 00 00 00 00 00 ................
004052D0 00 00 00 00 00 00 00 00 00 00 00 00 00 00 00 00 ................
004052E0 00 00 00 00 00 00 00 00 00 00 00 00 00 00 00 00 ................
004052F0 00 00 00 00 00 00 00 00 00 00 00 00 00 00 00 00 ................
00405300 00 00 00 00 00 00 00 00 00 00 00 00 00 00 00 00 ................
00405310 00 00 00 00 00 00 00 00 00 00 00 00 00 00 00 00 ................
00405320 00 00 00 00 00 00 00 00 00 00 00 00 00 00 00 00 ................
00405330 00 00 00 00 00 00 00 00 00 00 00 00 00 00 00 00 ................
00405340 00 00 00 00 00 00 00 00 00 00 00 00 00 00 00 00 ................
00405350 00 00 00 00 00 00 00 00 00 00 00 00 00 00 00 00 ................
00405360 00 00 00 00 00 00 00 00 00 00 00 00 00 00 00 00 ................
00405370 00 00 00 00 00 00 00 00 00 00 00 00 00 00 00 00 ................
00405380 00 00 00 00 00 00 00 00 00 00 00 00 00 00 00 00 ................
00405390 00 00 00 00 00 00 00 00 00 00 00 00 00 00 00 00 ................
004053A0 00 00 00 00 00 00 00 00 00 00 00 00 00 00 00 00 ................
004053B0 00 00 00 00 00 00 00 00 00 00 00 00 00 00 00 00 ................
004053C0 00 00 00 00 00 00 00 00 00 00 00 00 00 00 00 00 ................
004053D0 00 00 00 00 00 00 00 00 00 00 00 00 00 00 00 00 ................
004053E0 00 00 00 00 00 00 00 00 00 00 00 00 00 00 00 00 ................
004053F0 00 00 00 00 00 00 00 00 00 00 00 00 00 00 00 00 ................
00405400 00 00 00 00 00 00 00 00 00 00 00 00 00 00 00 00 ................
00405410 00 00 00 00 00 00 00 00 00 00 00 00 00 00 00 00 ................
00405420 00 00 00 00 00 00 00 00 00 00 00 00 00 00 00 00 ................
00405430 00 00 00 00 00 00 00 00 00 00 00 00 00 00 00 00 ................
00405440 00 00 00 00 00 00 00 00 00 00 00 00 00 00 00 00 ................
00405450 00 00 00 00 00 00 00 00 00 00 00 00 00 00 00 00 ................
00405460 00 00 00 00 00 00 00 00 00 00 00 00 00 00 00 00 ................
00405470 00 00 00 00 00 00 00 00 00 00 00 00 00 00 00 00 ................
00405480 00 00 00 00 00 00 00 00 00 00 00 00 00 00 00 00 ................
00405490 00 00 00 00 00 00 00 00 00 00 00 00 00 00 00 00 ................
004054A0 00 00 00 00 00 00 00 00 00 00 00 00 00 00 00 00 ................
004054B0 00 00 00 00 00 00 00 00 00 00 00 00 00 00 00 00 ................
004054C0 00 00 00 00 00 00 00 00 00 00 00 00 00 00 00 00 ................
004054D0 00 00 00 00 00 00 00 00 00 00 00 00 00 00 00 00 ................
004054E0 00 00 00 00 00 00 00 00 00 00 00 00 00 00 00 00 ................
004054F0 00 00 00 00 00 00 00 00 00 00 00 00 00 00 00 00 ................
00405500 00 00 00 00 00 00 00 00 00 00 00 00 00 00 00 00 ................
00405510 00 00 00 00 00 00 00 00 00 00 00 00 00 00 00 00 ................
00405520 00 00 00 00 00 00 00 00 00 00 00 00 00 00 00 00 ................
00405530 00 00 00 00 00 00 00 00 00 00 00 00 00 00 00 00 ................
00405540 00 00 00 00 00 00 00 00 00 00 00 00 00 00 00 00 ................
00405550 00 00 00 00 00 00 00 00 00 00 00 00 00 00 00 00 ................
00405560 00 00 00 00 00 00 00 00 00 00 00 00 00 00 00 00 ................
00405570 00 00 00 00 00 00 00 00 00 00 00 00 00 00 00 00 ................
00405580 00 00 00 00 00 00 00 00 00 00 00 00 00 00 00 00 ................
00405590 00 00 00 00 00 00 00 00 00 00 00 00 00 00 00 00 ................
004055A0 00 00 00 00 00 00 00 00 00 00 00 00 00 00 00 00 ................
004055B0 00 00 00 00 00 00 00 00 00 00 00 00 00 00 00 00 ................
004055C0 00 00 00 00 00 00 00 00 00 00 00 00 00 00 00 00 ................
004055D0 00 00 00 00 00 00 00 00 00 00 00 00 00 00 00 00 ................
004055E0 00 00 00 00 00 00 00 00 00 00 00 00 00 00 00 00 ................
004055F0 00 00 00 00 00 00 00 00 00 00 00 00 00 00 00 00 ................
00405600 00 00 00 00 00 00 00 00 00 00 00 00 00 00 00 00 ................
00405610 00 00 00 00 00 00 00 00 00 00 00 00 00 00 00 00 ................
00405620 00 00 00 00 00 00 00 00 00 00 00 00 00 00 00 00 ................
00405630 00 00 00 00 00 00 00 00 00 00 00 00 00 00 00 00 ................
00405640 00 00 00 00 00 00 00 00 00 00 00 00 00 00 00 00 ................
00405650 00 00 00 00 00 00 00 00 00 00 00 00 00 00 00 00 ................
00405660 00 00 00 00 00 00 00 00 00 00 00 00 00 00 00 00 ................
00405670 00 00 00 00 00 00 00 00 00 00 00 00 00 00 00 00 ................
00405680 00 00 00 00 00 00 00 00 00 00 00 00 00 00 00 00 ................
00405690 00 00 00 00 00 00 00 00 00 00 00 00 00 00 00 00 ................
004056A0 00 00 00 00 00 00 00 00 00 00 00 00 00 00 00 00 ................
004056B0 00 00 00 00 00 00 00 00 00 00 00 00 10 B5 82 B0 ................
004056C0 38 60 3B 68 7B 63 3B 68 1B 68 1B 68 FB 63 79 6B 8`;h{c;h.h.h.cyk
004056D0 F8 6B FD F7 0D F9 78 64 78 6C 02 B0 10 BD 00 00 .k....xdxl......
004056E0 00 00 00 00 00 00 00 00 00 00 00 00 00 00 00 00 ................
004056F0 00 00 00 00 00 00 00 00 F8 62 FB 6A 1B 68 1B 68 .........b.j.h.h
00405700 3B 63 3A 6B 04 4B 9A 42 02 D1 01 23 3B 61 01 E0 ;c:k.K.B...#;a..
00405710 00 23 3B 61 38 69 70 47 05 00 00 C0 10 B5 08 20 .#;a8ipG....... 
00405720 FD F7 8C FF FF E7 10 BD 00 00 00 00 00 00 00 00 ................
00405730 00 00 00 00 00 00 00 00 00 00 00 00 00 00 00 00 ................
00405740 03 68 1A 68 03 4B 9A 42 01 D1 01 20 00 E0 00 20 .h.h.K.B... ... 
00405750 70 47 FE DE 88 13 6D 40 03 68 1A 68 03 4B 9A 42 pG....m@.h.h.K.B
00405760 01 D1 01 20 00 E0 00 20 70 47 FE DE 88 13 6D 40 ... ... pG....m@
00405770 00 00 00 00 00 00 00 00 00 00 00 00 00 00 00 00 ................
00405780 00 00 00 00 00 00 00 00 00 00 00 00 00 00 00 00 ................
00405790 00 00 00 00 00 00 00 00 00 00 00 00 00 00 00 00 ................
004057A0 00 00 00 00 00 00 00 00 00 00 00 00 00 00 00 00 ................
004057B0 00 00 00 00 00 00 00 00 00 00 00 00 00 00 00 00 ................
004057C0 00 00 00 00 00 00 00 00 00 00 00 00 00 00 00 00 ................
004057D0 00 00 00 00 00 00 00 00 00 00 00 00 00 00 00 00 ................
004057E0 00 00 00 00 00 00 00 00 00 00 00 00 00 00 00 00 ................
004057F0 00 00 00 00 00 00 00 00 00 00 00 00 00 00 00 00 ................
00405800 00 00 00 00 00 00 00 00 00 00 00 00 00 00 00 00 ................
00405810 00 00 00 00 00 00 00 00 00 00 00 00 00 00 00 00 ................
00405820 00 00 00 00 00 00 00 00 00 00 00 00 00 00 00 00 ................
00405830 00 00 00 00 00 00 00 00 00 00 00 00 00 00 00 00 ................
00405840 00 00 00 00 00 00 00 00 00 00 00 00 00 00 00 00 ................
00405850 00 00 00 00 00 00 00 00 00 00 00 00 00 00 00 00 ................
00405860 00 00 00 00 00 00 00 00 00 00 00 00 00 00 00 00 ................
00405870 00 00 00 00 00 00 00 00 00 00 00 00 00 00 00 00 ................
00405880 00 00 00 00 00 00 00 00 00 00 00 00 00 00 00 00 ................
00405890 00 00 00 00 00 00 00 00 00 00 00 00 00 00 00 00 ................
004058A0 00 00 00 00 00 00 00 00 00 00 00 00 00 00 00 00 ................
004058B0 00 00 00 00 00 00 00 00 00 00 00 00 00 00 00 00 ................
004058C0 00 00 00 00 00 00 00 00 00 00 00 00 00 00 00 00 ................
004058D0 00 00 00 00 00 00 00 00 00 00 00 00 00 00 00 00 ................
004058E0 00 00 00 00 00 00 00 00 00 00 00 00 00 00 00 00 ................
004058F0 00 00 00 00 00 00 00 00 00 00 00 00 00 00 00 00 ................
00405900 00 00 00 00 00 00 00 00 00 00 00 00 00 00 00 00 ................
00405910 00 00 00 00 00 00 00 00 00 00 00 00 00 00 00 00 ................
00405920 00 00 00 00 00 00 00 00 00 00 00 00 00 00 00 00 ................
00405930 00 00 00 00 00 00 00 00 00 00 00 00 00 00 00 00 ................
00405940 00 00 00 00 00 00 00 00 00 00 00 00 00 00 00 00 ................
00405950 00 00 00 00 00 00 00 00 00 00 00 00 00 00 00 00 ................
00405960 00 00 00 00 00 00 00 00 00 00 00 00 00 00 00 00 ................
00405970 00 00 00 00 00 00 00 00 00 00 00 00 00 00 00 00 ................
00405980 00 00 00 00 00 00 00 00 00 00 00 00 00 00 00 00 ................
00405990 00 00 00 00 00 00 00 00 00 00 00 00 00 00 00 00 ................
004059A0 00 00 00 00 00 00 00 00 00 00 00 00 00 00 00 00 ................
004059B0 00 00 00 00 00 00 00 00 00 00 00 00 00 00 00 00 ................
004059C0 00 00 00 00 00 00 00 00 00 00 00 00 00 00 00 00 ................
004059D0 00 00 00 00 00 00 00 00 00 00 00 00 00 00 00 00 ................
004059E0 00 00 00 00 00 00 00 00 00 00 00 00 00 00 00 00 ................
004059F0 00 00 00 00 00 00 00 00 00 00 00 00 00 00 00 00 ................
00405A00 00 00 00 00 00 00 00 00 00 00 00 00 00 00 00 00 ................
00405A10 00 00 00 00 00 00 00 00 00 00 00 00 00 00 00 00 ................
00405A20 00 00 00 00 00 00 00 00 00 00 00 00 00 00 00 00 ................
00405A30 00 00 00 00 00 00 00 00 00 00 00 00 00 00 00 00 ................
00405A40 00 00 00 00 00 00 00 00 00 00 00 00 00 00 00 00 ................
00405A50 00 00 00 00 00 00 00 00 00 00 00 00 00 00 00 00 ................
00405A60 00 00 00 00 00 00 00 00 00 00 00 00 00 00 00 00 ................
00405A70 00 00 00 00 00 00 00 00 00 00 00 00 00 00 00 00 ................
00405A80 00 00 00 00 00 00 00 00 00 00 00 00 00 00 00 00 ................
00405A90 00 00 00 00 00 00 00 00 00 00 00 00 00 00 00 00 ................
00405AA0 00 00 00 00 00 00 00 00 00 00 00 00 00 00 00 00 ................
00405AB0 00 00 00 00 00 00 00 00 00 00 00 00 00 00 00 00 ................
00405AC0 00 00 00 00 00 00 00 00 00 00 00 00 00 00 00 00 ................
00405AD0 00 00 00 00 00 00 00 00 00 00 00 00 00 00 00 00 ................
00405AE0 00 00 00 00 00 00 00 00 00 00 00 00 00 00 00 00 ................
00405AF0 00 00 00 00 00 00 00 00 00 00 00 00 00 00 00 00 ................
00405B00 00 00 00 00 00 00 00 00 00 00 00 00 00 00 00 00 ................
00405B10 00 00 00 00 00 00 00 00 00 00 00 00 00 00 00 00 ................
00405B20 00 00 00 00 00 00 00 00 00 00 00 00 00 00 00 00 ................
00405B30 00 00 00 00 00 00 00 00 00 00 00 00 00 00 00 00 ................
00405B40 00 00 00 00 00 00 00 00 00 00 00 00 00 00 00 00 ................
00405B50 00 00 00 00 00 00 00 00 00 00 00 00 00 00 00 00 ................
00405B60 00 00 00 00 00 00 00 00 00 00 00 00 00 00 00 00 ................
00405B70 00 00 00 00 00 00 00 00 00 00 00 00 00 00 00 00 ................
00405B80 00 00 00 00 00 00 00 00 00 00 00 00 00 00 00 00 ................
00405B90 00 00 00 00 00 00 00 00 00 00 00 00 00 00 00 00 ................
00405BA0 00 00 00 00 00 00 00 00 00 00 00 00 00 00 00 00 ................
00405BB0 00 00 00 00 00 00 00 00 00 00 00 00 00 00 00 00 ................
00405BC0 00 00 00 00 00 00 00 00 00 00 00 00 00 00 00 00 ................
00405BD0 00 00 00 00 00 00 00 00 00 00 00 00 00 00 00 00 ................
00405BE0 00 00 00 00 00 00 00 00 00 00 00 00 00 00 00 00 ................
00405BF0 00 00 00 00 00 00 00 00 00 00 00 00 00 00 00 00 ................
00405C00 00 00 00 00 00 00 00 00 00 00 00 00 00 00 00 00 ................
00405C10 00 00 00 00 00 00 00 00 00 00 00 00 00 00 00 00 ................
00405C20 00 00 00 00 00 00 00 00 00 00 00 00 00 00 00 00 ................
00405C30 00 00 00 00 00 00 00 00 00 00 00 00 00 00 00 00 ................
00405C40 00 00 00 00 00 00 00 00 00 00 00 00 00 00 00 00 ................
00405C50 00 00 00 00 00 00 00 00 00 00 00 00 00 00 00 00 ................
00405C60 00 00 00 00 00 00 00 00 00 00 00 00 00 00 00 00 ................
00405C70 00 00 00 00 00 00 00 00 00 00 00 00 00 00 00 00 ................
00405C80 00 00 00 00 00 00 00 00 00 00 00 00 00 00 00 00 ................
00405C90 00 00 00 00 00 00 00 00 00 00 00 00 00 00 00 00 ................
00405CA0 00 00 00 00 00 00 00 00 00 00 00 00 00 00 00 00 ................
00405CB0 00 00 00 00 00 00 00 00 00 00 00 00 00 00 00 00 ................
00405CC0 00 00 00 00 00 00 00 00 00 00 00 00 00 00 00 00 ................
00405CD0 00 00 00 00 00 00 00 00 00 00 00 00 00 00 00 00 ................
00405CE0 00 00 00 00 00 00 00 00 00 00 00 00 00 00 00 00 ................
00405CF0 00 00 00 00 00 00 00 00 00 00 00 00 00 00 00 00 ................
00405D00 00 00 00 00 00 00 00 00 00 00 00 00 00 00 00 00 ................
00405D10 00 00 00 00 00 00 00 00 00 00 00 00 00 00 00 00 ................
00405D20 00 00 00 00 00 00 00 00 00 00 00 00 00 00 00 00 ................
00405D30 00 00 00 00 00 00 00 00 00 00 00 00 00 00 00 00 ................
00405D40 00 00 00 00 00 00 00 00 00 00 00 00 00 00 00 00 ................
00405D50 00 00 00 00 00 00 00 00 00 00 00 00 00 00 00 00 ................
00405D60 00 00 00 00 00 00 00 00 00 00 00 00 00 00 00 00 ................
00405D70 00 00 00 00 00 00 00 00 00 00 00 00 00 00 00 00 ................
00405D80 00 00 00 00 00 00 00 00 00 00 00 00 00 00 00 00 ................
00405D90 00 00 00 00 00 00 00 00 00 00 00 00 00 00 00 00 ................
00405DA0 00 00 00 00 00 00 00 00 00 00 00 00 00 00 00 00 ................
00405DB0 00 00 00 00 00 00 00 00 00 00 00 00 00 00 00 00 ................
00405DC0 00 00 00 00 00 00 00 00 00 00 00 00 00 00 00 00 ................
00405DD0 00 00 00 00 00 00 00 00 00 00 00 00 00 00 00 00 ................
00405DE0 00 00 00 00 00 00 00 00 00 00 00 00 00 00 00 00 ................
00405DF0 00 00 00 00 00 00 00 00 00 00 00 00 00 00 00 00 ................
00405E00 00 00 00 00 00 00 00 00 00 00 00 00 00 00 00 00 ................
00405E10 00 00 00 00 00 00 00 00 00 00 00 00 00 00 00 00 ................
00405E20 00 00 00 00 00 00 00 00 00 00 00 00 00 00 00 00 ................
00405E30 00 00 00 00 00 00 00 00 00 00 00 00 00 00 00 00 ................
00405E40 00 00 00 00 00 00 00 00 00 00 00 00 00 00 00 00 ................
00405E50 00 00 00 00 00 00 00 00 00 00 00 00 00 00 00 00 ................
00405E60 00 00 00 00 00 00 00 00 00 00 00 00 00 00 00 00 ................
00405E70 00 00 00 00 00 00 00 00 00 00 00 00 00 00 00 00 ................
00405E80 00 00 00 00 00 00 00 00 00 00 00 00 00 00 00 00 ................
00405E90 00 00 00 00 00 00 00 00 00 00 00 00 00 00 00 00 ................
00405EA0 00 00 00 00 00 00 00 00 00 00 00 00 00 00 00 00 ................
00405EB0 00 00 00 00 00 00 00 00 00 00 00 00 00 00 00 00 ................
00405EC0 00 00 00 00 00 00 00 00 00 00 00 00 00 00 00 00 ................
00405ED0 00 00 00 00 00 00 00 00 00 00 00 00 00 00 00 00 ................
00405EE0 00 00 00 00 00 00 00 00 00 00 00 00 00 00 00 00 ................
00405EF0 00 00 00 00 00 00 00 00 00 00 00 00 00 00 00 00 ................
00405F00 00 00 00 00 00 00 00 00 00 00 00 00 00 00 00 00 ................
00405F10 00 00 00 00 00 00 00 00 00 00 00 00 00 00 00 00 ................
00405F20 00 00 00 00 00 00 00 00 00 00 00 00 00 00 00 00 ................
00405F30 00 00 00 00 00 00 00 00 00 00 00 00 00 00 00 00 ................
00405F40 00 00 00 00 00 00 00 00 00 00 00 00 00 00 00 00 ................
00405F50 00 00 00 00 00 00 00 00 00 00 00 00 00 00 00 00 ................
00405F60 00 00 00 00 00 00 00 00 00 00 00 00 00 00 00 00 ................
00405F70 00 00 00 00 00 00 00 00 00 00 00 00 00 00 00 00 ................
00405F80 00 00 00 00 00 00 00 00 00 00 00 00 00 00 00 00 ................
00405F90 00 00 00 00 00 00 00 00 00 00 00 00 00 00 00 00 ................
00405FA0 00 00 00 00 00 00 00 00 00 00 00 00 00 00 00 00 ................
00405FB0 00 00 00 00 00 00 00 00 00 00 00 00 00 00 00 00 ................
00405FC0 00 00 00 00 00 00 00 00 00 00 00 00 00 00 00 00 ................
00405FD0 00 00 00 00 00 00 00 00 00 00 00 00 00 00 00 00 ................
00405FE0 00 00 00 00 00 00 00 00 00 00 00 00 00 00 00 00 ................
00405FF0 00 00 00 00 00 00 00 00 00 00 00 00 00 00 00 00 ................
00406000 00 00 00 00 00 00 00 00 00 00 00 00 00 00 00 00 ................
00406010 00 00 00 00 00 00 00 00 00 00 00 00 00 00 00 00 ................
00406020 00 00 00 00 00 00 00 00 00 00 00 00 00 00 00 00 ................
00406030 00 00 00 00 00 00 00 00 00 00 00 00 00 00 00 00 ................
00406040 00 00 00 00 00 00 00 00 00 00 00 00 00 00 00 00 ................
00406050 00 00 00 00 00 00 00 00 00 00 00 00 00 00 00 00 ................
00406060 00 00 00 00 00 00 00 00 00 00 00 00 00 00 00 00 ................
00406070 00 00 00 00 00 00 00 00 00 00 00 00 00 00 00 00 ................
00406080 00 00 00 00 00 00 00 00 00 00 00 00 00 00 00 00 ................
00406090 00 00 00 00 00 00 00 00 00 00 00 00 00 00 00 00 ................
004060A0 00 00 00 00 00 00 00 00 00 00 00 00 00 00 00 00 ................
004060B0 00 00 00 00 00 00 00 00 00 00 00 00 00 00 00 00 ................
004060C0 00 00 00 00 00 00 00 00 00 00 00 00 00 00 00 00 ................
004060D0 00 00 00 00 00 00 00 00 00 00 00 00 00 00 00 00 ................
004060E0 00 00 00 00 00 00 00 00 00 00 00 00 00 00 00 00 ................
004060F0 00 00 00 00 00 00 00 00 00 00 00 00 00 00 00 00 ................
00406100 00 00 00 00 00 00 00 00 00 00 00 00 00 00 00 00 ................
00406110 00 00 00 00 00 00 00 00 00 00 00 00 00 00 00 00 ................
00406120 00 00 00 00 00 00 00 00 00 00 00 00 00 00 00 00 ................
00406130 00 00 00 00 00 00 00 00 00 00 00 00 00 00 00 00 ................
00406140 00 00 00 00 00 00 00 00 00 00 00 00 00 00 00 00 ................
00406150 00 00 00 00 00 00 00 00 00 00 00 00 00 00 00 00 ................
00406160 00 00 00 00 00 00 00 00 00 00 00 00 00 00 00 00 ................
00406170 00 00 00 00 00 00 00 00 00 00 00 00 00 00 00 00 ................
00406180 00 00 00 00 00 00 00 00 00 00 00 00 00 00 00 00 ................
00406190 00 00 00 00 00 00 00 00 00 00 00 00 00 00 00 00 ................
004061A0 00 00 00 00 00 00 00 00 00 00 00 00 00 00 00 00 ................
004061B0 00 00 00 00 00 00 00 00 00 00 00 00 00 00 00 00 ................
004061C0 00 00 00 00 00 00 00 00 00 00 00 00 00 00 00 00 ................
004061D0 00 00 00 00 00 00 00 00 00 00 00 00 00 00 00 00 ................
004061E0 00 00 00 00 00 00 00 00 00 00 00 00 00 00 00 00 ................
004061F0 00 00 00 00 00 00 00 00 00 00 00 00 00 00 00 00 ................
00406200 00 00 00 00 00 00 00 00 00 00 00 00 00 00 00 00 ................
00406210 00 00 00 00 00 00 00 00 00 00 00 00 00 00 00 00 ................
00406220 00 00 00 00 00 00 00 00 00 00 00 00 00 00 00 00 ................
00406230 00 00 00 00 00 00 00 00 00 00 00 00 00 00 00 00 ................
00406240 00 00 00 00 00 00 00 00 00 00 00 00 00 00 00 00 ................
00406250 00 00 00 00 00 00 00 00 00 00 00 00 00 00 00 00 ................
00406260 00 00 00 00 00 00 00 00 00 00 00 00 00 00 00 00 ................
00406270 00 00 00 00 00 00 00 00 00 00 00 00 00 00 00 00 ................
00406280 00 00 00 00 00 00 00 00 00 00 00 00 00 00 00 00 ................
00406290 00 00 00 00 00 00 00 00 00 00 00 00 00 00 00 00 ................
004062A0 00 00 00 00 00 00 00 00 00 00 00 00 00 00 00 00 ................
004062B0 00 00 00 00 00 00 00 00 00 00 00 00 00 00 00 00 ................
004062C0 00 00 00 00 00 00 00 00 00 00 00 00 00 00 00 00 ................
004062D0 00 00 00 00 00 00 00 00 00 00 00 00 00 00 00 00 ................
004062E0 00 00 00 00 00 00 00 00 00 00 00 00 00 00 00 00 ................
004062F0 00 00 00 00 00 00 00 00 00 00 00 00 00 00 00 00 ................
00406300 00 00 00 00 00 00 00 00 00 00 00 00 00 00 00 00 ................
00406310 00 00 00 00 00 00 00 00 00 00 00 00 00 00 00 00 ................
00406320 00 00 00 00 00 00 00 00 00 00 00 00 00 00 00 00 ................
00406330 00 00 00 00 00 00 00 00 00 00 00 00 00 00 00 00 ................
00406340 00 00 00 00 00 00 00 00 00 00 00 00 00 00 00 00 ................
00406350 00 00 00 00 00 00 00 00 00 00 00 00 00 00 00 00 ................
00406360 00 00 00 00 00 00 00 00 00 00 00 00 00 00 00 00 ................
00406370 00 00 00 00 00 00 00 00 00 00 00 00 00 00 00 00 ................
00406380 00 00 00 00 00 00 00 00 00 00 00 00 00 00 00 00 ................
00406390 00 00 00 00 00 00 00 00 00 00 00 00 00 00 00 00 ................
004063A0 00 00 00 00 00 00 00 00 00 00 00 00 00 00 00 00 ................
004063B0 00 00 00 00 00 00 00 00 00 00 00 00 00 00 00 00 ................
004063C0 00 00 00 00 00 00 00 00 00 00 00 00 00 00 00 00 ................
004063D0 00 00 00 00 00 00 00 00 00 00 00 00 00 00 00 00 ................
004063E0 00 00 00 00 00 00 00 00 00 00 00 00 00 00 00 00 ................
004063F0 00 00 00 00 00 00 00 00 00 00 00 00 00 00 00 00 ................
00406400 00 00 00 00 00 00 00 00 00 00 00 00 00 00 00 00 ................
00406410 00 00 00 00 00 00 00 00 00 00 00 00 00 00 00 00 ................
00406420 00 00 00 00 00 00 00 00 00 00 00 00 00 00 00 00 ................
00406430 00 00 00 00 00 00 00 00 00 00 00 00 00 00 00 00 ................
00406440 00 00 00 00 00 00 00 00 00 00 00 00 00 00 00 00 ................
00406450 00 00 00 00 00 00 00 00 00 00 00 00 00 00 00 00 ................
00406460 00 00 00 00 00 00 00 00 00 00 00 00 00 00 00 00 ................
00406470 00 00 00 00 00 00 00 00 00 00 00 00 00 00 00 00 ................
00406480 00 00 00 00 00 00 00 00 00 00 00 00 00 00 00 00 ................
00406490 00 00 00 00 00 00 00 00 00 00 00 00 00 00 00 00 ................
004064A0 00 00 00 00 00 00 00 00 00 00 00 00 00 00 00 00 ................
004064B0 00 00 00 00 00 00 00 00 00 00 00 00 00 00 00 00 ................
004064C0 00 00 00 00 00 00 00 00 00 00 00 00 00 00 00 00 ................
004064D0 00 00 00 00 00 00 00 00 00 00 00 00 00 00 00 00 ................
004064E0 00 00 00 00 00 00 00 00 00 00 00 00 00 00 00 00 ................
004064F0 00 00 00 00 00 00 00 00 00 00 00 00 00 00 00 00 ................
00406500 00 00 00 00 00 00 00 00 00 00 00 00 00 00 00 00 ................
00406510 00 00 00 00 00 00 00 00 00 00 00 00 00 00 00 00 ................
00406520 00 00 00 00 00 00 00 00 00 00 00 00 00 00 00 00 ................
00406530 00 00 00 00 00 00 00 00 00 00 00 00 00 00 00 00 ................
00406540 00 00 00 00 00 00 00 00 00 00 00 00 00 00 00 00 ................
00406550 00 00 00 00 00 00 00 00 00 00 00 00 00 00 00 00 ................
00406560 00 00 00 00 00 00 00 00 00 00 00 00 00 00 00 00 ................
00406570 00 00 00 00 00 00 00 00 00 00 00 00 00 00 00 00 ................
00406580 00 00 00 00 00 00 00 00 00 00 00 00 00 00 00 00 ................
00406590 00 00 00 00 00 00 00 00 00 00 00 00 00 00 00 00 ................
004065A0 00 00 00 00 00 00 00 00 00 00 00 00 00 00 00 00 ................
004065B0 00 00 00 00 00 00 00 00 00 00 00 00 00 00 00 00 ................
004065C0 00 00 00 00 00 00 00 00 00 00 00 00 00 00 00 00 ................
004065D0 00 00 00 00 00 00 00 00 00 00 00 00 00 00 00 00 ................
004065E0 00 00 00 00 00 00 00 00 00 00 00 00 00 00 00 00 ................
004065F0 00 00 00 00 00 00 00 00 00 00 00 00 00 00 00 00 ................
00406600 00 00 00 00 00 00 00 00 00 00 00 00 00 00 00 00 ................
00406610 00 00 00 00 00 00 00 00 00 00 00 00 00 00 00 00 ................
00406620 00 00 00 00 00 00 00 00 00 00 00 00 00 00 00 00 ................
00406630 00 00 00 00 00 00 00 00 00 00 00 00 00 00 00 00 ................
00406640 00 00 00 00 00 00 00 00 00 00 00 00 00 00 00 00 ................
00406650 00 00 00 00 00 00 00 00 00 00 00 00 00 00 00 00 ................
00406660 00 00 00 00 00 00 00 00 00 00 00 00 00 00 00 00 ................
00406670 00 00 00 00 00 00 00 00 00 00 00 00 00 00 00 00 ................
00406680 00 00 00 00 00 00 00 00 00 00 00 00 00 00 00 00 ................
00406690 00 00 00 00 00 00 00 00 00 00 00 00 00 00 00 00 ................
004066A0 00 00 00 00 00 00 00 00 00 00 00 00 00 00 00 00 ................
004066B0 00 00 00 00 00 00 00 00 00 00 00 00 00 00 00 00 ................
004066C0 00 00 00 00 00 00 00 00 00 00 00 00 00 00 00 00 ................
004066D0 00 00 00 00 00 00 00 00 00 00 00 00 00 00 00 00 ................
004066E0 00 00 00 00 00 00 00 00 00 00 00 00 00 00 00 00 ................
004066F0 00 00 00 00 00 00 00 00 00 00 00 00 00 00 00 00 ................
00406700 00 00 00 00 00 00 00 00 00 00 00 00 00 00 00 00 ................
00406710 00 00 00 00 00 00 00 00 00 00 00 00 00 00 00 00 ................
00406720 00 00 00 00 00 00 00 00 00 00 00 00 00 00 00 00 ................
00406730 00 00 00 00 00 00 00 00 00 00 00 00 00 00 00 00 ................
00406740 00 00 00 00 00 00 00 00 00 00 00 00 00 00 00 00 ................
00406750 00 00 00 00 00 00 00 00 00 00 00 00 00 00 00 00 ................
00406760 00 00 00 00 00 00 00 00 00 00 00 00 00 00 00 00 ................
00406770 00 00 00 00 00 00 00 00 00 00 00 00 00 00 00 00 ................
00406780 00 00 00 00 00 00 00 00 00 00 00 00 00 00 00 00 ................
00406790 00 00 00 00 00 00 00 00 00 00 00 00 00 00 00 00 ................
004067A0 00 00 00 00 00 00 00 00 00 00 00 00 00 00 00 00 ................
004067B0 00 00 00 00 00 00 00 00 00 00 00 00 00 00 00 00 ................
004067C0 00 00 00 00 00 00 00 00 00 00 00 00 00 00 00 00 ................
004067D0 00 00 00 00 00 00 00 00 00 00 00 00 00 00 00 00 ................
004067E0 00 00 00 00 00 00 00 00 00 00 00 00 00 00 00 00 ................
004067F0 00 00 00 00 00 00 00 00 00 00 00 00 00 00 00 00 ................
00406800 00 00 00 00 00 00 00 00 00 00 00 00 00 00 00 00 ................
00406810 00 00 00 00 00 00 00 00 00 00 00 00 00 00 00 00 ................
00406820 00 00 00 00 00 00 00 00 00 00 00 00 00 00 00 00 ................
00406830 00 00 00 00 00 00 00 00 00 00 00 00 00 00 00 00 ................
00406840 00 00 00 00 00 00 00 00 00 00 00 00 00 00 00 00 ................
00406850 00 00 00 00 00 00 00 00 00 00 00 00 00 00 00 00 ................
00406860 00 00 00 00 00 00 00 00 00 00 00 00 00 00 00 00 ................
00406870 00 00 00 00 00 00 00 00 00 00 00 00 00 00 00 00 ................
00406880 00 00 00 00 00 00 00 00 00 00 00 00 00 00 00 00 ................
00406890 00 00 00 00 00 00 00 00 00 00 00 00 00 00 00 00 ................
004068A0 00 00 00 00 00 00 00 00 00 00 00 00 00 00 00 00 ................
004068B0 00 00 00 00 00 00 00 00 00 00 00 00 00 00 00 00 ................
004068C0 00 00 00 00 00 00 00 00 00 00 00 00 00 00 00 00 ................
004068D0 00 00 00 00 00 00 00 00 00 00 00 00 00 00 00 00 ................
004068E0 00 00 00 00 00 00 00 00 00 00 00 00 00 00 00 00 ................
004068F0 00 00 00 00 00 00 00 00 00 00 00 00 00 00 00 00 ................
00406900 00 00 00 00 00 00 00 00 00 00 00 00 00 00 00 00 ................
00406910 00 00 00 00 00 00 00 00 00 00 00 00 00 00 00 00 ................
00406920 00 00 00 00 00 00 00 00 00 00 00 00 00 00 00 00 ................
00406930 00 00 00 00 00 00 00 00 00 00 00 00 00 00 00 00 ................
00406940 00 00 00 00 00 00 00 00 00 00 00 00 00 00 00 00 ................
00406950 00 00 00 00 00 00 00 00 00 00 00 00 00 00 00 00 ................
00406960 00 00 00 00 00 00 00 00 00 00 00 00 00 00 00 00 ................
00406970 00 00 00 00 00 00 00 00 00 00 00 00 00 00 00 00 ................
00406980 00 00 00 00 00 00 00 00 00 00 00 00 00 00 00 00 ................
00406990 00 00 00 00 00 00 00 00 00 00 00 00 00 00 00 00 ................
004069A0 00 00 00 00 00 00 00 00 00 00 00 00 00 00 00 00 ................
004069B0 00 00 00 00 00 00 00 00 00 00 00 00 00 00 00 00 ................
004069C0 00 00 00 00 00 00 00 00 00 00 00 00 00 00 00 00 ................
004069D0 00 00 00 00 00 00 00 00 00 00 00 00 00 00 00 00 ................
004069E0 00 00 00 00 00 00 00 00 00 00 00 00 00 00 00 00 ................
004069F0 00 00 00 00 00 00 00 00 00 00 00 00 00 00 00 00 ................
00406A00 00 00 00 00 00 00 00 00 00 00 00 00 00 00 00 00 ................
00406A10 00 00 00 00 00 00 00 00 00 00 00 00 00 00 00 00 ................
00406A20 00 00 00 00 00 00 00 00 00 00 00 00 00 00 00 00 ................
00406A30 00 00 00 00 00 00 00 00 00 00 00 00 00 00 00 00 ................
00406A40 00 00 00 00 00 00 00 00 00 00 00 00 00 00 00 00 ................
00406A50 00 00 00 00 00 00 00 00 00 00 00 00 00 00 00 00 ................
00406A60 00 00 00 00 00 00 00 00 00 00 00 00 00 00 00 00 ................
00406A70 00 00 00 00 00 00 00 00 00 00 00 00 00 00 00 00 ................
00406A80 00 00 00 00 00 00 00 00 00 00 00 00 00 00 00 00 ................
00406A90 00 00 00 00 00 00 00 00 00 00 00 00 00 00 00 00 ................
00406AA0 00 00 00 00 00 00 00 00 00 00 00 00 00 00 00 00 ................
00406AB0 00 00 00 00 00 00 00 00 00 00 00 00 00 00 00 00 ................
00406AC0 00 00 00 00 00 00 00 00 00 00 00 00 00 00 00 00 ................
00406AD0 00 00 00 00 00 00 00 00 00 00 00 00 00 00 00 00 ................
00406AE0 00 00 00 00 00 00 00 00 00 00 00 00 00 00 00 00 ................
00406AF0 00 00 00 00 00 00 00 00 00 00 00 00 00 00 00 00 ................
00406B00 00 00 00 00 00 00 00 00 00 00 00 00 00 00 00 00 ................
00406B10 00 00 00 00 00 00 00 00 00 00 00 00 00 00 00 00 ................
00406B20 00 00 00 00 00 00 00 00 00 00 00 00 00 00 00 00 ................
00406B30 00 00 00 00 00 00 00 00 00 00 00 00 00 00 00 00 ................
00406B40 00 00 00 00 00 00 00 00 00 00 00 00 00 00 00 00 ................
00406B50 00 00 00 00 00 00 00 00 00 00 00 00 00 00 00 00 ................
00406B60 00 00 00 00 00 00 00 00 00 00 00 00 00 00 00 00 ................
00406B70 00 00 00 00 00 00 00 00 00 00 00 00 00 00 00 00 ................
00406B80 00 00 00 00 00 00 00 00 00 00 00 00 00 00 00 00 ................
00406B90 00 00 00 00 00 00 00 00 00 00 00 00 00 00 00 00 ................
00406BA0 00 00 00 00 00 00 00 00 00 00 00 00 00 00 00 00 ................
00406BB0 00 00 00 00 00 00 00 00 00 00 00 00 00 00 00 00 ................
00406BC0 00 00 00 00 00 00 00 00 00 00 00 00 00 00 00 00 ................
00406BD0 00 00 00 00 00 00 00 00 00 00 00 00 00 00 00 00 ................
00406BE0 00 00 00 00 00 00 00 00 00 00 00 00 00 00 00 00 ................
00406BF0 00 00 00 00 00 00 00 00 00 00 00 00 00 00 00 00 ................
00406C00 00 00 00 00 00 00 00 00 00 00 00 00 00 00 00 00 ................
00406C10 00 00 00 00 00 00 00 00 00 00 00 00 00 00 00 00 ................
00406C20 00 00 00 00 00 00 00 00 00 00 00 00 00 00 00 00 ................
00406C30 00 00 00 00 00 00 00 00 00 00 00 00 00 00 00 00 ................
00406C40 00 00 00 00 00 00 00 00 00 00 00 00 00 00 00 00 ................
00406C50 00 00 00 00 00 00 00 00 00 00 00 00 00 00 00 00 ................
00406C60 00 00 00 00 00 00 00 00 00 00 00 00 00 00 00 00 ................
00406C70 00 00 00 00 00 00 00 00 00 00 00 00 00 00 00 00 ................
00406C80 00 00 00 00 00 00 00 00 00 00 00 00 00 00 00 00 ................
00406C90 00 00 00 00 00 00 00 00 00 00 00 00 00 00 00 00 ................
00406CA0 00 00 00 00 00 00 00 00 00 00 00 00 00 00 00 00 ................
00406CB0 00 00 00 00 00 00 00 00 00 00 00 00 00 00 00 00 ................
00406CC0 00 00 00 00 00 00 00 00 00 00 00 00 00 00 00 00 ................
00406CD0 00 00 00 00 00 00 00 00 00 00 00 00 00 00 00 00 ................
00406CE0 00 00 00 00 00 00 00 00 00 00 00 00 00 00 00 00 ................
00406CF0 00 00 00 00 00 00 00 00 00 00 00 00 00 00 00 00 ................
00406D00 00 00 00 00 00 00 00 00 00 00 00 00 00 00 00 00 ................
00406D10 00 00 00 00 00 00 00 00 00 00 00 00 00 00 00 00 ................
00406D20 00 00 00 00 00 00 00 00 00 00 00 00 00 00 00 00 ................
00406D30 00 00 00 00 00 00 00 00 00 00 00 00 00 00 00 00 ................
00406D40 00 00 00 00 00 00 00 00 00 00 00 00 00 00 00 00 ................
00406D50 00 00 00 00 00 00 00 00 00 00 00 00 00 00 00 00 ................
00406D60 00 00 00 00 00 00 00 00 00 00 00 00 00 00 00 00 ................
00406D70 00 00 00 00 00 00 00 00 00 00 00 00 00 00 00 00 ................
00406D80 00 00 00 00 00 00 00 00 00 00 00 00 00 00 00 00 ................
00406D90 00 00 00 00 00 00 00 00 00 00 00 00 00 00 00 00 ................
00406DA0 00 00 00 00 00 00 00 00 00 00 00 00 00 00 00 00 ................
00406DB0 00 00 00 00 00 00 00 00 00 00 00 00 00 00 00 00 ................
00406DC0 00 00 00 00 00 00 00 00 00 00 00 00 00 00 00 00 ................
00406DD0 00 00 00 00 00 00 00 00 00 00 00 00 00 00 00 00 ................
00406DE0 00 00 00 00 00 00 00 00 00 00 00 00 00 00 00 00 ................
00406DF0 00 00 00 00 00 00 00 00 00 00 00 00 00 00 00 00 ................
00406E00 00 00 00 00 00 00 00 00 00 00 00 00 00 00 00 00 ................
00406E10 00 00 00 00 00 00 00 00 00 00 00 00 00 00 00 00 ................
00406E20 00 00 00 00 00 00 00 00 00 00 00 00 00 00 00 00 ................
00406E30 00 00 00 00 00 00 00 00 00 00 00 00 00 00 00 00 ................
00406E40 00 00 00 00 00 00 00 00 00 00 00 00 00 00 00 00 ................
00406E50 00 00 00 00 00 00 00 00 00 00 00 00 00 00 00 00 ................
00406E60 00 00 00 00 00 00 00 00 00 00 00 00 00 00 00 00 ................
00406E70 00 00 00 00 00 00 00 00 00 00 00 00 00 00 00 00 ................
00406E80 00 00 00 00 00 00 00 00 00 00 00 00 00 00 00 00 ................
00406E90 00 00 00 00 00 00 00 00 00 00 00 00 00 00 00 00 ................
00406EA0 00 00 00 00 00 00 00 00 00 00 00 00 00 00 00 00 ................
00406EB0 00 00 00 00 00 00 00 00 00 00 00 00 00 00 00 00 ................
00406EC0 00 00 00 00 00 00 00 00 00 00 00 00 00 00 00 00 ................
00406ED0 00 00 00 00 00 00 00 00 00 00 00 00 00 00 00 00 ................
00406EE0 00 00 00 00 00 00 00 00 00 00 00 00 00 00 00 00 ................
00406EF0 00 00 00 00 00 00 00 00 00 00 00 00 00 00 00 00 ................
00406F00 00 00 00 00 00 00 00 00 00 00 00 00 00 00 00 00 ................
00406F10 00 00 00 00 00 00 00 00 00 00 00 00 00 00 00 00 ................
00406F20 00 00 00 00 00 00 00 00 00 00 00 00 00 00 00 00 ................
00406F30 00 00 00 00 00 00 00 00 00 00 00 00 00 00 00 00 ................
00406F40 00 00 00 00 00 00 00 00 00 00 00 00 00 00 00 00 ................
00406F50 00 00 00 00 00 00 00 00 00 00 00 00 00 00 00 00 ................
00406F60 00 00 00 00 00 00 00 00 00 00 00 00 00 00 00 00 ................
00406F70 00 00 00 00 00 00 00 00 00 00 00 00 00 00 00 00 ................
00406F80 00 00 00 00 00 00 00 00 00 00 00 00 00 00 00 00 ................
00406F90 00 00 00 00 00 00 00 00 00 00 00 00 00 00 00 00 ................
00406FA0 00 00 00 00 00 00 00 00 00 00 00 00 00 00 00 00 ................
00406FB0 00 00 00 00 00 00 00 00 00 00 00 00 00 00 00 00 ................
00406FC0 00 00 00 00 00 00 00 00 00 00 00 00 00 00 00 00 ................
00406FD0 00 00 00 00 00 00 00 00 00 00 00 00 00 00 00 00 ................
00406FE0 00 00 00 00 00 00 00 00 00 00 00 00 00 00 00 00 ................
00406FF0 00 00 00 00 00 00 00 00 00 00 00 00 00 00 00 00 ................
00407000 00 00 00 00 00 00 00 00 00 00 00 00 00 00 00 00 ................
00407010 00 00 00 00 00 00 00 00 00 00 00 00 00 00 00 00 ................
00407020 00 00 00 00 00 00 00 00 00 00 00 00 00 00 00 00 ................
00407030 00 00 00 00 00 00 00 00 00 00 00 00 00 00 00 00 ................
00407040 00 00 00 00 00 00 00 00 00 00 00 00 00 00 00 00 ................
00407050 00 00 00 00 00 00 00 00 00 00 00 00 00 00 00 00 ................
00407060 00 00 00 00 00 00 00 00 00 00 00 00 00 00 00 00 ................
00407070 00 00 00 00 00 00 00 00 00 00 00 00 00 00 00 00 ................
00407080 00 00 00 00 00 00 00 00 00 00 00 00 00 00 00 00 ................
00407090 00 00 00 00 00 00 00 00 00 00 00 00 00 00 00 00 ................
004070A0 00 00 00 00 00 00 00 00 00 00 00 00 00 00 00 00 ................
004070B0 00 00 00 00 00 00 00 00 00 00 00 00 00 00 00 00 ................
004070C0 00 00 00 00 00 00 00 00 00 00 00 00 00 00 00 00 ................
004070D0 00 00 00 00 00 00 00 00 00 00 00 00 00 00 00 00 ................
004070E0 00 00 00 00 00 00 00 00 00 00 00 00 00 00 00 00 ................
004070F0 00 00 00 00 00 00 00 00 00 00 00 00 00 00 00 00 ................
00407100 00 00 00 00 09 23 40 00 00 00 00 00 00 00 00 00 .....#@.........
00407110 00 00 00 00 00 00 00 00 00 00 00 00 00 00 00 00 ................
00407120 00 00 00 00 00 00 00 00 00 00 00 00 00 00 00 00 ................
00407130 00 00 00 00 00 00 00 00 00 00 00 00 00 00 00 00 ................
00407140 00 00 00 00 00 00 00 00 00 00 00 00 00 00 00 00 ................
00407150 00 00 00 00 00 00 00 00 00 00 00 00 00 00 00 00 ................
00407160 00 00 00 00 00 00 00 00 00 00 00 00 00 00 00 00 ................
00407170 00 00 00 00 00 00 00 00 00 00 00 00 00 00 00 00 ................
00407180 00 00 00 00 00 00 00 00 00 00 00 00 00 00 00 00 ................
00407190 00 00 00 00 00 00 00 00 00 00 00 00 00 00 00 00 ................
004071A0 00 00 00 00 00 00 00 00 00 00 00 00 00 00 00 00 ................
004071B0 00 00 00 00 00 00 00 00 00 00 00 00 00 00 00 00 ................
004071C0 00 00 00 00 00 00 00 00 00 00 00 00 00 00 00 00 ................
004071D0 00 00 00 00 00 00 00 00 00 00 00 00 00 00 00 00 ................
004071E0 00 00 00 00 00 00 00 00 00 00 00 00 00 00 00 00 ................
004071F0 00 00 00 00 00 00 00 00 00 00 00 00 00 00 00 00 ................
00407200 00 00 00 00 00 00 00 00 00 00 00 00 00 00 00 00 ................
00407210 00 00 00 00 00 00 00 00 00 00 00 00 00 00 00 00 ................
00407220 00 00 00 00 00 00 00 00 00 00 00 00 00 00 00 00 ................
00407230 00 00 00 00 00 00 00 00 00 00 00 00 00 00 00 00 ................
00407240 00 00 00 00 00 00 00 00 00 00 00 00 00 00 00 00 ................
00407250 00 00 00 00 00 00 00 00 00 00 00 00 00 00 00 00 ................
00407260 00 00 00 00 00 00 00 00 00 00 00 00 00 00 00 00 ................
00407270 00 00 00 00 00 00 00 00 00 00 00 00 00 00 00 00 ................
00407280 00 00 00 00 00 00 00 00 00 00 00 00 00 00 00 00 ................
00407290 00 00 00 00 00 00 00 00 00 00 00 00 00 00 00 00 ................
004072A0 00 00 00 00 00 00 00 00 00 00 00 00 00 00 00 00 ................
004072B0 00 00 00 00 00 00 00 00 00 00 00 00 00 00 00 00 ................
004072C0 00 00 00 00 00 00 00 00 00 00 00 00 00 00 00 00 ................
004072D0 00 00 00 00 00 00 00 00 00 00 00 00 00 00 00 00 ................
004072E0 00 00 00 00 00 00 00 00 00 00 00 00 00 00 00 00 ................
004072F0 00 00 00 00 00 00 00 00 00 00 00 00 00 00 00 00 ................
00407300 00 00 00 00 00 00 00 00 00 00 00 00 00 00 00 00 ................
00407310 00 00 00 00 00 00 00 00 00 00 00 00 00 00 00 00 ................
00407320 00 00 00 00 00 00 00 00 00 00 00 00 00 00 00 00 ................
00407330 00 00 00 00 00 00 00 00 00 00 00 00 00 00 00 00 ................
00407340 00 00 00 00 00 00 00 00 00 00 00 00 00 00 00 00 ................
00407350 00 00 00 00 00 00 00 00 00 00 00 00 00 00 00 00 ................
00407360 00 00 00 00 00 00 00 00 00 00 00 00 00 00 00 00 ................
00407370 00 00 00 00 00 00 00 00 00 00 00 00 00 00 00 00 ................
00407380 00 00 00 00 00 00 00 00 00 00 00 00 00 00 00 00 ................
00407390 00 00 00 00 00 00 00 00 00 00 00 00 00 00 00 00 ................
004073A0 00 00 00 00 00 00 00 00 00 00 00 00 00 00 00 00 ................
004073B0 00 00 00 00 00 00 00 00 00 00 00 00 00 00 00 00 ................
004073C0 00 00 00 00 00 00 00 00 00 00 00 00 00 00 00 00 ................
004073D0 00 00 00 00 00 00 00 00 00 00 00 00 00 00 00 00 ................
004073E0 00 00 00 00 00 00 00 00 00 00 00 00 00 00 00 00 ................
004073F0 00 00 00 00 00 00 00 00 00 00 00 00 00 00 00 00 ................
00407400 00 00 00 00 00 00 00 00 00 00 00 00 00 00 00 00 ................
00407410 05 22 40 00 00 00 00 00 00 00 00 00 00 00 00 00 ."@.............
00407420 00 00 00 00 00 00 00 00 00 00 00 00 00 00 00 00 ................
00407430 00 00 00 00 00 00 00 00 00 00 00 00 00 00 00 00 ................
00407440 00 00 00 00 00 00 00 00 00 00 00 00 00 00 00 00 ................
00407450 00 00 00 00 00 00 00 00 00 00 00 00 00 00 00 00 ................
00407460 00 00 00 00 00 00 00 00 00 00 00 00 00 00 00 00 ................
00407470 00 00 00 00 00 00 00 00 00 00 00 00 00 00 00 00 ................
00407480 00 00 00 00 00 00 00 00 00 00 00 00 00 00 00 00 ................
00407490 00 00 00 00 00 00 00 00 00 00 00 00 00 00 00 00 ................
004074A0 00 00 00 00 00 00 00 00 00 00 00 00 00 00 00 00 ................
004074B0 00 00 00 00 00 00 00 00 00 00 00 00 00 00 00 00 ................
004074C0 00 00 00 00 00 00 00 00 00 00 00 00 00 00 00 00 ................
004074D0 00 00 00 00 00 00 00 00 00 00 00 00 00 00 00 00 ................
004074E0 00 00 00 00 00 00 00 00 00 00 00 00 00 00 00 00 ................
004074F0 00 00 00 00 00 00 00 00 00 00 00 00 00 00 00 00 ................
00407500 00 00 00 00 00 00 00 00 00 00 00 00 00 00 00 00 ................
00407510 00 00 00 00 05 2C 40 00 00 00 00 00 00 00 00 00 .....,@.........
00407520 00 00 00 00 00 00 00 00 00 00 00 00 00 00 00 00 ................
00407530 00 00 00 00 00 00 00 00 00 00 00 00 00 00 00 00 ................
00407540 00 00 00 00 00 00 00 00 00 00 00 00 00 00 00 00 ................
00407550 00 00 00 00 00 00 00 00 00 00 00 00 00 00 00 00 ................
00407560 00 00 00 00 00 00 00 00 00 00 00 00 00 00 00 00 ................
00407570 00 00 00 00 00 00 00 00 00 00 00 00 00 00 00 00 ................
00407580 00 00 00 00 00 00 00 00 00 00 00 00 00 00 00 00 ................
00407590 00 00 00 00 00 00 00 00 00 00 00 00 00 00 00 00 ................
004075A0 00 00 00 00 00 00 00 00 00 00 00 00 00 00 00 00 ................
004075B0 00 00 00 00 00 00 00 00 00 00 00 00 00 00 00 00 ................
004075C0 00 00 00 00 00 00 00 00 00 00 00 00 00 00 00 00 ................
004075D0 00 00 00 00 00 00 00 00 00 00 00 00 00 00 00 00 ................
004075E0 00 00 00 00 00 00 00 00 00 00 00 00 00 00 00 00 ................
004075F0 00 00 00 00 00 00 00 00 00 00 00 00 00 00 00 00 ................
00407600 00 00 00 00 00 00 00 00 00 00 00 00 00 00 00 00 ................
00407610 00 00 00 00 00 00 00 00 B9 28 40 00 00 00 00 00 .........(@.....
00407620 00 00 00 00 00 00 00 00 00 00 00 00 00 00 00 00 ................
00407630 00 00 00 00 00 00 00 00 00 00 00 00 00 00 00 00 ................
00407640 00 00 00 00 00 00 00 00 00 00 00 00 00 00 00 00 ................
00407650 00 00 00 00 00 00 00 00 00 00 00 00 00 00 00 00 ................
00407660 00 00 00 00 00 00 00 00 00 00 00 00 00 00 00 00 ................
00407670 00 00 00 00 00 00 00 00 00 00 00 00 00 00 00 00 ................
00407680 00 00 00 00 00 00 00 00 00 00 00 00 00 00 00 00 ................
00407690 00 00 00 00 00 00 00 00 00 00 00 00 00 00 00 00 ................
004076A0 00 00 00 00 00 00 00 00 00 00 00 00 00 00 00 00 ................
004076B0 00 00 00 00 00 00 00 00 00 00 00 00 00 00 00 00 ................
004076C0 00 00 00 00 00 00 00 00 00 00 00 00 00 00 00 00 ................
004076D0 00 00 00 00 00 00 00 00 00 00 00 00 00 00 00 00 ................
004076E0 00 00 00 00 00 00 00 00 00 00 00 00 00 00 00 00 ................
004076F0 00 00 00 00 00 00 00 00 00 00 00 00 00 00 00 00 ................
00407700 00 00 00 00 00 00 00 00 00 00 00 00 00 00 00 00 ................
00407710 00 00 00 00 00 00 00 00 00 00 00 00 00 00 00 00 ................
00407720 00 00 00 00 00 00 00 00 00 00 00 00 00 00 00 00 ................
00407730 00 00 00 00 00 00 00 00 00 00 00 00 00 00 00 00 ................
00407740 00 00 00 00 00 00 00 00 00 00 00 00 00 00 00 00 ................
00407750 00 00 00 00 00 00 00 00 00 00 00 00 00 00 00 00 ................
00407760 00 00 00 00 00 00 00 00 00 00 00 00 00 00 00 00 ................
00407770 00 00 00 00 00 00 00 00 00 00 00 00 00 00 00 00 ................
00407780 00 00 00 00 00 00 00 00 00 00 00 00 00 00 00 00 ................
00407790 00 00 00 00 00 00 00 00 00 00 00 00 00 00 00 00 ................
004077A0 00 00 00 00 00 00 00 00 00 00 00 00 00 00 00 00 ................
004077B0 00 00 00 00 00 00 00 00 00 00 00 00 00 00 00 00 ................
004077C0 00 00 00 00 00 00 00 00 00 00 00 00 00 00 00 00 ................
004077D0 00 00 00 00 00 00 00 00 00 00 00 00 00 00 00 00 ................
004077E0 00 00 00 00 00 00 00 00 00 00 00 00 00 00 00 00 ................
004077F0 00 00 00 00 00 00 00 00 00 00 00 00 00 00 00 00 ................
00407800 00 00 00 00 00 00 00 00 00 00 00 00 00 00 00 00 ................
00407810 00 00 00 00 00 00 00 00 00 00 00 00 00 00 00 00 ................
00407820 00 00 00 00 04 1E CB 55 00 00 00 00 02 00 00 00 .......U........
00407830 6D 00 00 00 FC 85 00 00 FC 71 00 00 00 00 00 00 m........q......
00407840 04 1E CB 55 00 00 00 00 0C 00 00 00 14 00 00 00 ...U............
00407850 6C 86 00 00 6C 72 00 00 48 65 6C 6C 6F 20 41 52 l...lr..Hello AR
00407860 4D 21 00 00 00 00 00 00 5F 00 5F 00 6E 00 61 00 M!......_._.n.a.
00407870 74 00 69 00 76 00 65 00 5F 00 73 00 74 00 61 00 t.i.v.e._.s.t.a.
00407880 72 00 74 00 75 00 70 00 5F 00 73 00 74 00 61 00 r.t.u.p._.s.t.a.
00407890 74 00 65 00 20 00 3D 00 3D 00 20 00 5F 00 5F 00 t.e. .=.=. ._._.
004078A0 69 00 6E 00 69 00 74 00 69 00 61 00 6C 00 69 00 i.n.i.t.i.a.l.i.
004078B0 7A 00 65 00 64 00 00 00 25 00 73 00 00 00 00 00 z.e.d...%.s.....
004078C0 66 00 3A 00 5C 00 64 00 64 00 5C 00 76 00 63 00 f.:.\.d.d.\.v.c.
004078D0 74 00 6F 00 6F 00 6C 00 73 00 5C 00 63 00 72 00 t.o.o.l.s.\.c.r.
004078E0 74 00 5C 00 63 00 72 00 74 00 77 00 33 00 32 00 t.\.c.r.t.w.3.2.
004078F0 5C 00 64 00 6C 00 6C 00 73 00 74 00 75 00 66 00 \.d.l.l.s.t.u.f.
00407900 66 00 5C 00 63 00 72 00 74 00 65 00 78 00 65 00 f.\.c.r.t.e.x.e.
00407910 2E 00 63 00 00 00 00 00 2C 79 40 00 48 79 40 00 ..c.....,y@.Hy@.
00407920 74 79 40 00 8C 79 40 00 B8 79 40 00 53 74 61 63 ty@..y@..y@.Stac
00407930 6B 20 70 6F 69 6E 74 65 72 20 63 6F 72 72 75 70 k pointer corrup
00407940 74 69 6F 6E 00 00 00 00 43 61 73 74 20 74 6F 20 tion....Cast to 
00407950 73 6D 61 6C 6C 65 72 20 74 79 70 65 20 63 61 75 smaller type cau
00407960 73 69 6E 67 20 6C 6F 73 73 20 6F 66 20 64 61 74 sing loss of dat
00407970 61 00 00 00 53 74 61 63 6B 20 6D 65 6D 6F 72 79 a...Stack memory
00407980 20 63 6F 72 72 75 70 74 69 6F 6E 00 4C 6F 63 61  corruption.Loca
00407990 6C 20 76 61 72 69 61 62 6C 65 20 75 73 65 64 20 l variable used 
004079A0 62 65 66 6F 72 65 20 69 6E 69 74 69 61 6C 69 7A before initializ
004079B0 61 74 69 6F 6E 00 00 00 53 74 61 63 6B 20 61 72 ation...Stack ar
004079C0 6F 75 6E 64 20 5F 61 6C 6C 6F 63 61 20 63 6F 72 ound _alloca cor
004079D0 72 75 70 74 65 64 00 00 00 00 00 00 01 00 00 00 rupted..........
004079E0 02 00 00 00 03 00 00 00 04 00 00 00 00 00 00 00 ................
004079F0 28 00 5F 00 5F 00 6F 00 6E 00 65 00 78 00 69 00 (._._.o.n.e.x.i.
00407A00 74 00 62 00 65 00 67 00 69 00 6E 00 20 00 21 00 t.b.e.g.i.n. .!.
00407A10 3D 00 20 00 4E 00 55 00 4C 00 4C 00 20 00 26 00 =. .N.U.L.L. .&.
00407A20 26 00 20 00 5F 00 5F 00 6F 00 6E 00 65 00 78 00 &. ._._.o.n.e.x.
00407A30 69 00 74 00 65 00 6E 00 64 00 20 00 21 00 3D 00 i.t.e.n.d. .!.=.
00407A40 20 00 4E 00 55 00 4C 00 4C 00 29 00 20 00 7C 00  .N.U.L.L.). .|.
00407A50 7C 00 20 00 28 00 5F 00 5F 00 6F 00 6E 00 65 00 |. .(._._.o.n.e.
00407A60 78 00 69 00 74 00 62 00 65 00 67 00 69 00 6E 00 x.i.t.b.e.g.i.n.
00407A70 20 00 3D 00 3D 00 20 00 4E 00 55 00 4C 00 4C 00  .=.=. .N.U.L.L.
00407A80 20 00 26 00 26 00 20 00 5F 00 5F 00 6F 00 6E 00  .&.&. ._._.o.n.
00407A90 65 00 78 00 69 00 74 00 65 00 6E 00 64 00 20 00 e.x.i.t.e.n.d. .
00407AA0 3D 00 3D 00 20 00 4E 00 55 00 4C 00 4C 00 29 00 =.=. .N.U.L.L.).
00407AB0 00 00 00 00 00 00 00 00 66 00 3A 00 5C 00 64 00 ........f.:.\.d.
00407AC0 64 00 5C 00 76 00 63 00 74 00 6F 00 6F 00 6C 00 d.\.v.c.t.o.o.l.
00407AD0 73 00 5C 00 63 00 72 00 74 00 5C 00 63 00 72 00 s.\.c.r.t.\.c.r.
00407AE0 74 00 77 00 33 00 32 00 5C 00 64 00 6C 00 6C 00 t.w.3.2.\.d.l.l.
00407AF0 73 00 74 00 75 00 66 00 66 00 5C 00 61 00 74 00 s.t.u.f.f.\.a.t.
00407B00 6F 00 6E 00 65 00 78 00 69 00 74 00 2E 00 63 00 o.n.e.x.i.t...c.
00407B10 00 00 00 00 66 3A 5C 64 64 5C 76 63 74 6F 6F 6C ....f:\dd\vctool
00407B20 73 5C 63 72 74 5C 63 72 74 77 33 32 5C 64 6C 6C s\crt\crtw32\dll
00407B30 73 74 75 66 66 5C 61 74 6F 6E 65 78 69 74 2E 63 stuff\atonexit.c
00407B40 00 00 00 00 E0 7B 40 00 C0 7C 40 00 E0 7D 40 00 .....{@..|@..}@.
00407B50 00 7E 40 00 38 7E 40 00 64 7E 40 00 01 00 00 00 .~@.8~@.d~@.....
00407B60 00 00 00 00 01 00 00 00 01 00 00 00 01 00 00 00 ................
00407B70 01 00 00 00 53 74 61 63 6B 20 61 72 6F 75 6E 64 ....Stack around
00407B80 20 74 68 65 20 76 61 72 69 61 62 6C 65 20 27 00  the variable '.
00407B90 27 20 77 61 73 20 63 6F 72 72 75 70 74 65 64 2E ' was corrupted.
00407BA0 00 00 00 00 54 68 65 20 76 61 72 69 61 62 6C 65 ....The variable
00407BB0 20 27 00 00 27 20 69 73 20 62 65 69 6E 67 20 75  '..' is being u
00407BC0 73 65 64 20 77 69 74 68 6F 75 74 20 62 65 69 6E sed without bein
00407BD0 67 20 69 6E 69 74 69 61 6C 69 7A 65 64 2E 00 00 g initialized...
00407BE0 54 68 65 20 76 61 6C 75 65 20 6F 66 20 45 53 50 The value of ESP
00407BF0 20 77 61 73 20 6E 6F 74 20 70 72 6F 70 65 72 6C  was not properl
00407C00 79 20 73 61 76 65 64 20 61 63 72 6F 73 73 20 61 y saved across a
00407C10 20 66 75 6E 63 74 69 6F 6E 20 63 61 6C 6C 2E 20  function call. 
00407C20 20 54 68 69 73 20 69 73 20 75 73 75 61 6C 6C 79  This is usually
00407C30 20 61 20 72 65 73 75 6C 74 20 6F 66 20 63 61 6C  a result of cal
00407C40 6C 69 6E 67 20 61 20 66 75 6E 63 74 69 6F 6E 20 ling a function 
00407C50 64 65 63 6C 61 72 65 64 20 77 69 74 68 20 6F 6E declared with on
00407C60 65 20 63 61 6C 6C 69 6E 67 20 63 6F 6E 76 65 6E e calling conven
00407C70 74 69 6F 6E 20 77 69 74 68 20 61 20 66 75 6E 63 tion with a func
00407C80 74 69 6F 6E 20 70 6F 69 6E 74 65 72 20 64 65 63 tion pointer dec
00407C90 6C 61 72 65 64 20 77 69 74 68 20 61 20 64 69 66 lared with a dif
00407CA0 66 65 72 65 6E 74 20 63 61 6C 6C 69 6E 67 20 63 ferent calling c
00407CB0 6F 6E 76 65 6E 74 69 6F 6E 2E 0A 0D 00 00 00 00 onvention.......
00407CC0 41 20 63 61 73 74 20 74 6F 20 61 20 73 6D 61 6C A cast to a smal
00407CD0 6C 65 72 20 64 61 74 61 20 74 79 70 65 20 68 61 ler data type ha
00407CE0 73 20 63 61 75 73 65 64 20 61 20 6C 6F 73 73 20 s caused a loss 
00407CF0 6F 66 20 64 61 74 61 2E 20 20 49 66 20 74 68 69 of data.  If thi
00407D00 73 20 77 61 73 20 69 6E 74 65 6E 74 69 6F 6E 61 s was intentiona
00407D10 6C 2C 20 79 6F 75 20 73 68 6F 75 6C 64 20 6D 61 l, you should ma
00407D20 73 6B 20 74 68 65 20 73 6F 75 72 63 65 20 6F 66 sk the source of
00407D30 20 74 68 65 20 63 61 73 74 20 77 69 74 68 20 74  the cast with t
00407D40 68 65 20 61 70 70 72 6F 70 72 69 61 74 65 20 62 he appropriate b
00407D50 69 74 6D 61 73 6B 2E 20 20 46 6F 72 20 65 78 61 itmask.  For exa
00407D60 6D 70 6C 65 3A 20 20 0A 0D 09 63 68 61 72 20 63 mple:  ...char c
00407D70 20 3D 20 28 69 20 26 20 30 78 46 46 29 3B 0A 0D  = (i & 0xFF);..
00407D80 43 68 61 6E 67 69 6E 67 20 74 68 65 20 63 6F 64 Changing the cod
00407D90 65 20 69 6E 20 74 68 69 73 20 77 61 79 20 77 69 e in this way wi
00407DA0 6C 6C 20 6E 6F 74 20 61 66 66 65 63 74 20 74 68 ll not affect th
00407DB0 65 20 71 75 61 6C 69 74 79 20 6F 66 20 74 68 65 e quality of the
00407DC0 20 72 65 73 75 6C 74 69 6E 67 20 6F 70 74 69 6D  resulting optim
00407DD0 69 7A 65 64 20 63 6F 64 65 2E 0A 0D 00 00 00 00 ized code.......
00407DE0 53 74 61 63 6B 20 6D 65 6D 6F 72 79 20 77 61 73 Stack memory was
00407DF0 20 63 6F 72 72 75 70 74 65 64 0A 0D 00 00 00 00  corrupted......
00407E00 41 20 6C 6F 63 61 6C 20 76 61 72 69 61 62 6C 65 A local variable
00407E10 20 77 61 73 20 75 73 65 64 20 62 65 66 6F 72 65  was used before
00407E20 20 69 74 20 77 61 73 20 69 6E 69 74 69 61 6C 69  it was initiali
00407E30 7A 65 64 0A 0D 00 00 00 53 74 61 63 6B 20 6D 65 zed.....Stack me
00407E40 6D 6F 72 79 20 61 72 6F 75 6E 64 20 5F 61 6C 6C mory around _all
00407E50 6F 63 61 20 77 61 73 20 63 6F 72 72 75 70 74 65 oca was corrupte
00407E60 64 0A 0D 00 55 6E 6B 6E 6F 77 6E 20 52 75 6E 74 d...Unknown Runt
00407E70 69 6D 65 20 43 68 65 63 6B 20 45 72 72 6F 72 0A ime Check Error.
00407E80 0D 00 00 00 00 00 00 00 52 00 75 00 6E 00 74 00 ........R.u.n.t.
00407E90 69 00 6D 00 65 00 20 00 43 00 68 00 65 00 63 00 i.m.e. .C.h.e.c.
00407EA0 6B 00 20 00 45 00 72 00 72 00 6F 00 72 00 2E 00 k. .E.r.r.o.r...
00407EB0 0A 00 0D 00 20 00 55 00 6E 00 61 00 62 00 6C 00 .... .U.n.a.b.l.
00407EC0 65 00 20 00 74 00 6F 00 20 00 64 00 69 00 73 00 e. .t.o. .d.i.s.
00407ED0 70 00 6C 00 61 00 79 00 20 00 52 00 54 00 43 00 p.l.a.y. .R.T.C.
00407EE0 20 00 4D 00 65 00 73 00 73 00 61 00 67 00 65 00  .M.e.s.s.a.g.e.
00407EF0 2E 00 00 00 00 00 00 00 52 00 75 00 6E 00 2D 00 ........R.u.n.-.
00407F00 54 00 69 00 6D 00 65 00 20 00 43 00 68 00 65 00 T.i.m.e. .C.h.e.
00407F10 63 00 6B 00 20 00 46 00 61 00 69 00 6C 00 75 00 c.k. .F.a.i.l.u.
00407F20 72 00 65 00 20 00 23 00 25 00 64 00 20 00 2D 00 r.e. .#.%.d. .-.
00407F30 20 00 25 00 73 00 00 00 55 6E 6B 6E 6F 77 6E 20  .%.s...Unknown 
00407F40 46 69 6C 65 6E 61 6D 65 00 00 00 00 55 6E 6B 6E Filename....Unkn
00407F50 6F 77 6E 20 4D 6F 64 75 6C 65 20 4E 61 6D 65 00 own Module Name.
00407F60 52 75 6E 2D 54 69 6D 65 20 43 68 65 63 6B 20 46 Run-Time Check F
00407F70 61 69 6C 75 72 65 20 23 25 64 20 2D 20 25 73 00 ailure #%d - %s.
00407F80 53 74 61 63 6B 20 63 6F 72 72 75 70 74 65 64 20 Stack corrupted 
00407F90 6E 65 61 72 20 75 6E 6B 6E 6F 77 6E 20 76 61 72 near unknown var
00407FA0 69 61 62 6C 65 00 00 00 25 2E 32 58 20 00 00 00 iable...%.2X ...
00407FB0 53 74 61 63 6B 20 61 72 65 61 20 61 72 6F 75 6E Stack area aroun
00407FC0 64 20 5F 61 6C 6C 6F 63 61 20 6D 65 6D 6F 72 79 d _alloca memory
00407FD0 20 72 65 73 65 72 76 65 64 20 62 79 20 74 68 69  reserved by thi
00407FE0 73 20 66 75 6E 63 74 69 6F 6E 20 69 73 20 63 6F s function is co
00407FF0 72 72 75 70 74 65 64 0A 00 00 00 00 0A 44 61 74 rrupted......Dat
00408000 61 3A 20 3C 00 00 00 00 0A 41 6C 6C 6F 63 61 74 a: <.....Allocat
00408010 69 6F 6E 20 6E 75 6D 62 65 72 20 77 69 74 68 69 ion number withi
00408020 6E 20 74 68 69 73 20 66 75 6E 63 74 69 6F 6E 3A n this function:
00408030 20 00 00 00 0A 53 69 7A 65 3A 20 00 0A 41 64 64  ....Size: ..Add
00408040 72 65 73 73 3A 20 30 78 00 00 00 00 00 00 00 00 ress: 0x........
00408050 53 74 61 63 6B 20 61 72 65 61 20 61 72 6F 75 6E Stack area aroun
00408060 64 20 5F 61 6C 6C 6F 63 61 20 6D 65 6D 6F 72 79 d _alloca memory
00408070 20 72 65 73 65 72 76 65 64 20 62 79 20 74 68 69  reserved by thi
00408080 73 20 66 75 6E 63 74 69 6F 6E 20 69 73 20 63 6F s function is co
00408090 72 72 75 70 74 65 64 00 25 73 25 73 25 70 25 73 rrupted.%s%s%p%s
004080A0 25 6C 64 25 73 25 64 25 73 00 00 00 0A 00 00 00 %ld%s%d%s.......
004080B0 3E 20 00 00 25 73 25 73 25 73 25 73 00 00 00 00 > ..%s%s%s%s....
004080C0 41 20 76 61 72 69 61 62 6C 65 20 69 73 20 62 65 A variable is be
004080D0 69 6E 67 20 75 73 65 64 20 77 69 74 68 6F 75 74 ing used without
004080E0 20 62 65 69 6E 67 20 69 6E 69 74 69 61 6C 69 7A  being initializ
004080F0 65 64 2E 00 14 00 00 00 0B 00 00 00 00 00 00 80 ed..............
00408100 FF FF 0F 00 00 00 F0 7F FF FF 0F 00 FF 07 00 00 ................
00408110 62 00 69 00 6E 00 5C 00 4D 00 53 00 50 00 44 00 b.i.n.\.M.S.P.D.
00408120 42 00 31 00 32 00 30 00 2E 00 44 00 4C 00 4C 00 B.1.2.0...D.L.L.
00408130 00 00 00 00 4D 00 53 00 56 00 43 00 52 00 31 00 ....M.S.V.C.R.1.
00408140 32 00 30 00 44 00 2E 00 64 00 6C 00 6C 00 00 00 2.0.D...d.l.l...
00408150 61 00 70 00 69 00 2D 00 6D 00 73 00 2D 00 77 00 a.p.i.-.m.s.-.w.
00408160 69 00 6E 00 2D 00 63 00 6F 00 72 00 65 00 2D 00 i.n.-.c.o.r.e.-.
00408170 72 00 65 00 67 00 69 00 73 00 74 00 72 00 79 00 r.e.g.i.s.t.r.y.
00408180 2D 00 6C 00 31 00 2D 00 31 00 2D 00 30 00 2E 00 -.l.1.-.1.-.0...
00408190 64 00 6C 00 6C 00 00 00 52 65 67 4F 70 65 6E 4B d.l.l...RegOpenK
004081A0 65 79 45 78 57 00 00 00 52 65 67 51 75 65 72 79 eyExW...RegQuery
004081B0 56 61 6C 75 65 45 78 57 00 00 00 00 52 65 67 43 ValueExW....RegC
004081C0 6C 6F 73 65 4B 65 79 00 53 00 4F 00 46 00 54 00 loseKey.S.O.F.T.
004081D0 57 00 41 00 52 00 45 00 5C 00 4D 00 69 00 63 00 W.A.R.E.\.M.i.c.
004081E0 72 00 6F 00 73 00 6F 00 66 00 74 00 5C 00 56 00 r.o.s.o.f.t.\.V.
004081F0 69 00 73 00 75 00 61 00 6C 00 53 00 74 00 75 00 i.s.u.a.l.S.t.u.
00408200 64 00 69 00 6F 00 5C 00 31 00 32 00 2E 00 30 00 d.i.o.\.1.2...0.
00408210 5C 00 53 00 65 00 74 00 75 00 70 00 5C 00 56 00 \.S.e.t.u.p.\.V.
00408220 43 00 00 00 50 00 72 00 6F 00 64 00 75 00 63 00 C...P.r.o.d.u.c.
00408230 74 00 44 00 69 00 72 00 00 00 00 00 44 00 4C 00 t.D.i.r.....D.L.
00408240 4C 00 00 00 4D 00 53 00 50 00 44 00 42 00 31 00 L...M.S.P.D.B.1.
00408250 32 00 30 00 00 00 00 00 4D 00 53 00 50 00 44 00 2.0.....M.S.P.D.
00408260 42 00 31 00 32 00 30 00 00 00 00 00 50 44 42 4F B.1.2.0.....PDBO
00408270 70 65 6E 56 61 6C 69 64 61 74 65 35 00 00 00 00 penValidate5....
00408280 72 00 00 00 78 A1 40 00 C8 A1 40 00 00 00 00 00 r...x.@...@.....
00408290 48 00 00 00 00 00 00 00 00 00 00 00 00 00 00 00 H...............
004082A0 00 00 00 00 00 00 00 00 00 00 00 00 00 00 00 00 ................
004082B0 00 00 00 00 00 00 00 00 00 00 00 00 00 00 00 00 ................
004082C0 00 00 00 00 00 00 00 00 00 00 00 00 20 A0 40 00 ............ .@.
004082D0 00 00 00 00 00 00 00 00 00 00 00 00 00 00 00 00 ................
004082E0 00 00 00 00 00 00 00 00 00 00 00 00 00 00 00 00 ................
004082F0 00 00 00 00 00 00 00 00 00 00 00 00 00 00 00 00 ................
00408300 00 00 00 00 00 00 00 00 00 00 00 00 00 00 00 00 ................
00408310 00 00 00 00 00 00 00 00 00 00 00 00 00 00 00 00 ................
00408320 00 00 00 00 00 00 00 00 00 00 00 00 00 00 00 00 ................
00408330 00 00 00 00 00 00 00 00 00 00 00 00 00 00 00 00 ................
00408340 00 00 00 00 00 00 00 00 00 00 00 00 00 00 00 00 ................
00408350 00 00 00 00 00 00 00 00 00 00 00 00 00 00 00 00 ................
00408360 00 00 00 00 00 00 00 00 00 00 00 00 00 00 00 00 ................
00408370 00 00 00 00 00 00 00 00 00 00 00 00 00 00 00 00 ................
00408380 00 00 00 00 00 00 00 00 00 00 00 00 00 00 00 00 ................
00408390 00 00 00 00 00 00 00 00 00 00 00 00 00 00 00 00 ................
004083A0 00 00 00 00 00 00 00 00 00 00 00 00 00 00 00 00 ................
004083B0 00 00 00 00 00 00 00 00 00 00 00 00 00 00 00 00 ................
004083C0 00 00 00 00 00 00 00 00 00 00 00 00 00 00 00 00 ................
004083D0 00 00 00 00 00 00 00 00 00 00 00 00 00 00 00 00 ................
004083E0 00 00 00 00 00 00 00 00 00 00 00 00 00 00 00 00 ................
004083F0 00 00 00 00 00 00 00 00 00 00 00 00 00 00 00 00 ................
00408400 00 00 00 00 00 00 00 00 00 00 00 00 00 00 00 00 ................
00408410 00 00 00 00 00 00 00 00 00 00 00 00 00 00 00 00 ................
00408420 00 00 00 00 00 00 00 00 00 00 00 00 00 00 00 00 ................
00408430 00 00 00 00 00 00 00 00 00 00 00 00 00 00 00 00 ................
00408440 00 00 00 00 00 00 00 00 00 00 00 00 00 00 00 00 ................
00408450 00 00 00 00 00 00 00 00 00 00 00 00 00 00 00 00 ................
00408460 00 00 00 00 00 00 00 00 00 00 00 00 00 00 00 00 ................
00408470 00 00 00 00 00 00 00 00 00 00 00 00 00 00 00 00 ................
00408480 00 00 00 00 00 00 00 00 00 00 00 00 00 00 00 00 ................
00408490 00 00 00 00 00 00 00 00 00 00 00 00 00 00 00 00 ................
004084A0 00 00 00 00 00 00 00 00 00 00 00 00 00 00 00 00 ................
004084B0 00 00 00 00 00 00 00 00 00 00 00 00 00 00 00 00 ................
004084C0 00 00 00 00 00 00 00 00 00 00 00 00 00 00 00 00 ................
004084D0 00 00 00 00 00 00 00 00 00 00 00 00 00 00 00 00 ................
004084E0 00 00 00 00 00 00 00 00 00 00 00 00 00 00 00 00 ................
004084F0 00 00 00 00 00 00 00 00 00 00 00 00 00 00 00 00 ................
00408500 00 00 00 00 00 00 00 00 00 00 00 00 00 00 00 00 ................
00408510 00 00 00 00 00 00 00 00 00 00 00 00 00 00 00 00 ................
00408520 00 00 00 00 00 00 00 00 00 00 00 00 00 00 00 00 ................
00408530 00 00 00 00 00 00 00 00 00 00 00 00 00 00 00 00 ................
00408540 00 00 00 00 00 00 00 00 00 00 00 00 00 00 00 00 ................
00408550 00 00 00 00 00 00 00 00 00 00 00 00 00 00 00 00 ................
00408560 00 00 00 00 00 00 00 00 00 00 00 00 00 00 00 00 ................
00408570 00 00 00 00 00 00 00 00 00 00 00 00 00 00 00 00 ................
00408580 00 00 00 00 00 00 00 00 00 00 00 00 00 00 00 00 ................
00408590 00 00 00 00 00 00 00 00 00 00 00 00 00 00 00 00 ................
004085A0 00 00 00 00 00 00 00 00 00 00 00 00 00 00 00 00 ................
004085B0 00 00 00 00 00 00 00 00 00 00 00 00 00 00 00 00 ................
004085C0 00 00 00 00 00 00 00 00 00 00 00 00 00 00 00 00 ................
004085D0 00 00 00 00 00 00 00 00 00 00 00 00 00 00 00 00 ................
004085E0 00 00 00 00 00 00 00 00 00 00 00 00 00 00 00 00 ................
004085F0 00 00 00 00 00 00 00 00 00 00 00 00 52 53 44 53 ............RSDS
00408600 72 3A D3 76 92 73 64 4E 91 52 D9 FE 1C EB 15 51 r:.v.sdN.R.....Q
00408610 01 00 00 00 63 3A 5C 75 73 65 72 73 5C 68 61 6C ....c:\users\hal
00408620 73 74 65 6E 5C 64 6F 63 75 6D 65 6E 74 73 5C 76 sten\documents\v
00408630 69 73 75 61 6C 20 73 74 75 64 69 6F 20 32 30 31 isual studio 201
00408640 33 5C 50 72 6F 6A 65 63 74 73 5C 54 65 73 74 41 3\Projects\TestA
00408650 52 4D 5C 41 52 4D 5C 44 65 62 75 67 5C 54 65 73 RM\ARM\Debug\Tes
00408660 74 41 52 4D 2E 70 64 62 00 00 00 00 00 00 00 00 tARM.pdb........
00408670 18 00 00 00 18 00 00 00 00 00 00 00 00 00 00 00 ................
00408680 00 00 00 00 00 00 00 00 00 00 00 00 00 00 00 00 ................
00408690 00 00 00 00 00 00 00 00 00 00 00 00 00 00 00 00 ................
004086A0 00 00 00 00 00 00 00 00 00 00 00 00 00 00 00 00 ................
004086B0 00 00 00 00 00 00 00 00 00 00 00 00 00 00 00 00 ................
004086C0 00 00 00 00 00 00 00 00 00 00 00 00 00 00 00 00 ................
004086D0 00 00 00 00 00 00 00 00 00 00 00 00 00 00 00 00 ................
004086E0 00 00 00 00 00 00 00 00 00 00 00 00 00 00 00 00 ................
004086F0 00 00 00 00 00 00 00 00 00 00 00 00 00 00 00 00 ................
00408700 00 00 00 00 00 00 00 00 00 00 00 00 00 00 00 00 ................
00408710 00 00 00 00 00 00 00 00 00 00 00 00 00 00 00 00 ................
00408720 00 00 00 00 00 00 00 00 00 00 00 00 00 00 00 00 ................
00408730 00 00 00 00 00 00 00 00 00 00 00 00 00 00 00 00 ................
00408740 00 00 00 00 00 00 00 00 00 00 00 00 00 00 00 00 ................
00408750 00 00 00 00 00 00 00 00 00 00 00 00 00 00 00 00 ................
00408760 00 00 00 00 00 00 00 00 00 00 00 00 00 00 00 00 ................
00408770 00 00 00 00 00 00 00 00 00 00 00 00 00 00 00 00 ................
00408780 00 00 00 00 00 00 00 00 00 00 00 00 00 00 00 00 ................
00408790 00 00 00 00 00 00 00 00 00 00 00 00 00 00 00 00 ................
004087A0 00 00 00 00 00 00 00 00 00 00 00 00 00 00 00 00 ................
004087B0 00 00 00 00 00 00 00 00 00 00 00 00 00 00 00 00 ................
004087C0 00 00 00 00 00 00 00 00 00 00 00 00 00 00 00 00 ................
004087D0 00 00 00 00 00 00 00 00 00 00 00 00 00 00 00 00 ................
004087E0 00 00 00 00 00 00 00 00 00 00 00 00 00 00 00 00 ................
004087F0 00 00 00 00 00 00 00 00 00 00 00 00 00 00 00 00 ................
00408800 00 00 00 00 00 00 00 00 00 00 00 00 00 00 00 00 ................
00408810 00 00 00 00 00 00 00 00 00 00 00 00 00 00 00 00 ................
00408820 00 00 00 00 00 00 00 00 00 00 00 00 00 00 00 00 ................
00408830 00 00 00 00 00 00 00 00 00 00 00 00 00 00 00 00 ................
00408840 00 00 00 00 00 00 00 00 00 00 00 00 00 00 00 00 ................
00408850 00 00 00 00 00 00 00 00 00 00 00 00 00 00 00 00 ................
00408860 00 00 00 00 00 00 00 00 00 00 00 00 00 00 00 00 ................
00408870 00 00 00 00 00 00 00 00 00 00 00 00 00 00 00 00 ................
00408880 00 00 00 00 00 00 00 00 00 00 00 00 00 00 00 00 ................
00408890 00 00 00 00 00 00 00 00 00 00 00 00 00 00 00 00 ................
004088A0 71 21 40 00 00 00 00 00 00 00 00 00 00 00 00 00 q!@.............
004088B0 00 00 00 00 00 00 00 00 00 00 00 00 00 00 00 00 ................
004088C0 00 00 00 00 00 00 00 00 00 00 00 00 00 00 00 00 ................
004088D0 00 00 00 00 00 00 00 00 00 00 00 00 00 00 00 00 ................
004088E0 00 00 00 00 00 00 00 00 00 00 00 00 00 00 00 00 ................
004088F0 00 00 00 00 00 00 00 00 00 00 00 00 00 00 00 00 ................
00408900 00 00 00 00 00 00 00 00 00 00 00 00 00 00 00 00 ................
00408910 00 00 00 00 00 00 00 00 00 00 00 00 00 00 00 00 ................
00408920 00 00 00 00 00 00 00 00 00 00 00 00 00 00 00 00 ................
00408930 00 00 00 00 00 00 00 00 00 00 00 00 00 00 00 00 ................
00408940 00 00 00 00 00 00 00 00 00 00 00 00 00 00 00 00 ................
00408950 00 00 00 00 00 00 00 00 00 00 00 00 00 00 00 00 ................
00408960 00 00 00 00 00 00 00 00 00 00 00 00 00 00 00 00 ................
00408970 00 00 00 00 00 00 00 00 00 00 00 00 00 00 00 00 ................
00408980 00 00 00 00 00 00 00 00 00 00 00 00 00 00 00 00 ................
00408990 00 00 00 00 00 00 00 00 00 00 00 00 00 00 00 00 ................
004089A0 00 00 00 00 00 00 00 00 00 00 00 00 00 00 00 00 ................
004089B0 00 00 00 00 00 00 00 00 00 00 00 00 00 00 00 00 ................
004089C0 00 00 00 00 00 00 00 00 00 00 00 00 00 00 00 00 ................
004089D0 00 00 00 00 00 00 00 00 00 00 00 00 00 00 00 00 ................
004089E0 00 00 00 00 00 00 00 00 00 00 00 00 00 00 00 00 ................
004089F0 00 00 00 00 00 00 00 00 00 00 00 00 00 00 00 00 ................
00408A00 00 00 00 00 00 00 00 00 00 00 00 00 00 00 00 00 ................
00408A10 00 00 00 00 00 00 00 00 00 00 00 00 00 00 00 00 ................
00408A20 00 00 00 00 00 00 00 00 00 00 00 00 00 00 00 00 ................
00408A30 00 00 00 00 00 00 00 00 00 00 00 00 00 00 00 00 ................
00408A40 00 00 00 00 00 00 00 00 00 00 00 00 00 00 00 00 ................
00408A50 00 00 00 00 00 00 00 00 00 00 00 00 00 00 00 00 ................
00408A60 00 00 00 00 00 00 00 00 00 00 00 00 00 00 00 00 ................
00408A70 00 00 00 00 00 00 00 00 00 00 00 00 00 00 00 00 ................
00408A80 00 00 00 00 00 00 00 00 00 00 00 00 00 00 00 00 ................
00408A90 00 00 00 00 00 00 00 00 00 00 00 00 00 00 00 00 ................
00408AA0 00 00 00 00 00 00 00 00 00 00 00 00 00 00 00 00 ................
00408AB0 00 00 00 00 00 00 00 00 00 00 00 00 00 00 00 00 ................
00408AC0 00 00 00 00 00 00 00 00 00 00 00 00 00 00 00 00 ................
00408AD0 00 00 00 00 00 00 00 00 00 00 00 00 00 00 00 00 ................
00408AE0 00 00 00 00 00 00 00 00 00 00 00 00 00 00 00 00 ................
00408AF0 00 00 00 00 00 00 00 00 00 00 00 00 00 00 00 00 ................
00408B00 00 00 00 00 00 00 00 00 00 00 00 00 00 00 00 00 ................
00408B10 00 00 00 00 00 00 00 00 00 00 00 00 00 00 00 00 ................
00408B20 00 00 00 00 00 00 00 00 00 00 00 00 00 00 00 00 ................
00408B30 00 00 00 00 00 00 00 00 00 00 00 00 00 00 00 00 ................
00408B40 00 00 00 00 00 00 00 00 00 00 00 00 00 00 00 00 ................
00408B50 00 00 00 00 00 00 00 00 00 00 00 00 00 00 00 00 ................
00408B60 00 00 00 00 00 00 00 00 00 00 00 00 00 00 00 00 ................
00408B70 00 00 00 00 00 00 00 00 00 00 00 00 00 00 00 00 ................
00408B80 00 00 00 00 00 00 00 00 00 00 00 00 00 00 00 00 ................
00408B90 00 00 00 00 00 00 00 00 00 00 00 00 00 00 00 00 ................
00408BA0 00 00 00 00 00 00 00 00 00 00 00 00 D1 21 40 00 .............!@.
00408BB0 00 00 00 00 00 00 00 00 00 00 00 00 00 00 00 00 ................
00408BC0 00 00 00 00 00 00 00 00 00 00 00 00 00 00 00 00 ................
00408BD0 00 00 00 00 00 00 00 00 00 00 00 00 00 00 00 00 ................
00408BE0 00 00 00 00 00 00 00 00 00 00 00 00 00 00 00 00 ................
00408BF0 00 00 00 00 00 00 00 00 00 00 00 00 00 00 00 00 ................
00408C00 00 00 00 00 00 00 00 00 00 00 00 00 00 00 00 00 ................
00408C10 00 00 00 00 00 00 00 00 00 00 00 00 00 00 00 00 ................
00408C20 00 00 00 00 00 00 00 00 00 00 00 00 00 00 00 00 ................
00408C30 00 00 00 00 00 00 00 00 00 00 00 00 00 00 00 00 ................
00408C40 00 00 00 00 00 00 00 00 00 00 00 00 00 00 00 00 ................
00408C50 00 00 00 00 00 00 00 00 00 00 00 00 00 00 00 00 ................
00408C60 00 00 00 00 00 00 00 00 00 00 00 00 00 00 00 00 ................
00408C70 00 00 00 00 00 00 00 00 00 00 00 00 00 00 00 00 ................
00408C80 00 00 00 00 00 00 00 00 00 00 00 00 00 00 00 00 ................
00408C90 00 00 00 00 00 00 00 00 00 00 00 00 00 00 00 00 ................
00408CA0 00 00 00 00 00 00 00 00 00 00 00 00 00 00 00 00 ................
00408CB0 00 00 00 00 00 00 00 00 00 00 00 00 00 00 00 00 ................
00408CC0 00 00 00 00 00 00 00 00 00 00 00 00 00 00 00 00 ................
00408CD0 00 00 00 00 00 00 00 00 00 00 00 00 00 00 00 00 ................
00408CE0 00 00 00 00 00 00 00 00 00 00 00 00 00 00 00 00 ................
00408CF0 00 00 00 00 00 00 00 00 00 00 00 00 00 00 00 00 ................
00408D00 00 00 00 00 00 00 00 00 00 00 00 00 00 00 00 00 ................
00408D10 00 00 00 00 00 00 00 00 00 00 00 00 00 00 00 00 ................
00408D20 00 00 00 00 00 00 00 00 00 00 00 00 00 00 00 00 ................
00408D30 00 00 00 00 00 00 00 00 00 00 00 00 00 00 00 00 ................
00408D40 00 00 00 00 00 00 00 00 00 00 00 00 00 00 00 00 ................
00408D50 00 00 00 00 00 00 00 00 00 00 00 00 00 00 00 00 ................
00408D60 00 00 00 00 00 00 00 00 00 00 00 00 00 00 00 00 ................
00408D70 00 00 00 00 00 00 00 00 00 00 00 00 00 00 00 00 ................
00408D80 00 00 00 00 00 00 00 00 00 00 00 00 00 00 00 00 ................
00408D90 00 00 00 00 00 00 00 00 00 00 00 00 00 00 00 00 ................
00408DA0 00 00 00 00 00 00 00 00 00 00 00 00 00 00 00 00 ................
00408DB0 00 00 00 00 00 00 00 00 16 00 A0 44 FB FB FC 02 ...........D....
00408DC0 FC A8 30 02 FF 02 88 30 EF 03 FF 00 00 00 00 00 ..0....0........
00408DD0 0D 00 A0 32 02 FB A8 00 FF 02 A8 00 FF 00 00 00 ...2............
00408DE0 41 00 A0 32 04 FB A8 00 FF 04 A8 00 FF 00 00 00 A..2............
00408DF0 41 00 A0 32 04 FB A8 00 FF 04 A8 00 FF 00 00 00 A..2............
00408E00 24 00 A0 32 03 FC A8 10 FF 03 A8 10 FF 00 00 00 $..2............
00408E10 E7 00 B0 33 02 C7 14 FC A8 90 FF 16 A8 90 FF 00 ...3............
00408E20 B9 2E 00 00 01 00 00 00 CF 23 00 00 51 25 00 00 .........#..Q%..
00408E30 BD 56 00 00 53 25 00 00 11 00 20 10 02 D4 FF 00 .V..S%.... .....
00408E40 0F 00 A0 32 02 FB A8 00 FF 02 A8 00 FF 00 00 00 ...2............
00408E50 3A 00 20 33 02 FB A8 00 02 FF 02 88 00 EF 03 FF :. 3............
00408E60 0D 00 A0 32 02 FB A8 00 FF 02 A8 00 FF 00 00 00 ...2............
00408E70 0A 00 A0 32 02 FB A8 00 FF 02 A8 00 FF 00 00 00 ...2............
00408E80 33 00 20 33 04 FB A8 00 02 FF 04 88 00 EF 03 FF 3. 3............
00408E90 3F 00 20 33 04 FB A8 00 02 FF 04 88 00 EF 03 FF ?. 3............
00408EA0 45 00 B0 43 C7 0F FC A8 80 02 FF 0F 88 80 EF 03 E..C............
00408EB0 FF 00 00 00 B9 2E 00 00 01 00 00 00 DF 29 00 00 .............)..
00408EC0 3D 2A 00 00 F9 56 00 00 3F 2A 00 00 00 00 00 00 =*...V..?*......
00408ED0 56 00 A0 32 0A FB A8 00 FF 0A A8 00 FF 00 00 00 V..2............
00408EE0 0D 00 20 33 02 FB A8 00 02 FF 02 88 00 EF 03 FF .. 3............
00408EF0 1A 00 20 33 04 FB A8 00 02 FF 04 88 00 EF 03 FF .. 3............
00408F00 58 00 B0 43 C7 0D FC A8 80 02 FF 0D 88 80 EF 03 X..C............
00408F10 FF 00 00 00 B9 2E 00 00 01 00 00 00 11 2D 00 00 .............-..
00408F20 6B 2D 00 00 1D 57 00 00 00 00 00 00 00 00 00 00 k-...W..........
00408F30 06 00 20 10 D4 FF 00 00 53 00 A0 32 07 FC A8 10 .. .....S..2....
00408F40 FF 07 A8 10 FF 00 00 00 4D 00 30 44 E9 01 E8 01 ........M.0D....
00408F50 FC A8 F0 FF E8 01 A8 F0 FF 00 00 00 2D 3D 00 00 ............-=..
00408F60 E5 FF FF FF 00 00 00 00 50 00 30 44 E9 00 E8 01 ........P.0D....
00408F70 FC A9 F0 FF E8 01 A9 F0 FF 00 00 00 2D 3D 00 00 ............-=..
00408F80 E1 FF FF FF 00 00 00 00 6E 00 B0 33 59 E8 01 FC ........n..3Y...
00408F90 A8 F0 FF E8 01 A8 F0 FF 2D 3D 00 00 E5 FF FF FF ........-=......
00408FA0 1F 00 B0 21 C7 08 FC A8 90 FF 00 00 B9 2E 00 00 ...!............
00408FB0 01 00 00 00 E1 2E 00 00 F7 2E 00 00 41 57 00 00 ............AW..
00408FC0 F7 2E 00 00 00 00 00 00 22 00 B0 21 C7 08 FC A8 ........"..!....
00408FD0 90 FF 00 00 B9 2E 00 00 01 00 00 00 2B 2F 00 00 ............+/..
00408FE0 41 2F 00 00 59 57 00 00 41 2F 00 00 00 00 00 00 A/..YW..A/......
00408FF0 C6 00 B0 33 EB 92 E8 01 FC DF FF E8 01 DF FF 00 ...3............
00409000 2D 3D 00 00 D9 FF FF FF 61 01 00 31 1D 00 E0 05 -=......a..1....
00409010 5D 01 E0 05 17 FC DF 04 FF DB EF 05 FF 00 00 00 ]...............
00409020 CB 00 10 41 6B 00 E0 08 C7 00 E0 08 E8 89 E8 01 ...Ak...........
00409030 FC A8 F0 FF E8 01 A8 F0 FF 00 00 00 2D 3D 00 00 ............-=..
00409040 E5 FF FF FF 00 00 00 00 49 00 10 41 1D 00 E0 08 ........I..A....
00409050 45 00 E0 08 E9 88 E8 01 FC A8 70 FF E8 01 A8 70 E.........p....p
00409060 FF 00 00 00 2D 3D 00 00 E9 FF FF FF 00 00 00 00 ....-=..........
00409070 55 00 10 41 10 00 E0 08 51 00 E0 08 E9 05 E8 01 U..A....Q.......
00409080 FB A8 00 FF E8 01 A8 00 FF 00 00 00 2D 3D 00 00 ............-=..
00409090 F5 FF FF FF 00 00 00 00 24 00 20 33 04 FB A8 00 ........$. 3....
004090A0 04 FF 04 88 00 EF 05 FF 14 00 20 33 02 FB A8 00 .......... 3....
004090B0 04 FF 02 88 00 EF 05 FF 0C 00 80 10 0B 00 E0 02 ................
004090C0 01 FF FD FF 0E 00 C0 10 0B 00 E0 00 01 FD FF 00 ................
004090D0 0C 00 80 20 08 00 E0 03 C4 D4 FF C4 A0 10 FD FF ... ............
004090E0 07 00 C0 10 06 00 E0 00 FD FF 00 00 11 00 00 10 ................
004090F0 02 ED 08 FF 00 00 00 00 06 00 00 20 FB A8 00 02 ........... ....
00409100 FF 00 00 00 00 00 00 00 06 00 00 20 FB A8 00 04 ........... ....
00409110 FF 00 00 00 00 00 00 00 07 00 00 10 FB A8 00 FF ................
00409120 06 00 00 20 FB A8 00 02 FF 00 00 00 00 00 00 00 ... ............
00409130 00 00 00 00 00 00 00 00 00 00 00 00 00 00 00 00 ................
00409140 00 00 00 00 00 00 00 00 00 00 00 00 00 00 00 00 ................
00409150 00 00 00 00 00 00 00 00 00 00 00 00 00 00 00 00 ................
00409160 00 00 00 00 00 00 00 00 00 00 00 00 00 00 00 00 ................
00409170 00 00 00 00 00 00 00 00 00 00 00 00 00 00 00 00 ................
00409180 00 00 00 00 00 00 00 00 00 00 00 00 00 00 00 00 ................
00409190 00 00 00 00 00 00 00 00 00 00 00 00 00 00 00 00 ................
004091A0 00 00 00 00 00 00 00 00 00 00 00 00 00 00 00 00 ................
004091B0 00 00 00 00 00 00 00 00 00 00 00 00 00 00 00 00 ................
004091C0 00 00 00 00 00 00 00 00 00 00 00 00 00 00 00 00 ................
004091D0 00 00 00 00 00 00 00 00 00 00 00 00 00 00 00 00 ................
004091E0 00 00 00 00 00 00 00 00 00 00 00 00 00 00 00 00 ................
004091F0 00 00 00 00 00 00 00 00 00 00 00 00 00 00 00 00 ................
00409200 00 00 00 00 00 00 00 00 00 00 00 00 00 00 00 00 ................
00409210 00 00 00 00 00 00 00 00 00 00 00 00 00 00 00 00 ................
00409220 00 00 00 00 00 00 00 00 00 00 00 00 00 00 00 00 ................
00409230 00 00 00 00 00 00 00 00 00 00 00 00 00 00 00 00 ................
00409240 00 00 00 00 00 00 00 00 00 00 00 00 00 00 00 00 ................
00409250 00 00 00 00 00 00 00 00 00 00 00 00 00 00 00 00 ................
00409260 00 00 00 00 00 00 00 00 00 00 00 00 00 00 00 00 ................
00409270 00 00 00 00 00 00 00 00 00 00 00 00 00 00 00 00 ................
00409280 00 00 00 00 00 00 00 00 00 00 00 00 00 00 00 00 ................
00409290 00 00 00 00 00 00 00 00 00 00 00 00 00 00 00 00 ................
004092A0 00 00 00 00 00 00 00 00 00 00 00 00 00 00 00 00 ................
004092B0 00 00 00 00 00 00 00 00 00 00 00 00 00 00 00 00 ................
004092C0 00 00 00 00 00 00 00 00 00 00 00 00 00 00 00 00 ................
004092D0 00 00 00 00 00 00 00 00 00 00 00 00 00 00 00 00 ................
004092E0 00 00 00 00 00 00 00 00 00 00 00 00 00 00 00 00 ................
004092F0 00 00 00 00 00 00 00 00 00 00 00 00 00 00 00 00 ................
00409300 00 00 00 00 00 00 00 00 00 00 00 00 00 00 00 00 ................
00409310 00 00 00 00 00 00 00 00 00 00 00 00 00 00 00 00 ................
00409320 00 00 00 00 00 00 00 00 00 00 00 00 00 00 00 00 ................
00409330 00 00 00 00 00 00 00 00 00 00 00 00 00 00 00 00 ................
00409340 00 00 00 00 00 00 00 00 00 00 00 00 00 00 00 00 ................
00409350 00 00 00 00 00 00 00 00 00 00 00 00 00 00 00 00 ................
00409360 00 00 00 00 00 00 00 00 00 00 00 00 00 00 00 00 ................
00409370 00 00 00 00 00 00 00 00 00 00 00 00 00 00 00 00 ................
00409380 00 00 00 00 00 00 00 00 00 00 00 00 00 00 00 00 ................
00409390 00 00 00 00 00 00 00 00 00 00 00 00 00 00 00 00 ................
004093A0 00 00 00 00 00 00 00 00 00 00 00 00 00 00 00 00 ................
004093B0 00 00 00 00 00 00 00 00 00 00 00 00 00 00 00 00 ................
004093C0 00 00 00 00 00 00 00 00 00 00 00 00 00 00 00 00 ................
004093D0 00 00 00 00 00 00 00 00 00 00 00 00 00 00 00 00 ................
004093E0 00 00 00 00 00 00 00 00 00 00 00 00 00 00 00 00 ................
004093F0 00 00 00 00 00 00 00 00 00 00 00 00 00 00 00 00 ................
00409400 00 00 00 00 00 00 00 00 00 00 00 00 00 00 00 00 ................
00409410 00 00 00 00 00 00 00 00 00 00 00 00 00 00 00 00 ................
00409420 00 00 00 00 00 00 00 00 00 00 00 00 00 00 00 00 ................
00409430 00 00 00 00 00 00 00 00 00 00 00 00 00 00 00 00 ................
00409440 00 00 00 00 00 00 00 00 00 00 00 00 00 00 00 00 ................
00409450 00 00 00 00 00 00 00 00 00 00 00 00 00 00 00 00 ................
00409460 00 00 00 00 00 00 00 00 00 00 00 00 00 00 00 00 ................
00409470 00 00 00 00 00 00 00 00 00 00 00 00 00 00 00 00 ................
00409480 00 00 00 00 00 00 00 00 00 00 00 00 00 00 00 00 ................
00409490 00 00 00 00 00 00 00 00 00 00 00 00 00 00 00 00 ................
004094A0 00 00 00 00 00 00 00 00 00 00 00 00 00 00 00 00 ................
004094B0 00 00 00 00 00 00 00 00 00 00 00 00 00 00 00 00 ................
004094C0 00 00 00 00 00 00 00 00 00 00 00 00 00 00 00 00 ................
004094D0 00 00 00 00 00 00 00 00 00 00 00 00 00 00 00 00 ................
004094E0 00 00 00 00 00 00 00 00 00 00 00 00 00 00 00 00 ................
004094F0 00 00 00 00 00 00 00 00 00 00 00 00 00 00 00 00 ................
00409500 00 00 00 00 00 00 00 00 00 00 00 00 00 00 00 00 ................
00409510 00 00 00 00 00 00 00 00 00 00 00 00 00 00 00 00 ................
00409520 00 00 00 00 00 00 00 00 00 00 00 00 00 00 00 00 ................
00409530 00 00 00 00 00 00 00 00 00 00 00 00 00 00 00 00 ................
00409540 00 00 00 00 00 00 00 00 00 00 00 00 00 00 00 00 ................
00409550 00 00 00 00 00 00 00 00 00 00 00 00 00 00 00 00 ................
00409560 00 00 00 00 00 00 00 00 00 00 00 00 00 00 00 00 ................
00409570 00 00 00 00 00 00 00 00 00 00 00 00 00 00 00 00 ................
00409580 00 00 00 00 00 00 00 00 00 00 00 00 00 00 00 00 ................
00409590 00 00 00 00 00 00 00 00 00 00 00 00 00 00 00 00 ................
004095A0 00 00 00 00 00 00 00 00 00 00 00 00 00 00 00 00 ................
004095B0 00 00 00 00 00 00 00 00 00 00 00 00 00 00 00 00 ................
004095C0 00 00 00 00 00 00 00 00 00 00 00 00 00 00 00 00 ................
004095D0 00 00 00 00 00 00 00 00 00 00 00 00 00 00 00 00 ................
004095E0 00 00 00 00 00 00 00 00 00 00 00 00 00 00 00 00 ................
004095F0 00 00 00 00 00 00 00 00 00 00 00 00 00 00 00 00 ................
00409600 00 00 00 00 00 00 00 00 00 00 00 00 00 00 00 00 ................
00409610 00 00 00 00 00 00 00 00 00 00 00 00 00 00 00 00 ................
00409620 00 00 00 00 00 00 00 00 00 00 00 00 00 00 00 00 ................
00409630 00 00 00 00 00 00 00 00 00 00 00 00 00 00 00 00 ................
00409640 00 00 00 00 00 00 00 00 00 00 00 00 00 00 00 00 ................
00409650 00 00 00 00 00 00 00 00 00 00 00 00 00 00 00 00 ................
00409660 00 00 00 00 00 00 00 00 00 00 00 00 00 00 00 00 ................
00409670 00 00 00 00 00 00 00 00 00 00 00 00 00 00 00 00 ................
00409680 00 00 00 00 00 00 00 00 00 00 00 00 00 00 00 00 ................
00409690 00 00 00 00 00 00 00 00 00 00 00 00 00 00 00 00 ................
004096A0 00 00 00 00 00 00 00 00 00 00 00 00 00 00 00 00 ................
004096B0 00 00 00 00 00 00 00 00 00 00 00 00 00 00 00 00 ................
004096C0 00 00 00 00 00 00 00 00 00 00 00 00 00 00 00 00 ................
004096D0 00 00 00 00 00 00 00 00 00 00 00 00 00 00 00 00 ................
004096E0 00 00 00 00 00 00 00 00 00 00 00 00 00 00 00 00 ................
004096F0 00 00 00 00 00 00 00 00 00 00 00 00 00 00 00 00 ................
00409700 00 00 00 00 00 00 00 00 00 00 00 00 00 00 00 00 ................
00409710 00 00 00 00 00 00 00 00 00 00 00 00 00 00 00 00 ................
00409720 00 00 00 00 00 00 00 00 00 00 00 00 00 00 00 00 ................
00409730 00 00 00 00 00 00 00 00 00 00 00 00 00 00 00 00 ................
00409740 00 00 00 00 00 00 00 00 00 00 00 00 00 00 00 00 ................
00409750 00 00 00 00 00 00 00 00 00 00 00 00 00 00 00 00 ................
00409760 00 00 00 00 00 00 00 00 00 00 00 00 00 00 00 00 ................
00409770 00 00 00 00 00 00 00 00 00 00 00 00 00 00 00 00 ................
00409780 00 00 00 00 00 00 00 00 00 00 00 00 00 00 00 00 ................
00409790 00 00 00 00 00 00 00 00 00 00 00 00 00 00 00 00 ................
004097A0 00 00 00 00 00 00 00 00 00 00 00 00 00 00 00 00 ................
004097B0 00 00 00 00 00 00 00 00 00 00 00 00 00 00 00 00 ................
004097C0 00 00 00 00 00 00 00 00 00 00 00 00 00 00 00 00 ................
004097D0 00 00 00 00 00 00 00 00 00 00 00 00 00 00 00 00 ................
004097E0 00 00 00 00 00 00 00 00 00 00 00 00 00 00 00 00 ................
004097F0 00 00 00 00 00 00 00 00 00 00 00 00 00 00 00 00 ................
00409800 00 00 00 00 00 00 00 00 00 00 00 00 00 00 00 00 ................
00409810 00 00 00 00 00 00 00 00 00 00 00 00 00 00 00 00 ................
00409820 00 00 00 00 00 00 00 00 00 00 00 00 00 00 00 00 ................
00409830 00 00 00 00 00 00 00 00 00 00 00 00 00 00 00 00 ................
00409840 00 00 00 00 00 00 00 00 00 00 00 00 00 00 00 00 ................
00409850 00 00 00 00 00 00 00 00 00 00 00 00 00 00 00 00 ................
00409860 00 00 00 00 00 00 00 00 00 00 00 00 00 00 00 00 ................
00409870 00 00 00 00 00 00 00 00 00 00 00 00 00 00 00 00 ................
00409880 00 00 00 00 00 00 00 00 00 00 00 00 00 00 00 00 ................
00409890 00 00 00 00 00 00 00 00 00 00 00 00 00 00 00 00 ................
004098A0 00 00 00 00 00 00 00 00 00 00 00 00 00 00 00 00 ................
004098B0 00 00 00 00 00 00 00 00 00 00 00 00 00 00 00 00 ................
004098C0 00 00 00 00 00 00 00 00 00 00 00 00 00 00 00 00 ................
004098D0 00 00 00 00 00 00 00 00 00 00 00 00 00 00 00 00 ................
004098E0 00 00 00 00 00 00 00 00 00 00 00 00 00 00 00 00 ................
004098F0 00 00 00 00 00 00 00 00 00 00 00 00 00 00 00 00 ................
00409900 00 00 00 00 00 00 00 00 00 00 00 00 00 00 00 00 ................
00409910 00 00 00 00 00 00 00 00 00 00 00 00 00 00 00 00 ................
00409920 00 00 00 00 00 00 00 00 00 00 00 00 00 00 00 00 ................
00409930 00 00 00 00 00 00 00 00 00 00 00 00 00 00 00 00 ................
00409940 00 00 00 00 00 00 00 00 00 00 00 00 00 00 00 00 ................
00409950 00 00 00 00 00 00 00 00 00 00 00 00 00 00 00 00 ................
00409960 00 00 00 00 00 00 00 00 00 00 00 00 00 00 00 00 ................
00409970 00 00 00 00 00 00 00 00 00 00 00 00 00 00 00 00 ................
00409980 00 00 00 00 00 00 00 00 00 00 00 00 00 00 00 00 ................
00409990 00 00 00 00 00 00 00 00 00 00 00 00 00 00 00 00 ................
004099A0 00 00 00 00 00 00 00 00 00 00 00 00 00 00 00 00 ................
004099B0 00 00 00 00 00 00 00 00 00 00 00 00 00 00 00 00 ................
004099C0 00 00 00 00 00 00 00 00 00 00 00 00 00 00 00 00 ................
004099D0 00 00 00 00 00 00 00 00 00 00 00 00 00 00 00 00 ................
004099E0 00 00 00 00 00 00 00 00 00 00 00 00 00 00 00 00 ................
004099F0 00 00 00 00 00 00 00 00 00 00 00 00 00 00 00 00 ................
00409A00 00 00 00 00 00 00 00 00 00 00 00 00 00 00 00 00 ................
00409A10 00 00 00 00 00 00 00 00 00 00 00 00 00 00 00 00 ................
00409A20 00 00 00 00 00 00 00 00 00 00 00 00 00 00 00 00 ................
00409A30 00 00 00 00 00 00 00 00 00 00 00 00 00 00 00 00 ................
00409A40 00 00 00 00 00 00 00 00 00 00 00 00 00 00 00 00 ................
00409A50 00 00 00 00 00 00 00 00 00 00 00 00 00 00 00 00 ................
00409A60 00 00 00 00 00 00 00 00 00 00 00 00 00 00 00 00 ................
00409A70 00 00 00 00 00 00 00 00 00 00 00 00 00 00 00 00 ................
00409A80 00 00 00 00 00 00 00 00 00 00 00 00 00 00 00 00 ................
00409A90 00 00 00 00 00 00 00 00 00 00 00 00 00 00 00 00 ................
00409AA0 00 00 00 00 00 00 00 00 00 00 00 00 00 00 00 00 ................
00409AB0 00 00 00 00 00 00 00 00 00 00 00 00 00 00 00 00 ................
00409AC0 00 00 00 00 00 00 00 00 00 00 00 00 00 00 00 00 ................
00409AD0 00 00 00 00 00 00 00 00 00 00 00 00 00 00 00 00 ................
00409AE0 00 00 00 00 00 00 00 00 00 00 00 00 00 00 00 00 ................
00409AF0 00 00 00 00 00 00 00 00 00 00 00 00 00 00 00 00 ................
00409B00 00 00 00 00 00 00 00 00 00 00 00 00 00 00 00 00 ................
00409B10 00 00 00 00 00 00 00 00 00 00 00 00 00 00 00 00 ................
00409B20 00 00 00 00 00 00 00 00 00 00 00 00 00 00 00 00 ................
00409B30 00 00 00 00 00 00 00 00 00 00 00 00 00 00 00 00 ................
00409B40 00 00 00 00 00 00 00 00 00 00 00 00 00 00 00 00 ................
00409B50 00 00 00 00 00 00 00 00 00 00 00 00 00 00 00 00 ................
00409B60 00 00 00 00 00 00 00 00 00 00 00 00 00 00 00 00 ................
00409B70 00 00 00 00 00 00 00 00 00 00 00 00 00 00 00 00 ................
00409B80 00 00 00 00 00 00 00 00 00 00 00 00 00 00 00 00 ................
00409B90 00 00 00 00 00 00 00 00 00 00 00 00 00 00 00 00 ................
00409BA0 00 00 00 00 00 00 00 00 00 00 00 00 00 00 00 00 ................
00409BB0 00 00 00 00 00 00 00 00 00 00 00 00 00 00 00 00 ................
00409BC0 00 00 00 00 00 00 00 00 00 00 00 00 00 00 00 00 ................
00409BD0 00 00 00 00 00 00 00 00 00 00 00 00 00 00 00 00 ................
00409BE0 00 00 00 00 00 00 00 00 00 00 00 00 00 00 00 00 ................
00409BF0 00 00 00 00 00 00 00 00 00 00 00 00 00 00 00 00 ................
00409C00 00 00 00 00 00 00 00 00 00 00 00 00 00 00 00 00 ................
00409C10 00 00 00 00 00 00 00 00 00 00 00 00 00 00 00 00 ................
00409C20 00 00 00 00 00 00 00 00 00 00 00 00 00 00 00 00 ................
00409C30 00 00 00 00 00 00 00 00 00 00 00 00 00 00 00 00 ................
00409C40 00 00 00 00 00 00 00 00 00 00 00 00 00 00 00 00 ................
00409C50 00 00 00 00 00 00 00 00 00 00 00 00 00 00 00 00 ................
00409C60 00 00 00 00 00 00 00 00 00 00 00 00 00 00 00 00 ................
00409C70 00 00 00 00 00 00 00 00 00 00 00 00 00 00 00 00 ................
00409C80 00 00 00 00 00 00 00 00 00 00 00 00 00 00 00 00 ................
00409C90 00 00 00 00 00 00 00 00 00 00 00 00 00 00 00 00 ................
00409CA0 00 00 00 00 00 00 00 00 00 00 00 00 00 00 00 00 ................
00409CB0 00 00 00 00 00 00 00 00 00 00 00 00 00 00 00 00 ................
00409CC0 00 00 00 00 00 00 00 00 00 00 00 00 00 00 00 00 ................
00409CD0 00 00 00 00 00 00 00 00 00 00 00 00 00 00 00 00 ................
00409CE0 00 00 00 00 00 00 00 00 00 00 00 00 00 00 00 00 ................
00409CF0 00 00 00 00 00 00 00 00 00 00 00 00 00 00 00 00 ................
00409D00 00 00 00 00 00 00 00 00 00 00 00 00 00 00 00 00 ................
00409D10 00 00 00 00 00 00 00 00 00 00 00 00 00 00 00 00 ................
00409D20 00 00 00 00 00 00 00 00 00 00 00 00 00 00 00 00 ................
00409D30 00 00 00 00 00 00 00 00 00 00 00 00 00 00 00 00 ................
00409D40 00 00 00 00 00 00 00 00 00 00 00 00 00 00 00 00 ................
00409D50 00 00 00 00 00 00 00 00 00 00 00 00 00 00 00 00 ................
00409D60 00 00 00 00 00 00 00 00 00 00 00 00 00 00 00 00 ................
00409D70 00 00 00 00 00 00 00 00 00 00 00 00 00 00 00 00 ................
00409D80 00 00 00 00 00 00 00 00 00 00 00 00 00 00 00 00 ................
00409D90 00 00 00 00 00 00 00 00 00 00 00 00 00 00 00 00 ................
00409DA0 00 00 00 00 00 00 00 00 00 00 00 00 00 00 00 00 ................
00409DB0 00 00 00 00 00 00 00 00 00 00 00 00 00 00 00 00 ................
00409DC0 00 00 00 00 00 00 00 00 00 00 00 00 00 00 00 00 ................
00409DD0 00 00 00 00 00 00 00 00 00 00 00 00 00 00 00 00 ................
00409DE0 00 00 00 00 00 00 00 00 00 00 00 00 00 00 00 00 ................
00409DF0 00 00 00 00 00 00 00 00 00 00 00 00 00 00 00 00 ................
00409E00 00 00 00 00 00 00 00 00 00 00 00 00 00 00 00 00 ................
00409E10 00 00 00 00 00 00 00 00 00 00 00 00 00 00 00 00 ................
00409E20 00 00 00 00 00 00 00 00 00 00 00 00 00 00 00 00 ................
00409E30 00 00 00 00 00 00 00 00 00 00 00 00 00 00 00 00 ................
00409E40 00 00 00 00 00 00 00 00 00 00 00 00 00 00 00 00 ................
00409E50 00 00 00 00 00 00 00 00 00 00 00 00 00 00 00 00 ................
00409E60 00 00 00 00 00 00 00 00 00 00 00 00 00 00 00 00 ................
00409E70 00 00 00 00 00 00 00 00 00 00 00 00 00 00 00 00 ................
00409E80 00 00 00 00 00 00 00 00 00 00 00 00 00 00 00 00 ................
00409E90 00 00 00 00 00 00 00 00 00 00 00 00 00 00 00 00 ................
00409EA0 00 00 00 00 00 00 00 00 00 00 00 00 00 00 00 00 ................
00409EB0 00 00 00 00 00 00 00 00 00 00 00 00 00 00 00 00 ................
00409EC0 00 00 00 00 00 00 00 00 00 00 00 00 00 00 00 00 ................
00409ED0 00 00 00 00 00 00 00 00 00 00 00 00 00 00 00 00 ................
00409EE0 00 00 00 00 00 00 00 00 00 00 00 00 00 00 00 00 ................
00409EF0 00 00 00 00 00 00 00 00 00 00 00 00 00 00 00 00 ................
00409F00 00 00 00 00 00 00 00 00 00 00 00 00 00 00 00 00 ................
00409F10 00 00 00 00 00 00 00 00 00 00 00 00 00 00 00 00 ................
00409F20 00 00 00 00 00 00 00 00 00 00 00 00 00 00 00 00 ................
00409F30 00 00 00 00 00 00 00 00 00 00 00 00 00 00 00 00 ................
00409F40 00 00 00 00 00 00 00 00 00 00 00 00 00 00 00 00 ................
00409F50 00 00 00 00 00 00 00 00 00 00 00 00 00 00 00 00 ................
00409F60 00 00 00 00 00 00 00 00 00 00 00 00 00 00 00 00 ................
00409F70 00 00 00 00 00 00 00 00 00 00 00 00 00 00 00 00 ................
00409F80 00 00 00 00 00 00 00 00 00 00 00 00 00 00 00 00 ................
00409F90 00 00 00 00 00 00 00 00 00 00 00 00 00 00 00 00 ................
00409FA0 00 00 00 00 00 00 00 00 00 00 00 00 00 00 00 00 ................
00409FB0 00 00 00 00 00 00 00 00 00 00 00 00 00 00 00 00 ................
00409FC0 00 00 00 00 00 00 00 00 00 00 00 00 00 00 00 00 ................
00409FD0 00 00 00 00 00 00 00 00 00 00 00 00 00 00 00 00 ................
00409FE0 00 00 00 00 00 00 00 00 00 00 00 00 00 00 00 00 ................
00409FF0 00 00 00 00 00 00 00 00 00 00 00 00 00 00 00 00 ................
0040A000 01 00 00 00 FE FF FF FF FF FF FF FF 01 00 00 00 ................
0040A010 01 00 00 00 01 00 00 00 01 00 00 00 01 00 00 00 ................
0040A020 4E E6 40 BB B1 19 BF 44 00 00 00 00 00 00 00 00 N.@....D........
0040A030 00 00 00 00 00 00 00 00 00 00 00 00 00 00 00 00 ................
0040A040 00 00 00 00 00 00 00 00 00 00 00 00 00 00 00 00 ................
0040A050 00 00 00 00 00 00 00 00 00 00 00 00 00 00 00 00 ................
0040A060 00 00 00 00 00 00 00 00 00 00 00 00 00 00 00 00 ................
0040A070 00 00 00 00 00 00 00 00 00 00 00 00 00 00 00 00 ................
0040A080 00 00 00 00 00 00 00 00 00 00 00 00 00 00 00 00 ................
0040A090 00 00 00 00 00 00 00 00 00 00 00 00 00 00 00 00 ................
0040A0A0 00 00 00 00 00 00 00 00 00 00 00 00 00 00 00 00 ................
0040A0B0 00 00 00 00 00 00 00 00 00 00 00 00 00 00 00 00 ................
0040A0C0 00 00 00 00 00 00 00 00 00 00 00 00 00 00 00 00 ................
0040A0D0 00 00 00 00 00 00 00 00 00 00 00 00 00 00 00 00 ................
0040A0E0 00 00 00 00 00 00 00 00 00 00 00 00 00 00 00 00 ................
0040A0F0 00 00 00 00 00 00 00 00 00 00 00 00 00 00 00 00 ................
0040A100 00 00 00 00 00 00 00 00 00 00 00 00 00 00 00 00 ................
0040A110 00 00 00 00 00 00 00 00 00 00 00 00 00 00 00 00 ................
0040A120 00 00 00 00 00 00 00 00 00 00 00 00 00 00 00 00 ................
0040A130 00 00 00 00 00 00 00 00 00 00 00 00 00 00 00 00 ................
0040A140 00 00 00 00 00 00 00 00 00 00 00 00 00 00 00 00 ................
0040A150 00 00 00 00 00 00 00 00 00 00 00 00 00 00 00 00 ................
0040A160 00 00 00 00 00 00 00 00 00 00 00 00 00 00 00 00 ................
0040A170 00 00 00 00 00 00 00 00 00 00 00 00 00 00 00 00 ................
0040A180 00 00 00 00 00 00 00 00 00 00 00 00 00 00 00 00 ................
0040A190 00 00 00 00 00 00 00 00 00 00 00 00 00 00 00 00 ................
0040A1A0 00 00 00 00 00 00 00 00 00 00 00 00 00 00 00 00 ................
0040A1B0 00 00 00 00 00 00 00 00 00 00 00 00 00 00 00 00 ................
0040A1C0 00 00 00 00 00 00 00 00 00 00 00 00 00 00 00 00 ................
0040A1D0 00 00 00 00 00 00 00 00 00 00 00 00 00 00 00 00 ................
0040A1E0 00 00 00 00 00 00 00 00 00 00 00 00 00 00 00 00 ................
0040A1F0 00 00 00 00 00 00 00 00 00 00 00 00 00 00 00 00 ................
0040A200 00 00 00 00 00 00 00 00 00 00 00 00 00 00 00 00 ................
0040A210 00 00 00 00 00 00 00 00 00 00 00 00 00 00 00 00 ................
0040A220 00 00 00 00 00 00 00 00 00 00 00 00 00 00 00 00 ................
0040A230 00 00 00 00 00 00 00 00 00 00 00 00 00 00 00 00 ................
0040A240 00 00 00 00 00 00 00 00 00 00 00 00 00 00 00 00 ................
0040A250 00 00 00 00 00 00 00 00 00 00 00 00 00 00 00 00 ................
0040A260 00 00 00 00 00 00 00 00 00 00 00 00 00 00 00 00 ................
0040A270 00 00 00 00 00 00 00 00 00 00 00 00 00 00 00 00 ................
0040A280 00 00 00 00 00 00 00 00 00 00 00 00 00 00 00 00 ................
0040A290 00 00 00 00 00 00 00 00 00 00 00 00 00 00 00 00 ................
0040A2A0 00 00 00 00 00 00 00 00 00 00 00 00 00 00 00 00 ................
0040A2B0 00 00 00 00 00 00 00 00 00 00 00 00 00 00 00 00 ................
0040A2C0 00 00 00 00 00 00 00 00 00 00 00 00 00 00 00 00 ................
0040A2D0 00 00 00 00 00 00 00 00 00 00 00 00 00 00 00 00 ................
0040A2E0 00 00 00 00 00 00 00 00 00 00 00 00 00 00 00 00 ................
0040A2F0 00 00 00 00 00 00 00 00 00 00 00 00 00 00 00 00 ................
0040A300 00 00 00 00 00 00 00 00 00 00 00 00 00 00 00 00 ................
0040A310 00 00 00 00 00 00 00 00 00 00 00 00 00 00 00 00 ................
0040A320 00 00 00 00 00 00 00 00 00 00 00 00 00 00 00 00 ................
0040A330 00 00 00 00 00 00 00 00 00 00 00 00 00 00 00 00 ................
0040A340 00 00 00 00 00 00 00 00 00 00 00 00 00 00 00 00 ................
0040A350 00 00 00 00 00 00 00 00 00 00 00 00 00 00 00 00 ................
0040A360 00 00 00 00 00 00 00 00 00 00 00 00 00 00 00 00 ................
0040A370 00 00 00 00 00 00 00 00 00 00 00 00 00 00 00 00 ................
0040A380 00 00 00 00 00 00 00 00 00 00 00 00 00 00 00 00 ................
0040A390 00 00 00 00 00 00 00 00 00 00 00 00 00 00 00 00 ................
0040A3A0 00 00 00 00 00 00 00 00 00 00 00 00 00 00 00 00 ................
0040A3B0 00 00 00 00 00 00 00 00 00 00 00 00 00 00 00 00 ................
0040A3C0 00 00 00 00 00 00 00 00 00 00 00 00 00 00 00 00 ................
0040A3D0 00 00 00 00 00 00 00 00 00 00 00 00 00 00 00 00 ................
0040A3E0 00 00 00 00 00 00 00 00 00 00 00 00 00 00 00 00 ................
0040A3F0 00 00 00 00 00 00 00 00 00 00 00 00 00 00 00 00 ................
0040A400 00 00 00 00 00 00 00 00 00 00 00 00 00 00 00 00 ................
0040A410 00 00 00 00 00 00 00 00 00 00 00 00 00 00 00 00 ................
0040A420 00 00 00 00 00 00 00 00 00 00 00 00 00 00 00 00 ................
0040A430 00 00 00 00 00 00 00 00 00 00 00 00 00 00 00 00 ................
0040A440 00 00 00 00 00 00 00 00 00 00 00 00 00 00 00 00 ................
0040A450 00 00 00 00 00 00 00 00 00 00 00 00 00 00 00 00 ................
0040A460 00 00 00 00 00 00 00 00 00 00 00 00 00 00 00 00 ................
0040A470 00 00 00 00 00 00 00 00 00 00 00 00 00 00 00 00 ................
0040A480 00 00 00 00 00 00 00 00 00 00 00 00 00 00 00 00 ................
0040A490 00 00 00 00 00 00 00 00 00 00 00 00 00 00 00 00 ................
0040A4A0 00 00 00 00 00 00 00 00 00 00 00 00 00 00 00 00 ................
0040A4B0 00 00 00 00 00 00 00 00 00 00 00 00 00 00 00 00 ................
0040A4C0 00 00 00 00 00 00 00 00 00 00 00 00 00 00 00 00 ................
0040A4D0 00 00 00 00 00 00 00 00 00 00 00 00 00 00 00 00 ................
0040A4E0 00 00 00 00 00 00 00 00 00 00 00 00 00 00 00 00 ................
0040A4F0 00 00 00 00 00 00 00 00 00 00 00 00 00 00 00 00 ................
0040A500 00 00 00 00 00 00 00 00 00 00 00 00 00 00 00 00 ................
0040A510 00 00 00 00 00 00 00 00 00 00 00 00 00 00 00 00 ................
0040A520 00 00 00 00 00 00 00 00 00 00 00 00 00 00 00 00 ................
0040A530 00 00 00 00 00 00 00 00 00 00 00 00 00 00 00 00 ................
0040A540 00 00 00 00 00 00 00 00 00 00 00 00 00 00 00 00 ................
0040A550 00 00 00 00 00 00 00 00 00 00 00 00 00 00 00 00 ................
0040A560 00 00 00 00 00 00 00 00 00 00 00 00 00 00 00 00 ................
0040A570 00 00 00 00 00 00 00 00 00 00 00 00 00 00 00 00 ................
0040A580 00 00 00 00 00 00 00 00 00 00 00 00 00 00 00 00 ................
0040A590 00 00 00 00 00 00 00 00 00 00 00 00 00 00 00 00 ................
0040A5A0 00 00 00 00 00 00 00 00 00 00 00 00 00 00 00 00 ................
0040A5B0 00 00 00 00 00 00 00 00 00 00 00 00 00 00 00 00 ................
0040A5C0 00 00 00 00 00 00 00 00 00 00 00 00 00 00 00 00 ................
0040A5D0 00 00 00 00 00 00 00 00 00 00 00 00 00 00 00 00 ................
0040A5E0 00 00 00 00 00 00 00 00 00 00 00 00 00 00 00 00 ................
0040A5F0 00 00 00 00 00 00 00 00 00 00 00 00 00 00 00 00 ................
0040A600 00 00 00 00 00 00 00 00 00 00 00 00 00 00 00 00 ................
0040A610 00 00 00 00 00 00 00 00 00 00 00 00 00 00 00 00 ................
0040A620 00 00 00 00 00 00 00 00 00 00 00 00 00 00 00 00 ................
0040A630 00 00 00 00 00 00 00 00 00 00 00 00 00 00 00 00 ................
0040A640 00 00 00 00 00 00 00 00 00 00 00 00 00 00 00 00 ................
0040A650 00 00 00 00 00 00 00 00 00 00 00 00 00 00 00 00 ................
0040A660 00 00 00 00 00 00 00 00 00 00 00 00 00 00 00 00 ................
0040A670 00 00 00 00 00 00 00 00 00 00 00 00 00 00 00 00 ................
0040A680 00 00 00 00 00 00 00 00 00 00 00 00 00 00 00 00 ................
0040A690 00 00 00 00 00 00 00 00 00 00 00 00 00 00 00 00 ................
0040A6A0 00 00 00 00 00 00 00 00 00 00 00 00 00 00 00 00 ................
0040A6B0 00 00 00 00 00 00 00 00 00 00 00 00 00 00 00 00 ................
0040A6C0 00 00 00 00 00 00 00 00 00 00 00 00 00 00 00 00 ................
0040A6D0 00 00 00 00 00 00 00 00 00 00 00 00 00 00 00 00 ................
0040A6E0 00 00 00 00 00 00 00 00 00 00 00 00 00 00 00 00 ................
0040A6F0 00 00 00 00 00 00 00 00 00 00 00 00 00 00 00 00 ................
0040A700 00 00 00 00 00 00 00 00 00 00 00 00 00 00 00 00 ................
0040A710 00 00 00 00 00 00 00 00 00 00 00 00 00 00 00 00 ................
0040A720 00 00 00 00 00 00 00 00 00 00 00 00 00 00 00 00 ................
0040A730 00 00 00 00 00 00 00 00 00 00 00 00 00 00 00 00 ................
0040A740 00 00 00 00 00 00 00 00 00 00 00 00 00 00 00 00 ................
0040A750 00 00 00 00 00 00 00 00 00 00 00 00 00 00 00 00 ................
0040A760 00 00 00 00 00 00 00 00 00 00 00 00 00 00 00 00 ................
0040A770 00 00 00 00 00 00 00 00 00 00 00 00 00 00 00 00 ................
0040A780 00 00 00 00 00 00 00 00 00 00 00 00 00 00 00 00 ................
0040A790 00 00 00 00 00 00 00 00 00 00 00 00 00 00 00 00 ................
0040A7A0 00 00 00 00 00 00 00 00 00 00 00 00 00 00 00 00 ................
0040A7B0 00 00 00 00 00 00 00 00 00 00 00 00 00 00 00 00 ................
0040A7C0 00 00 00 00 00 00 00 00 00 00 00 00 00 00 00 00 ................
0040A7D0 00 00 00 00 00 00 00 00 00 00 00 00 00 00 00 00 ................
0040A7E0 00 00 00 00 00 00 00 00 00 00 00 00 00 00 00 00 ................
0040A7F0 00 00 00 00 00 00 00 00 00 00 00 00 00 00 00 00 ................
0040A800 00 00 00 00 00 00 00 00 00 00 00 00 00 00 00 00 ................
0040A810 00 00 00 00 00 00 00 00 00 00 00 00 00 00 00 00 ................
0040A820 00 00 00 00 00 00 00 00 00 00 00 00 00 00 00 00 ................
0040A830 00 00 00 00 00 00 00 00 00 00 00 00 00 00 00 00 ................
0040A840 00 00 00 00 00 00 00 00 00 00 00 00 00 00 00 00 ................
0040A850 00 00 00 00 00 00 00 00 00 00 00 00 00 00 00 00 ................
0040A860 00 00 00 00 00 00 00 00 00 00 00 00 00 00 00 00 ................
0040A870 00 00 00 00 00 00 00 00 00 00 00 00 00 00 00 00 ................
0040A880 00 00 00 00 00 00 00 00 00 00 00 00 00 00 00 00 ................
0040A890 00 00 00 00 00 00 00 00 00 00 00 00 00 00 00 00 ................
0040A8A0 00 00 00 00 00 00 00 00 00 00 00 00 00 00 00 00 ................
0040A8B0 00 00 00 00 00 00 00 00 00 00 00 00 00 00 00 00 ................
0040A8C0 00 00 00 00 00 00 00 00 00 00 00 00 00 00 00 00 ................
0040A8D0 00 00 00 00 00 00 00 00 00 00 00 00 00 00 00 00 ................
0040A8E0 00 00 00 00 00 00 00 00 00 00 00 00 00 00 00 00 ................
0040A8F0 00 00 00 00 00 00 00 00 00 00 00 00 00 00 00 00 ................
0040A900 00 00 00 00 00 00 00 00 00 00 00 00 00 00 00 00 ................
0040A910 00 00 00 00 00 00 00 00 00 00 00 00 00 00 00 00 ................
0040A920 00 00 00 00 00 00 00 00 00 00 00 00 00 00 00 00 ................
0040A930 00 00 00 00 00 00 00 00 00 00 00 00 00 00 00 00 ................
0040A940 00 00 00 00 00 00 00 00 00 00 00 00 00 00 00 00 ................
0040A950 00 00 00 00 00 00 00 00 00 00 00 00 00 00 00 00 ................
0040A960 00 00 00 00 00 00 00 00 00 00 00 00 00 00 00 00 ................
0040A970 00 00 00 00 00 00 00 00 00 00 00 00 00 00 00 00 ................
0040A980 00 00 00 00 00 00 00 00 00 00 00 00 00 00 00 00 ................
0040A990 00 00 00 00 00 00 00 00 00 00 00 00 00 00 00 00 ................
0040A9A0 00 00 00 00 00 00 00 00 00 00 00 00 00 00 00 00 ................
0040A9B0 00 00 00 00 00 00 00 00 00 00 00 00 00 00 00 00 ................
0040A9C0 00 00 00 00 00 00 00 00 00 00 00 00 00 00 00 00 ................
0040A9D0 00 00 00 00 00 00 00 00 00 00 00 00 00 00 00 00 ................
0040A9E0 00 00 00 00 00 00 00 00 00 00 00 00 00 00 00 00 ................
0040A9F0 00 00 00 00 00 00 00 00 00 00 00 00 00 00 00 00 ................
0040AA00 00 00 00 00 00 00 00 00 00 00 00 00 00 00 00 00 ................
0040AA10 00 00 00 00 00 00 00 00 00 00 00 00 00 00 00 00 ................
0040AA20 00 00 00 00 00 00 00 00 00 00 00 00 00 00 00 00 ................
0040AA30 00 00 00 00 00 00 00 00 00 00 00 00 00 00 00 00 ................
0040AA40 00 00 00 00 00 00 00 00 00 00 00 00 00 00 00 00 ................
0040AA50 00 00 00 00 00 00 00 00 00 00 00 00 00 00 00 00 ................
0040AA60 00 00 00 00 00 00 00 00 00 00 00 00 00 00 00 00 ................
0040AA70 00 00 00 00 00 00 00 00 00 00 00 00 00 00 00 00 ................
0040AA80 00 00 00 00 00 00 00 00 00 00 00 00 00 00 00 00 ................
0040AA90 00 00 00 00 00 00 00 00 00 00 00 00 00 00 00 00 ................
0040AAA0 00 00 00 00 00 00 00 00 00 00 00 00 00 00 00 00 ................
0040AAB0 00 00 00 00 00 00 00 00 00 00 00 00 00 00 00 00 ................
0040AAC0 00 00 00 00 00 00 00 00 00 00 00 00 00 00 00 00 ................
0040AAD0 00 00 00 00 00 00 00 00 00 00 00 00 00 00 00 00 ................
0040AAE0 00 00 00 00 00 00 00 00 00 00 00 00 00 00 00 00 ................
0040AAF0 00 00 00 00 00 00 00 00 00 00 00 00 00 00 00 00 ................
0040AB00 00 00 00 00 00 00 00 00 00 00 00 00 00 00 00 00 ................
0040AB10 00 00 00 00 00 00 00 00 00 00 00 00 00 00 00 00 ................
0040AB20 00 00 00 00 00 00 00 00 00 00 00 00 00 00 00 00 ................
0040AB30 00 00 00 00 00 00 00 00 00 00 00 00 00 00 00 00 ................
0040AB40 00 00 00 00 00 00 00 00 00 00 00 00 00 00 00 00 ................
0040AB50 00 00 00 00 00 00 00 00 00 00 00 00 00 00 00 00 ................
0040AB60 00 00 00 00 00 00 00 00 00 00 00 00 00 00 00 00 ................
0040AB70 00 00 00 00 00 00 00 00 00 00 00 00 00 00 00 00 ................
0040AB80 00 00 00 00 00 00 00 00 00 00 00 00 00 00 00 00 ................
0040AB90 00 00 00 00 00 00 00 00 00 00 00 00 00 00 00 00 ................
0040ABA0 00 00 00 00 00 00 00 00 00 00 00 00 00 00 00 00 ................
0040ABB0 00 00 00 00 00 00 00 00 00 00 00 00 00 00 00 00 ................
0040ABC0 00 00 00 00 00 00 00 00 00 00 00 00 00 00 00 00 ................
0040ABD0 00 00 00 00 00 00 00 00 00 00 00 00 00 00 00 00 ................
0040ABE0 00 00 00 00 00 00 00 00 00 00 00 00 00 00 00 00 ................
0040ABF0 00 00 00 00 00 00 00 00 00 00 00 00 00 00 00 00 ................
0040AC00 00 00 00 00 00 00 00 00 00 00 00 00 00 00 00 00 ................
0040AC10 00 00 00 00 00 00 00 00 00 00 00 00 00 00 00 00 ................
0040AC20 00 00 00 00 00 00 00 00 00 00 00 00 00 00 00 00 ................
0040AC30 00 00 00 00 00 00 00 00 00 00 00 00 00 00 00 00 ................
0040AC40 00 00 00 00 00 00 00 00 00 00 00 00 00 00 00 00 ................
0040AC50 00 00 00 00 00 00 00 00 00 00 00 00 00 00 00 00 ................
0040AC60 00 00 00 00 00 00 00 00 00 00 00 00 00 00 00 00 ................
0040AC70 00 00 00 00 00 00 00 00 00 00 00 00 00 00 00 00 ................
0040AC80 00 00 00 00 00 00 00 00 00 00 00 00 00 00 00 00 ................
0040AC90 00 00 00 00 00 00 00 00 00 00 00 00 00 00 00 00 ................
0040ACA0 00 00 00 00 00 00 00 00 00 00 00 00 00 00 00 00 ................
0040ACB0 00 00 00 00 00 00 00 00 00 00 00 00 00 00 00 00 ................
0040ACC0 00 00 00 00 00 00 00 00 00 00 00 00 00 00 00 00 ................
0040ACD0 00 00 00 00 00 00 00 00 00 00 00 00 00 00 00 00 ................
0040ACE0 00 00 00 00 00 00 00 00 00 00 00 00 00 00 00 00 ................
0040ACF0 00 00 00 00 00 00 00 00 00 00 00 00 00 00 00 00 ................
0040AD00 00 00 00 00 00 00 00 00 00 00 00 00 00 00 00 00 ................
0040AD10 00 00 00 00 00 00 00 00 00 00 00 00 00 00 00 00 ................
0040AD20 00 00 00 00 00 00 00 00 00 00 00 00 00 00 00 00 ................
0040AD30 00 00 00 00 00 00 00 00 00 00 00 00 00 00 00 00 ................
0040AD40 00 00 00 00 00 00 00 00 00 00 00 00 00 00 00 00 ................
0040AD50 00 00 00 00 00 00 00 00 00 00 00 00 00 00 00 00 ................
0040AD60 00 00 00 00 00 00 00 00 00 00 00 00 00 00 00 00 ................
0040AD70 00 00 00 00 00 00 00 00 00 00 00 00 00 00 00 00 ................
0040AD80 00 00 00 00 00 00 00 00 00 00 00 00 00 00 00 00 ................
0040AD90 00 00 00 00 00 00 00 00 00 00 00 00 00 00 00 00 ................
0040ADA0 00 00 00 00 00 00 00 00 00 00 00 00 00 00 00 00 ................
0040ADB0 00 00 00 00 00 00 00 00 00 00 00 00 00 00 00 00 ................
0040ADC0 00 00 00 00 00 00 00 00 00 00 00 00 00 00 00 00 ................
0040ADD0 00 00 00 00 00 00 00 00 00 00 00 00 00 00 00 00 ................
0040ADE0 00 00 00 00 00 00 00 00 00 00 00 00 00 00 00 00 ................
0040ADF0 00 00 00 00 00 00 00 00 00 00 00 00 00 00 00 00 ................
0040AE00 00 00 00 00 00 00 00 00 00 00 00 00 00 00 00 00 ................
0040AE10 00 00 00 00 00 00 00 00 00 00 00 00 00 00 00 00 ................
0040AE20 00 00 00 00 00 00 00 00 00 00 00 00 00 00 00 00 ................
0040AE30 00 00 00 00 00 00 00 00 00 00 00 00 00 00 00 00 ................
0040AE40 00 00 00 00 00 00 00 00 00 00 00 00 00 00 00 00 ................
0040AE50 00 00 00 00 00 00 00 00 00 00 00 00 00 00 00 00 ................
0040AE60 00 00 00 00 00 00 00 00 00 00 00 00 00 00 00 00 ................
0040AE70 00 00 00 00 00 00 00 00 00 00 00 00 00 00 00 00 ................
0040AE80 00 00 00 00 00 00 00 00 00 00 00 00 00 00 00 00 ................
0040AE90 00 00 00 00 00 00 00 00 00 00 00 00 00 00 00 00 ................
0040AEA0 00 00 00 00 00 00 00 00 00 00 00 00 00 00 00 00 ................
0040AEB0 00 00 00 00 00 00 00 00 00 00 00 00 00 00 00 00 ................
0040AEC0 00 00 00 00 00 00 00 00 00 00 00 00 00 00 00 00 ................
0040AED0 00 00 00 00 00 00 00 00 00 00 00 00 00 00 00 00 ................
0040AEE0 00 00 00 00 00 00 00 00 00 00 00 00 00 00 00 00 ................
0040AEF0 00 00 00 00 00 00 00 00 00 00 00 00 00 00 00 00 ................
0040AF00 00 00 00 00 00 00 00 00 00 00 00 00 00 00 00 00 ................
0040AF10 00 00 00 00 00 00 00 00 00 00 00 00 00 00 00 00 ................
0040AF20 00 00 00 00 00 00 00 00 00 00 00 00 00 00 00 00 ................
0040AF30 00 00 00 00 00 00 00 00 00 00 00 00 00 00 00 00 ................
0040AF40 00 00 00 00 00 00 00 00 00 00 00 00 00 00 00 00 ................
0040AF50 00 00 00 00 00 00 00 00 00 00 00 00 00 00 00 00 ................
0040AF60 00 00 00 00 00 00 00 00 00 00 00 00 00 00 00 00 ................
0040AF70 00 00 00 00 00 00 00 00 00 00 00 00 00 00 00 00 ................
0040AF80 00 00 00 00 00 00 00 00 00 00 00 00 00 00 00 00 ................
0040AF90 00 00 00 00 00 00 00 00 00 00 00 00 00 00 00 00 ................
0040AFA0 00 00 00 00 00 00 00 00 00 00 00 00 00 00 00 00 ................
0040AFB0 00 00 00 00 00 00 00 00 00 00 00 00 00 00 00 00 ................
0040AFC0 00 00 00 00 00 00 00 00 00 00 00 00 00 00 00 00 ................
0040AFD0 00 00 00 00 00 00 00 00 00 00 00 00 00 00 00 00 ................
0040AFE0 00 00 00 00 00 00 00 00 00 00 00 00 00 00 00 00 ................
0040AFF0 00 00 00 00 00 00 00 00 00 00 00 00 00 00 00 00 ................
0040B000 25 10 00 00 B8 90 00 00 3D 10 00 00 C4 90 00 00 %.......=.......
0040B010 59 10 00 00 D0 90 00 00 89 10 00 00 E0 90 00 00 Y...............
0040B020 9D 10 00 00 EC 90 00 00 21 21 00 00 B8 8D 00 00 ........!!......
0040B030 71 21 00 00 61 60 7F FD D1 21 00 00 35 60 7F FD q!..a`...!..5`..
0040B040 05 22 00 00 F0 8D 00 00 09 23 00 00 00 8E 00 00 .".......#......
0040B050 A5 23 00 00 D0 8D 00 00 C1 23 00 00 10 8E 00 00 .#.......#......
0040B060 79 26 00 00 E0 8D 00 00 01 27 00 00 40 8E 00 00 y&.......'..@...
0040B070 51 27 00 00 29 60 3F 00 65 27 00 00 29 60 3F 00 Q'..)`?.e'..)`?.
0040B080 79 27 00 00 41 60 3F 00 A1 27 00 00 19 60 3F 00 y'..A`?..'...`?.
0040B090 AD 27 00 00 39 60 3F 00 C9 27 00 00 39 60 3F 00 .'..9`?..'..9`?.
0040B0A0 E5 27 00 00 51 60 3F 00 19 28 00 00 50 8E 00 00 .'..Q`?..(..P...
0040B0B0 B9 28 00 00 60 8E 00 00 09 29 00 00 70 8E 00 00 .(..`....)..p...
0040B0C0 4D 29 00 00 90 8E 00 00 CD 29 00 00 A0 8E 00 00 M).......)......
0040B0D0 8D 2A 00 00 80 8E 00 00 19 2B 00 00 D0 8E 00 00 .*.......+......
0040B0E0 E9 2B 00 00 E0 8E 00 00 05 2C 00 00 38 8F 00 00 .+.......,..8...
0040B0F0 D1 2C 00 00 00 8F 00 00 DD 2D 00 00 F0 8E 00 00 .,.......-......
0040B100 29 2E 00 00 61 60 31 00 59 2E 00 00 61 60 31 00 )...a`1.Y...a`1.
0040B110 C5 2E 00 00 A0 8F 00 00 09 2F 00 00 C8 8F 00 00 ........./......
0040B120 51 2F 00 00 88 8F 00 00 BD 30 00 00 A1 60 30 FD Q/.......0...`0.
0040B130 25 31 00 00 68 8F 00 00 3D 32 00 00 C5 60 B6 FD %1..h...=2...`..
0040B140 B9 32 00 00 31 60 3F 00 D1 32 00 00 F0 8F 00 00 .2..1`?..2......
0040B150 05 35 00 00 48 8F 00 00 61 36 00 00 70 90 00 00 .5..H...a6..p...
0040B160 6D 37 00 00 20 90 00 00 35 39 00 00 48 90 00 00 m7.. ...59..H...
0040B170 41 3A 00 00 08 90 00 00 2D 3D 00 00 A8 90 00 00 A:......-=......
0040B180 6D 3D 00 00 98 90 00 00 FD 3D 00 00 20 91 00 00 m=.......=.. ...
0040B190 09 3E 00 00 18 91 00 00 31 3E 00 00 F8 90 00 00 .>......1>......
0040B1A0 3D 3E 00 00 08 91 00 00 BD 56 00 00 38 8E 00 00 =>.......V..8...
0040B1B0 1D 57 00 00 30 8F 00 00 00 00 00 00 00 00 00 00 .W..0...........
0040B1C0 00 00 00 00 00 00 00 00 00 00 00 00 00 00 00 00 ................
0040B1D0 00 00 00 00 00 00 00 00 00 00 00 00 00 00 00 00 ................
0040B1E0 00 00 00 00 00 00 00 00 00 00 00 00 00 00 00 00 ................
0040B1F0 00 00 00 00 00 00 00 00 00 00 00 00 00 00 00 00 ................
0040B200 00 00 00 00 00 00 00 00 00 00 00 00 00 00 00 00 ................
0040B210 00 00 00 00 00 00 00 00 00 00 00 00 00 00 00 00 ................
0040B220 00 00 00 00 00 00 00 00 00 00 00 00 00 00 00 00 ................
0040B230 00 00 00 00 00 00 00 00 00 00 00 00 00 00 00 00 ................
0040B240 00 00 00 00 00 00 00 00 00 00 00 00 00 00 00 00 ................
0040B250 00 00 00 00 00 00 00 00 00 00 00 00 00 00 00 00 ................
0040B260 00 00 00 00 00 00 00 00 00 00 00 00 00 00 00 00 ................
0040B270 00 00 00 00 00 00 00 00 00 00 00 00 00 00 00 00 ................
0040B280 00 00 00 00 00 00 00 00 00 00 00 00 00 00 00 00 ................
0040B290 00 00 00 00 00 00 00 00 00 00 00 00 00 00 00 00 ................
0040B2A0 00 00 00 00 00 00 00 00 00 00 00 00 00 00 00 00 ................
0040B2B0 00 00 00 00 00 00 00 00 00 00 00 00 00 00 00 00 ................
0040B2C0 00 00 00 00 00 00 00 00 00 00 00 00 00 00 00 00 ................
0040B2D0 00 00 00 00 00 00 00 00 00 00 00 00 00 00 00 00 ................
0040B2E0 00 00 00 00 00 00 00 00 00 00 00 00 00 00 00 00 ................
0040B2F0 00 00 00 00 00 00 00 00 00 00 00 00 00 00 00 00 ................
0040B300 00 00 00 00 00 00 00 00 00 00 00 00 00 00 00 00 ................
0040B310 00 00 00 00 00 00 00 00 00 00 00 00 00 00 00 00 ................
0040B320 00 00 00 00 00 00 00 00 00 00 00 00 00 00 00 00 ................
0040B330 00 00 00 00 00 00 00 00 00 00 00 00 00 00 00 00 ................
0040B340 00 00 00 00 00 00 00 00 00 00 00 00 00 00 00 00 ................
0040B350 00 00 00 00 00 00 00 00 00 00 00 00 00 00 00 00 ................
0040B360 00 00 00 00 00 00 00 00 00 00 00 00 00 00 00 00 ................
0040B370 00 00 00 00 00 00 00 00 00 00 00 00 00 00 00 00 ................
0040B380 00 00 00 00 00 00 00 00 00 00 00 00 00 00 00 00 ................
0040B390 00 00 00 00 00 00 00 00 00 00 00 00 00 00 00 00 ................
0040B3A0 00 00 00 00 00 00 00 00 00 00 00 00 00 00 00 00 ................
0040B3B0 00 00 00 00 00 00 00 00 00 00 00 00 00 00 00 00 ................
0040B3C0 00 00 00 00 00 00 00 00 00 00 00 00 00 00 00 00 ................
0040B3D0 00 00 00 00 00 00 00 00 00 00 00 00 00 00 00 00 ................
0040B3E0 00 00 00 00 00 00 00 00 00 00 00 00 00 00 00 00 ................
0040B3F0 00 00 00 00 00 00 00 00 00 00 00 00 00 00 00 00 ................
0040B400 00 00 00 00 00 00 00 00 00 00 00 00 00 00 00 00 ................
0040B410 00 00 00 00 00 00 00 00 00 00 00 00 00 00 00 00 ................
0040B420 00 00 00 00 00 00 00 00 00 00 00 00 00 00 00 00 ................
0040B430 00 00 00 00 00 00 00 00 00 00 00 00 00 00 00 00 ................
0040B440 00 00 00 00 00 00 00 00 00 00 00 00 00 00 00 00 ................
0040B450 00 00 00 00 00 00 00 00 00 00 00 00 00 00 00 00 ................
0040B460 00 00 00 00 00 00 00 00 00 00 00 00 00 00 00 00 ................
0040B470 00 00 00 00 00 00 00 00 00 00 00 00 00 00 00 00 ................
0040B480 00 00 00 00 00 00 00 00 00 00 00 00 00 00 00 00 ................
0040B490 00 00 00 00 00 00 00 00 00 00 00 00 00 00 00 00 ................
0040B4A0 00 00 00 00 00 00 00 00 00 00 00 00 00 00 00 00 ................
0040B4B0 00 00 00 00 00 00 00 00 00 00 00 00 00 00 00 00 ................
0040B4C0 00 00 00 00 00 00 00 00 00 00 00 00 00 00 00 00 ................
0040B4D0 00 00 00 00 00 00 00 00 00 00 00 00 00 00 00 00 ................
0040B4E0 00 00 00 00 00 00 00 00 00 00 00 00 00 00 00 00 ................
0040B4F0 00 00 00 00 00 00 00 00 00 00 00 00 00 00 00 00 ................
0040B500 00 00 00 00 00 00 00 00 00 00 00 00 00 00 00 00 ................
0040B510 00 00 00 00 00 00 00 00 00 00 00 00 00 00 00 00 ................
0040B520 00 00 00 00 00 00 00 00 00 00 00 00 00 00 00 00 ................
0040B530 00 00 00 00 00 00 00 00 00 00 00 00 00 00 00 00 ................
0040B540 00 00 00 00 00 00 00 00 00 00 00 00 00 00 00 00 ................
0040B550 00 00 00 00 00 00 00 00 00 00 00 00 00 00 00 00 ................
0040B560 00 00 00 00 00 00 00 00 00 00 00 00 00 00 00 00 ................
0040B570 00 00 00 00 00 00 00 00 00 00 00 00 00 00 00 00 ................
0040B580 00 00 00 00 00 00 00 00 00 00 00 00 00 00 00 00 ................
0040B590 00 00 00 00 00 00 00 00 00 00 00 00 00 00 00 00 ................
0040B5A0 00 00 00 00 00 00 00 00 00 00 00 00 00 00 00 00 ................
0040B5B0 00 00 00 00 00 00 00 00 00 00 00 00 00 00 00 00 ................
0040B5C0 00 00 00 00 00 00 00 00 00 00 00 00 00 00 00 00 ................
0040B5D0 00 00 00 00 00 00 00 00 00 00 00 00 00 00 00 00 ................
0040B5E0 00 00 00 00 00 00 00 00 00 00 00 00 00 00 00 00 ................
0040B5F0 00 00 00 00 00 00 00 00 00 00 00 00 00 00 00 00 ................
0040B600 00 00 00 00 00 00 00 00 00 00 00 00 00 00 00 00 ................
0040B610 00 00 00 00 00 00 00 00 00 00 00 00 00 00 00 00 ................
0040B620 00 00 00 00 00 00 00 00 00 00 00 00 00 00 00 00 ................
0040B630 00 00 00 00 00 00 00 00 00 00 00 00 00 00 00 00 ................
0040B640 00 00 00 00 00 00 00 00 00 00 00 00 00 00 00 00 ................
0040B650 00 00 00 00 00 00 00 00 00 00 00 00 00 00 00 00 ................
0040B660 00 00 00 00 00 00 00 00 00 00 00 00 00 00 00 00 ................
0040B670 00 00 00 00 00 00 00 00 00 00 00 00 00 00 00 00 ................
0040B680 00 00 00 00 00 00 00 00 00 00 00 00 00 00 00 00 ................
0040B690 00 00 00 00 00 00 00 00 00 00 00 00 00 00 00 00 ................
0040B6A0 00 00 00 00 00 00 00 00 00 00 00 00 00 00 00 00 ................
0040B6B0 00 00 00 00 00 00 00 00 00 00 00 00 00 00 00 00 ................
0040B6C0 00 00 00 00 00 00 00 00 00 00 00 00 00 00 00 00 ................
0040B6D0 00 00 00 00 00 00 00 00 00 00 00 00 00 00 00 00 ................
0040B6E0 00 00 00 00 00 00 00 00 00 00 00 00 00 00 00 00 ................
0040B6F0 00 00 00 00 00 00 00 00 00 00 00 00 00 00 00 00 ................
0040B700 00 00 00 00 00 00 00 00 00 00 00 00 00 00 00 00 ................
0040B710 00 00 00 00 00 00 00 00 00 00 00 00 00 00 00 00 ................
0040B720 00 00 00 00 00 00 00 00 00 00 00 00 00 00 00 00 ................
0040B730 00 00 00 00 00 00 00 00 00 00 00 00 00 00 00 00 ................
0040B740 00 00 00 00 00 00 00 00 00 00 00 00 00 00 00 00 ................
0040B750 00 00 00 00 00 00 00 00 00 00 00 00 00 00 00 00 ................
0040B760 00 00 00 00 00 00 00 00 00 00 00 00 00 00 00 00 ................
0040B770 00 00 00 00 00 00 00 00 00 00 00 00 00 00 00 00 ................
0040B780 00 00 00 00 00 00 00 00 00 00 00 00 00 00 00 00 ................
0040B790 00 00 00 00 00 00 00 00 00 00 00 00 00 00 00 00 ................
0040B7A0 00 00 00 00 00 00 00 00 00 00 00 00 00 00 00 00 ................
0040B7B0 00 00 00 00 00 00 00 00 00 00 00 00 00 00 00 00 ................
0040B7C0 00 00 00 00 00 00 00 00 00 00 00 00 00 00 00 00 ................
0040B7D0 00 00 00 00 00 00 00 00 00 00 00 00 00 00 00 00 ................
0040B7E0 00 00 00 00 00 00 00 00 00 00 00 00 00 00 00 00 ................
0040B7F0 00 00 00 00 00 00 00 00 00 00 00 00 00 00 00 00 ................
0040B800 00 00 00 00 00 00 00 00 00 00 00 00 00 00 00 00 ................
0040B810 00 00 00 00 00 00 00 00 00 00 00 00 00 00 00 00 ................
0040B820 00 00 00 00 00 00 00 00 00 00 00 00 00 00 00 00 ................
0040B830 00 00 00 00 00 00 00 00 00 00 00 00 00 00 00 00 ................
0040B840 00 00 00 00 00 00 00 00 00 00 00 00 00 00 00 00 ................
0040B850 00 00 00 00 00 00 00 00 00 00 00 00 00 00 00 00 ................
0040B860 00 00 00 00 00 00 00 00 00 00 00 00 00 00 00 00 ................
0040B870 00 00 00 00 00 00 00 00 00 00 00 00 00 00 00 00 ................
0040B880 00 00 00 00 00 00 00 00 00 00 00 00 00 00 00 00 ................
0040B890 00 00 00 00 00 00 00 00 00 00 00 00 00 00 00 00 ................
0040B8A0 00 00 00 00 00 00 00 00 00 00 00 00 00 00 00 00 ................
0040B8B0 00 00 00 00 00 00 00 00 00 00 00 00 00 00 00 00 ................
0040B8C0 00 00 00 00 00 00 00 00 00 00 00 00 00 00 00 00 ................
0040B8D0 00 00 00 00 00 00 00 00 00 00 00 00 00 00 00 00 ................
0040B8E0 00 00 00 00 00 00 00 00 00 00 00 00 00 00 00 00 ................
0040B8F0 00 00 00 00 00 00 00 00 00 00 00 00 00 00 00 00 ................
0040B900 00 00 00 00 00 00 00 00 00 00 00 00 00 00 00 00 ................
0040B910 00 00 00 00 00 00 00 00 00 00 00 00 00 00 00 00 ................
0040B920 00 00 00 00 00 00 00 00 00 00 00 00 00 00 00 00 ................
0040B930 00 00 00 00 00 00 00 00 00 00 00 00 00 00 00 00 ................
0040B940 00 00 00 00 00 00 00 00 00 00 00 00 00 00 00 00 ................
0040B950 00 00 00 00 00 00 00 00 00 00 00 00 00 00 00 00 ................
0040B960 00 00 00 00 00 00 00 00 00 00 00 00 00 00 00 00 ................
0040B970 00 00 00 00 00 00 00 00 00 00 00 00 00 00 00 00 ................
0040B980 00 00 00 00 00 00 00 00 00 00 00 00 00 00 00 00 ................
0040B990 00 00 00 00 00 00 00 00 00 00 00 00 00 00 00 00 ................
0040B9A0 00 00 00 00 00 00 00 00 00 00 00 00 00 00 00 00 ................
0040B9B0 00 00 00 00 00 00 00 00 00 00 00 00 00 00 00 00 ................
0040B9C0 00 00 00 00 00 00 00 00 00 00 00 00 00 00 00 00 ................
0040B9D0 00 00 00 00 00 00 00 00 00 00 00 00 00 00 00 00 ................
0040B9E0 00 00 00 00 00 00 00 00 00 00 00 00 00 00 00 00 ................
0040B9F0 00 00 00 00 00 00 00 00 00 00 00 00 00 00 00 00 ................
0040BA00 00 00 00 00 00 00 00 00 00 00 00 00 00 00 00 00 ................
0040BA10 00 00 00 00 00 00 00 00 00 00 00 00 00 00 00 00 ................
0040BA20 00 00 00 00 00 00 00 00 00 00 00 00 00 00 00 00 ................
0040BA30 00 00 00 00 00 00 00 00 00 00 00 00 00 00 00 00 ................
0040BA40 00 00 00 00 00 00 00 00 00 00 00 00 00 00 00 00 ................
0040BA50 00 00 00 00 00 00 00 00 00 00 00 00 00 00 00 00 ................
0040BA60 00 00 00 00 00 00 00 00 00 00 00 00 00 00 00 00 ................
0040BA70 00 00 00 00 00 00 00 00 00 00 00 00 00 00 00 00 ................
0040BA80 00 00 00 00 00 00 00 00 00 00 00 00 00 00 00 00 ................
0040BA90 00 00 00 00 00 00 00 00 00 00 00 00 00 00 00 00 ................
0040BAA0 00 00 00 00 00 00 00 00 00 00 00 00 00 00 00 00 ................
0040BAB0 00 00 00 00 00 00 00 00 00 00 00 00 00 00 00 00 ................
0040BAC0 00 00 00 00 00 00 00 00 00 00 00 00 00 00 00 00 ................
0040BAD0 00 00 00 00 00 00 00 00 00 00 00 00 00 00 00 00 ................
0040BAE0 00 00 00 00 00 00 00 00 00 00 00 00 00 00 00 00 ................
0040BAF0 00 00 00 00 00 00 00 00 00 00 00 00 00 00 00 00 ................
0040BB00 00 00 00 00 00 00 00 00 00 00 00 00 00 00 00 00 ................
0040BB10 00 00 00 00 00 00 00 00 00 00 00 00 00 00 00 00 ................
0040BB20 00 00 00 00 00 00 00 00 00 00 00 00 00 00 00 00 ................
0040BB30 00 00 00 00 00 00 00 00 00 00 00 00 00 00 00 00 ................
0040BB40 00 00 00 00 00 00 00 00 00 00 00 00 00 00 00 00 ................
0040BB50 00 00 00 00 00 00 00 00 00 00 00 00 00 00 00 00 ................
0040BB60 00 00 00 00 00 00 00 00 00 00 00 00 00 00 00 00 ................
0040BB70 00 00 00 00 00 00 00 00 00 00 00 00 00 00 00 00 ................
0040BB80 00 00 00 00 00 00 00 00 00 00 00 00 00 00 00 00 ................
0040BB90 00 00 00 00 00 00 00 00 00 00 00 00 00 00 00 00 ................
0040BBA0 00 00 00 00 00 00 00 00 00 00 00 00 00 00 00 00 ................
0040BBB0 00 00 00 00 00 00 00 00 00 00 00 00 00 00 00 00 ................
0040BBC0 00 00 00 00 00 00 00 00 00 00 00 00 00 00 00 00 ................
0040BBD0 00 00 00 00 00 00 00 00 00 00 00 00 00 00 00 00 ................
0040BBE0 00 00 00 00 00 00 00 00 00 00 00 00 00 00 00 00 ................
0040BBF0 00 00 00 00 00 00 00 00 00 00 00 00 00 00 00 00 ................
0040BC00 00 00 00 00 00 00 00 00 00 00 00 00 00 00 00 00 ................
0040BC10 00 00 00 00 00 00 00 00 00 00 00 00 00 00 00 00 ................
0040BC20 00 00 00 00 00 00 00 00 00 00 00 00 00 00 00 00 ................
0040BC30 00 00 00 00 00 00 00 00 00 00 00 00 00 00 00 00 ................
0040BC40 00 00 00 00 00 00 00 00 00 00 00 00 00 00 00 00 ................
0040BC50 00 00 00 00 00 00 00 00 00 00 00 00 00 00 00 00 ................
0040BC60 00 00 00 00 00 00 00 00 00 00 00 00 00 00 00 00 ................
0040BC70 00 00 00 00 00 00 00 00 00 00 00 00 00 00 00 00 ................
0040BC80 00 00 00 00 00 00 00 00 00 00 00 00 00 00 00 00 ................
0040BC90 00 00 00 00 00 00 00 00 00 00 00 00 00 00 00 00 ................
0040BCA0 00 00 00 00 00 00 00 00 00 00 00 00 00 00 00 00 ................
0040BCB0 00 00 00 00 00 00 00 00 00 00 00 00 00 00 00 00 ................
0040BCC0 00 00 00 00 00 00 00 00 00 00 00 00 00 00 00 00 ................
0040BCD0 00 00 00 00 00 00 00 00 00 00 00 00 00 00 00 00 ................
0040BCE0 00 00 00 00 00 00 00 00 00 00 00 00 00 00 00 00 ................
0040BCF0 00 00 00 00 00 00 00 00 00 00 00 00 00 00 00 00 ................
0040BD00 00 00 00 00 00 00 00 00 00 00 00 00 00 00 00 00 ................
0040BD10 00 00 00 00 00 00 00 00 00 00 00 00 00 00 00 00 ................
0040BD20 00 00 00 00 00 00 00 00 00 00 00 00 00 00 00 00 ................
0040BD30 00 00 00 00 00 00 00 00 00 00 00 00 00 00 00 00 ................
0040BD40 00 00 00 00 00 00 00 00 00 00 00 00 00 00 00 00 ................
0040BD50 00 00 00 00 00 00 00 00 00 00 00 00 00 00 00 00 ................
0040BD60 00 00 00 00 00 00 00 00 00 00 00 00 00 00 00 00 ................
0040BD70 00 00 00 00 00 00 00 00 00 00 00 00 00 00 00 00 ................
0040BD80 00 00 00 00 00 00 00 00 00 00 00 00 00 00 00 00 ................
0040BD90 00 00 00 00 00 00 00 00 00 00 00 00 00 00 00 00 ................
0040BDA0 00 00 00 00 00 00 00 00 00 00 00 00 00 00 00 00 ................
0040BDB0 00 00 00 00 00 00 00 00 00 00 00 00 00 00 00 00 ................
0040BDC0 00 00 00 00 00 00 00 00 00 00 00 00 00 00 00 00 ................
0040BDD0 00 00 00 00 00 00 00 00 00 00 00 00 00 00 00 00 ................
0040BDE0 00 00 00 00 00 00 00 00 00 00 00 00 00 00 00 00 ................
0040BDF0 00 00 00 00 00 00 00 00 00 00 00 00 00 00 00 00 ................
0040BE00 00 00 00 00 00 00 00 00 00 00 00 00 00 00 00 00 ................
0040BE10 00 00 00 00 00 00 00 00 00 00 00 00 00 00 00 00 ................
0040BE20 00 00 00 00 00 00 00 00 00 00 00 00 00 00 00 00 ................
0040BE30 00 00 00 00 00 00 00 00 00 00 00 00 00 00 00 00 ................
0040BE40 00 00 00 00 00 00 00 00 00 00 00 00 00 00 00 00 ................
0040BE50 00 00 00 00 00 00 00 00 00 00 00 00 00 00 00 00 ................
0040BE60 00 00 00 00 00 00 00 00 00 00 00 00 00 00 00 00 ................
0040BE70 00 00 00 00 00 00 00 00 00 00 00 00 00 00 00 00 ................
0040BE80 00 00 00 00 00 00 00 00 00 00 00 00 00 00 00 00 ................
0040BE90 00 00 00 00 00 00 00 00 00 00 00 00 00 00 00 00 ................
0040BEA0 00 00 00 00 00 00 00 00 00 00 00 00 00 00 00 00 ................
0040BEB0 00 00 00 00 00 00 00 00 00 00 00 00 00 00 00 00 ................
0040BEC0 00 00 00 00 00 00 00 00 00 00 00 00 00 00 00 00 ................
0040BED0 00 00 00 00 00 00 00 00 00 00 00 00 00 00 00 00 ................
0040BEE0 00 00 00 00 00 00 00 00 00 00 00 00 00 00 00 00 ................
0040BEF0 00 00 00 00 00 00 00 00 00 00 00 00 00 00 00 00 ................
0040BF00 00 00 00 00 00 00 00 00 00 00 00 00 00 00 00 00 ................
0040BF10 00 00 00 00 00 00 00 00 00 00 00 00 00 00 00 00 ................
0040BF20 00 00 00 00 00 00 00 00 00 00 00 00 00 00 00 00 ................
0040BF30 00 00 00 00 00 00 00 00 00 00 00 00 00 00 00 00 ................
0040BF40 00 00 00 00 00 00 00 00 00 00 00 00 00 00 00 00 ................
0040BF50 00 00 00 00 00 00 00 00 00 00 00 00 00 00 00 00 ................
0040BF60 00 00 00 00 00 00 00 00 00 00 00 00 00 00 00 00 ................
0040BF70 00 00 00 00 00 00 00 00 00 00 00 00 00 00 00 00 ................
0040BF80 00 00 00 00 00 00 00 00 00 00 00 00 00 00 00 00 ................
0040BF90 00 00 00 00 00 00 00 00 00 00 00 00 00 00 00 00 ................
0040BFA0 00 00 00 00 00 00 00 00 00 00 00 00 00 00 00 00 ................
0040BFB0 00 00 00 00 00 00 00 00 00 00 00 00 00 00 00 00 ................
0040BFC0 00 00 00 00 00 00 00 00 00 00 00 00 00 00 00 00 ................
0040BFD0 00 00 00 00 00 00 00 00 00 00 00 00 00 00 00 00 ................
0040BFE0 00 00 00 00 00 00 00 00 00 00 00 00 00 00 00 00 ................
0040BFF0 00 00 00 00 00 00 00 00 00 00 00 00 00 00 00 00 ................
0040C000 1A C6 00 00 06 C6 00 00 F0 C5 00 00 E2 C5 00 00 ................
0040C010 D2 C5 00 00 C0 C5 00 00 B4 C5 00 00 A8 C5 00 00 ................
0040C020 98 C5 00 00 82 C5 00 00 6C C5 00 00 5A C5 00 00 ........l...Z...
0040C030 46 C5 00 00 36 C5 00 00 24 C5 00 00 0A C5 00 00 F...6...$.......
0040C040 F4 C4 00 00 DE C4 00 00 C4 C4 00 00 B4 C4 00 00 ................
0040C050 2C C6 00 00 00 00 00 00 00 00 00 00 00 00 00 00 ,...............
0040C060 00 00 00 00 00 00 00 00 00 00 00 00 00 00 00 00 ................
0040C070 00 00 00 00 00 00 00 00 00 00 00 00 00 00 00 00 ................
0040C080 00 00 00 00 00 00 00 00 00 00 00 00 00 00 00 00 ................
0040C090 3A C4 00 00 42 C4 00 00 4C C4 00 00 5A C4 00 00 :...B...L...Z...
0040C0A0 16 C4 00 00 72 C4 00 00 7E C4 00 00 88 C4 00 00 ....r...~.......
0040C0B0 94 C4 00 00 A4 C4 00 00 02 C4 00 00 F6 C3 00 00 ................
0040C0C0 EC C3 00 00 E0 C3 00 00 C8 C3 00 00 BC C3 00 00 ................
0040C0D0 AE C3 00 00 9A C3 00 00 84 C3 00 00 7A C3 00 00 ............z...
0040C0E0 72 C3 00 00 6A C3 00 00 56 C3 00 00 44 C3 00 00 r...j...V...D...
0040C0F0 32 C3 00 00 22 C3 00 00 14 C3 00 00 06 C3 00 00 2..."...........
0040C100 F4 C2 00 00 68 C4 00 00 DC C2 00 00 00 00 00 00 ....h...........
0040C110 00 00 00 00 00 00 00 00 00 00 00 00 00 00 00 00 ................
0040C120 00 00 00 00 00 00 00 00 00 00 00 00 00 00 00 00 ................
0040C130 00 00 00 00 00 00 00 00 00 00 00 00 00 00 00 00 ................
0040C140 00 00 00 00 00 00 00 00 00 00 00 00 00 00 00 00 ................
0040C150 1C C2 00 00 00 00 00 00 00 00 00 00 E6 C2 00 00 ................
0040C160 90 C0 00 00 8C C1 00 00 00 00 00 00 00 00 00 00 ................
0040C170 3E C6 00 00 00 C0 00 00 00 00 00 00 00 00 00 00 >...............
0040C180 00 00 00 00 00 00 00 00 00 00 00 00 1A C6 00 00 ................
0040C190 06 C6 00 00 F0 C5 00 00 E2 C5 00 00 D2 C5 00 00 ................
0040C1A0 C0 C5 00 00 B4 C5 00 00 A8 C5 00 00 98 C5 00 00 ................
0040C1B0 82 C5 00 00 6C C5 00 00 5A C5 00 00 46 C5 00 00 ....l...Z...F...
0040C1C0 36 C5 00 00 24 C5 00 00 0A C5 00 00 F4 C4 00 00 6...$...........
0040C1D0 DE C4 00 00 C4 C4 00 00 B4 C4 00 00 2C C6 00 00 ............,...
0040C1E0 00 00 00 00 00 00 00 00 00 00 00 00 00 00 00 00 ................
0040C1F0 00 00 00 00 00 00 00 00 00 00 00 00 00 00 00 00 ................
0040C200 00 00 00 00 00 00 00 00 00 00 00 00 00 00 00 00 ................
0040C210 00 00 00 00 00 00 00 00 00 00 00 00 3A C4 00 00 ............:...
0040C220 42 C4 00 00 4C C4 00 00 5A C4 00 00 16 C4 00 00 B...L...Z.......
0040C230 72 C4 00 00 7E C4 00 00 88 C4 00 00 94 C4 00 00 r...~...........
0040C240 A4 C4 00 00 02 C4 00 00 F6 C3 00 00 EC C3 00 00 ................
0040C250 E0 C3 00 00 C8 C3 00 00 BC C3 00 00 AE C3 00 00 ................
0040C260 9A C3 00 00 84 C3 00 00 7A C3 00 00 72 C3 00 00 ........z...r...
0040C270 6A C3 00 00 56 C3 00 00 44 C3 00 00 32 C3 00 00 j...V...D...2...
0040C280 22 C3 00 00 14 C3 00 00 06 C3 00 00 F4 C2 00 00 "...............
0040C290 68 C4 00 00 DC C2 00 00 00 00 00 00 00 00 00 00 h...............
0040C2A0 00 00 00 00 00 00 00 00 00 00 00 00 00 00 00 00 ................
0040C2B0 00 00 00 00 00 00 00 00 00 00 00 00 00 00 00 00 ................
0040C2C0 00 00 00 00 00 00 00 00 00 00 00 00 00 00 00 00 ................
0040C2D0 00 00 00 00 00 00 00 00 00 00 00 00 EE 06 70 72 ..............pr
0040C2E0 69 6E 74 66 00 00 4D 53 56 43 52 31 32 30 44 2E intf..MSVCR120D.
0040C2F0 64 6C 6C 00 43 01 5F 43 52 54 5F 52 54 43 5F 49 dll.C._CRT_RTC_I
0040C300 4E 49 54 57 00 00 76 01 5F 58 63 70 74 46 69 6C NITW..v._XcptFil
0040C310 74 65 72 00 04 02 5F 61 6D 73 67 5F 65 78 69 74 ter..._amsg_exit
0040C320 00 00 AD 01 5F 5F 67 65 74 6D 61 69 6E 61 72 67 ....__getmainarg
0040C330 73 00 D8 01 5F 5F 73 65 74 5F 61 70 70 5F 74 79 s...__set_app_ty
0040C340 70 65 00 00 49 01 5F 43 72 74 44 62 67 52 65 70 pe..I._CrtDbgRep
0040C350 6F 72 74 57 00 00 5A 01 5F 43 72 74 53 65 74 43 ortW..Z._CrtSetC
0040C360 68 65 63 6B 43 6F 75 6E 74 00 37 06 65 78 69 74 heckCount.7.exit
0040C370 00 00 70 02 5F 65 78 69 74 00 1C 02 5F 63 65 78 ..p._exit..._cex
0040C380 69 74 00 00 2E 02 5F 63 6F 6E 66 69 67 74 68 72 it...._configthr
0040C390 65 61 64 6C 6F 63 61 6C 65 00 DA 01 5F 5F 73 65 eadlocale...__se
0040C3A0 74 75 73 65 72 6D 61 74 68 65 72 72 00 00 FE 02 tusermatherr....
0040C3B0 5F 69 6E 69 74 74 65 72 6D 5F 65 00 FD 02 5F 69 _initterm_e..._i
0040C3C0 6E 69 74 74 65 72 6D 00 7A 01 5F 5F 43 5F 73 70 nitterm.z.__C_sp
0040C3D0 65 63 69 66 69 63 5F 68 61 6E 64 6C 65 72 00 00 ecific_handler..
0040C3E0 AE 01 5F 5F 69 6E 69 74 65 6E 76 00 90 02 5F 66 ..__initenv..._f
0040C3F0 6D 6F 64 65 00 00 2D 02 5F 63 6F 6D 6D 6F 64 65 mode..-._commode
0040C400 00 00 34 01 3F 74 65 72 6D 69 6E 61 74 65 40 40 ..4.?terminate@@
0040C410 59 41 58 58 5A 00 A1 01 5F 5F 63 72 74 53 65 74 YAXXZ...__crtSet
0040C420 55 6E 68 61 6E 64 6C 65 64 45 78 63 65 70 74 69 UnhandledExcepti
0040C430 6F 6E 46 69 6C 74 65 72 00 00 73 03 5F 6C 6F 63 onFilter..s._loc
0040C440 6B 00 E0 04 5F 75 6E 6C 6F 63 6B 00 1B 02 5F 63 k..._unlock..._c
0040C450 61 6C 6C 6F 63 5F 64 62 67 00 A5 01 5F 5F 64 6C alloc_dbg...__dl
0040C460 6C 6F 6E 65 78 69 74 00 1B 04 5F 6F 6E 65 78 69 lonexit..._onexi
0040C470 74 00 1C 07 73 70 72 69 6E 74 66 5F 73 00 27 07 t...sprintf_s.'.
0040C480 73 74 72 63 70 79 00 00 7C 07 77 63 73 63 70 79 strcpy..|.wcscpy
0040C490 5F 73 00 00 7E 05 5F 77 6D 61 6B 65 70 61 74 68 _s..~._wmakepath
0040C4A0 5F 73 00 00 A0 05 5F 77 73 70 6C 69 74 70 61 74 _s...._wsplitpat
0040C4B0 68 5F 73 00 20 01 45 6E 63 6F 64 65 50 6F 69 6E h_s. .EncodePoin
0040C4C0 74 65 72 00 22 04 51 75 65 72 79 50 65 72 66 6F ter.".QueryPerfo
0040C4D0 72 6D 61 6E 63 65 43 6F 75 6E 74 65 72 00 09 02 rmanceCounter...
0040C4E0 47 65 74 43 75 72 72 65 6E 74 50 72 6F 63 65 73 GetCurrentProces
0040C4F0 73 49 64 00 0D 02 47 65 74 43 75 72 72 65 6E 74 sId...GetCurrent
0040C500 54 68 72 65 61 64 49 64 00 00 D3 02 47 65 74 53 ThreadId....GetS
0040C510 79 73 74 65 6D 54 69 6D 65 41 73 46 69 6C 65 54 ystemTimeAsFileT
0040C520 69 6D 65 00 F0 02 47 65 74 54 69 63 6B 43 6F 75 ime...GetTickCou
0040C530 6E 74 36 34 00 00 FD 00 44 65 63 6F 64 65 50 6F nt64....DecodePo
0040C540 69 6E 74 65 72 00 5D 03 49 73 44 65 62 75 67 67 inter.].IsDebugg
0040C550 65 72 50 72 65 73 65 6E 74 00 35 04 52 61 69 73 erPresent.5.Rais
0040C560 65 45 78 63 65 70 74 69 6F 6E 00 00 C6 03 4D 75 eException....Mu
0040C570 6C 74 69 42 79 74 65 54 6F 57 69 64 65 43 68 61 ltiByteToWideCha
0040C580 72 00 CB 05 57 69 64 65 43 68 61 72 54 6F 4D 75 r...WideCharToMu
0040C590 6C 74 69 42 79 74 65 00 4D 02 47 65 74 4C 61 73 ltiByte.M.GetLas
0040C5A0 74 45 72 72 6F 72 00 00 2B 03 48 65 61 70 41 6C tError..+.HeapAl
0040C5B0 6C 6F 63 00 2F 03 48 65 61 70 46 72 65 65 00 00 loc./.HeapFree..
0040C5C0 9F 02 47 65 74 50 72 6F 63 65 73 73 48 65 61 70 ..GetProcessHeap
0040C5D0 00 00 A1 05 56 69 72 74 75 61 6C 51 75 65 72 79 ....VirtualQuery
0040C5E0 00 00 9D 01 46 72 65 65 4C 69 62 72 61 72 79 00 ....FreeLibrary.
0040C5F0 60 02 47 65 74 4D 6F 64 75 6C 65 46 69 6C 65 4E `.GetModuleFileN
0040C600 61 6D 65 57 00 00 64 02 47 65 74 4D 6F 64 75 6C ameW..d.GetModul
0040C610 65 48 61 6E 64 6C 65 57 00 00 9A 02 47 65 74 50 eHandleW....GetP
0040C620 72 6F 63 41 64 64 72 65 73 73 00 00 9D 03 4C 6F rocAddress....Lo
0040C630 61 64 4C 69 62 72 61 72 79 45 78 57 00 00 4B 45 adLibraryExW..KE
0040C640 52 4E 45 4C 33 32 2E 64 6C 6C 00 00 00 00 00 00 RNEL32.dll......
0040C650 00 00 00 00 00 00 00 00 00 00 00 00 00 00 00 00 ................
0040C660 00 00 00 00 00 00 00 00 00 00 00 00 00 00 00 00 ................
0040C670 00 00 00 00 00 00 00 00 00 00 00 00 00 00 00 00 ................
0040C680 00 00 00 00 00 00 00 00 00 00 00 00 00 00 00 00 ................
0040C690 00 00 00 00 00 00 00 00 00 00 00 00 00 00 00 00 ................
0040C6A0 00 00 00 00 00 00 00 00 00 00 00 00 00 00 00 00 ................
0040C6B0 00 00 00 00 00 00 00 00 00 00 00 00 00 00 00 00 ................
0040C6C0 00 00 00 00 00 00 00 00 00 00 00 00 00 00 00 00 ................
0040C6D0 00 00 00 00 00 00 00 00 00 00 00 00 00 00 00 00 ................
0040C6E0 00 00 00 00 00 00 00 00 00 00 00 00 00 00 00 00 ................
0040C6F0 00 00 00 00 00 00 00 00 00 00 00 00 00 00 00 00 ................
0040C700 00 00 00 00 00 00 00 00 00 00 00 00 00 00 00 00 ................
0040C710 00 00 00 00 00 00 00 00 00 00 00 00 00 00 00 00 ................
0040C720 00 00 00 00 00 00 00 00 00 00 00 00 00 00 00 00 ................
0040C730 00 00 00 00 00 00 00 00 00 00 00 00 00 00 00 00 ................
0040C740 00 00 00 00 00 00 00 00 00 00 00 00 00 00 00 00 ................
0040C750 00 00 00 00 00 00 00 00 00 00 00 00 00 00 00 00 ................
0040C760 00 00 00 00 00 00 00 00 00 00 00 00 00 00 00 00 ................
0040C770 00 00 00 00 00 00 00 00 00 00 00 00 00 00 00 00 ................
0040C780 00 00 00 00 00 00 00 00 00 00 00 00 00 00 00 00 ................
0040C790 00 00 00 00 00 00 00 00 00 00 00 00 00 00 00 00 ................
0040C7A0 00 00 00 00 00 00 00 00 00 00 00 00 00 00 00 00 ................
0040C7B0 00 00 00 00 00 00 00 00 00 00 00 00 00 00 00 00 ................
0040C7C0 00 00 00 00 00 00 00 00 00 00 00 00 00 00 00 00 ................
0040C7D0 00 00 00 00 00 00 00 00 00 00 00 00 00 00 00 00 ................
0040C7E0 00 00 00 00 00 00 00 00 00 00 00 00 00 00 00 00 ................
0040C7F0 00 00 00 00 00 00 00 00 00 00 00 00 00 00 00 00 ................
0040C800 00 00 00 00 00 00 00 00 00 00 00 00 00 00 00 00 ................
0040C810 00 00 00 00 00 00 00 00 00 00 00 00 00 00 00 00 ................
0040C820 00 00 00 00 00 00 00 00 00 00 00 00 00 00 00 00 ................
0040C830 00 00 00 00 00 00 00 00 00 00 00 00 00 00 00 00 ................
0040C840 00 00 00 00 00 00 00 00 00 00 00 00 00 00 00 00 ................
0040C850 00 00 00 00 00 00 00 00 00 00 00 00 00 00 00 00 ................
0040C860 00 00 00 00 00 00 00 00 00 00 00 00 00 00 00 00 ................
0040C870 00 00 00 00 00 00 00 00 00 00 00 00 00 00 00 00 ................
0040C880 00 00 00 00 00 00 00 00 00 00 00 00 00 00 00 00 ................
0040C890 00 00 00 00 00 00 00 00 00 00 00 00 00 00 00 00 ................
0040C8A0 00 00 00 00 00 00 00 00 00 00 00 00 00 00 00 00 ................
0040C8B0 00 00 00 00 00 00 00 00 00 00 00 00 00 00 00 00 ................
0040C8C0 00 00 00 00 00 00 00 00 00 00 00 00 00 00 00 00 ................
0040C8D0 00 00 00 00 00 00 00 00 00 00 00 00 00 00 00 00 ................
0040C8E0 00 00 00 00 00 00 00 00 00 00 00 00 00 00 00 00 ................
0040C8F0 00 00 00 00 00 00 00 00 00 00 00 00 00 00 00 00 ................
0040C900 00 00 00 00 00 00 00 00 00 00 00 00 00 00 00 00 ................
0040C910 00 00 00 00 00 00 00 00 00 00 00 00 00 00 00 00 ................
0040C920 00 00 00 00 00 00 00 00 00 00 00 00 00 00 00 00 ................
0040C930 00 00 00 00 00 00 00 00 00 00 00 00 00 00 00 00 ................
0040C940 00 00 00 00 00 00 00 00 00 00 00 00 00 00 00 00 ................
0040C950 00 00 00 00 00 00 00 00 00 00 00 00 00 00 00 00 ................
0040C960 00 00 00 00 00 00 00 00 00 00 00 00 00 00 00 00 ................
0040C970 00 00 00 00 00 00 00 00 00 00 00 00 00 00 00 00 ................
0040C980 00 00 00 00 00 00 00 00 00 00 00 00 00 00 00 00 ................
0040C990 00 00 00 00 00 00 00 00 00 00 00 00 00 00 00 00 ................
0040C9A0 00 00 00 00 00 00 00 00 00 00 00 00 00 00 00 00 ................
0040C9B0 00 00 00 00 00 00 00 00 00 00 00 00 00 00 00 00 ................
0040C9C0 00 00 00 00 00 00 00 00 00 00 00 00 00 00 00 00 ................
0040C9D0 00 00 00 00 00 00 00 00 00 00 00 00 00 00 00 00 ................
0040C9E0 00 00 00 00 00 00 00 00 00 00 00 00 00 00 00 00 ................
0040C9F0 00 00 00 00 00 00 00 00 00 00 00 00 00 00 00 00 ................
0040CA00 00 00 00 00 00 00 00 00 00 00 00 00 00 00 00 00 ................
0040CA10 00 00 00 00 00 00 00 00 00 00 00 00 00 00 00 00 ................
0040CA20 00 00 00 00 00 00 00 00 00 00 00 00 00 00 00 00 ................
0040CA30 00 00 00 00 00 00 00 00 00 00 00 00 00 00 00 00 ................
0040CA40 00 00 00 00 00 00 00 00 00 00 00 00 00 00 00 00 ................
0040CA50 00 00 00 00 00 00 00 00 00 00 00 00 00 00 00 00 ................
0040CA60 00 00 00 00 00 00 00 00 00 00 00 00 00 00 00 00 ................
0040CA70 00 00 00 00 00 00 00 00 00 00 00 00 00 00 00 00 ................
0040CA80 00 00 00 00 00 00 00 00 00 00 00 00 00 00 00 00 ................
0040CA90 00 00 00 00 00 00 00 00 00 00 00 00 00 00 00 00 ................
0040CAA0 00 00 00 00 00 00 00 00 00 00 00 00 00 00 00 00 ................
0040CAB0 00 00 00 00 00 00 00 00 00 00 00 00 00 00 00 00 ................
0040CAC0 00 00 00 00 00 00 00 00 00 00 00 00 00 00 00 00 ................
0040CAD0 00 00 00 00 00 00 00 00 00 00 00 00 00 00 00 00 ................
0040CAE0 00 00 00 00 00 00 00 00 00 00 00 00 00 00 00 00 ................
0040CAF0 00 00 00 00 00 00 00 00 00 00 00 00 00 00 00 00 ................
0040CB00 00 00 00 00 00 00 00 00 00 00 00 00 00 00 00 00 ................
0040CB10 00 00 00 00 00 00 00 00 00 00 00 00 00 00 00 00 ................
0040CB20 00 00 00 00 00 00 00 00 00 00 00 00 00 00 00 00 ................
0040CB30 00 00 00 00 00 00 00 00 00 00 00 00 00 00 00 00 ................
0040CB40 00 00 00 00 00 00 00 00 00 00 00 00 00 00 00 00 ................
0040CB50 00 00 00 00 00 00 00 00 00 00 00 00 00 00 00 00 ................
0040CB60 00 00 00 00 00 00 00 00 00 00 00 00 00 00 00 00 ................
0040CB70 00 00 00 00 00 00 00 00 00 00 00 00 00 00 00 00 ................
0040CB80 00 00 00 00 00 00 00 00 00 00 00 00 00 00 00 00 ................
0040CB90 00 00 00 00 00 00 00 00 00 00 00 00 00 00 00 00 ................
0040CBA0 00 00 00 00 00 00 00 00 00 00 00 00 00 00 00 00 ................
0040CBB0 00 00 00 00 00 00 00 00 00 00 00 00 00 00 00 00 ................
0040CBC0 00 00 00 00 00 00 00 00 00 00 00 00 00 00 00 00 ................
0040CBD0 00 00 00 00 00 00 00 00 00 00 00 00 00 00 00 00 ................
0040CBE0 00 00 00 00 00 00 00 00 00 00 00 00 00 00 00 00 ................
0040CBF0 00 00 00 00 00 00 00 00 00 00 00 00 00 00 00 00 ................
0040CC00 00 00 00 00 00 00 00 00 00 00 00 00 00 00 00 00 ................
0040CC10 00 00 00 00 00 00 00 00 00 00 00 00 00 00 00 00 ................
0040CC20 00 00 00 00 00 00 00 00 00 00 00 00 00 00 00 00 ................
0040CC30 00 00 00 00 00 00 00 00 00 00 00 00 00 00 00 00 ................
0040CC40 00 00 00 00 00 00 00 00 00 00 00 00 00 00 00 00 ................
0040CC50 00 00 00 00 00 00 00 00 00 00 00 00 00 00 00 00 ................
0040CC60 00 00 00 00 00 00 00 00 00 00 00 00 00 00 00 00 ................
0040CC70 00 00 00 00 00 00 00 00 00 00 00 00 00 00 00 00 ................
0040CC80 00 00 00 00 00 00 00 00 00 00 00 00 00 00 00 00 ................
0040CC90 00 00 00 00 00 00 00 00 00 00 00 00 00 00 00 00 ................
0040CCA0 00 00 00 00 00 00 00 00 00 00 00 00 00 00 00 00 ................
0040CCB0 00 00 00 00 00 00 00 00 00 00 00 00 00 00 00 00 ................
0040CCC0 00 00 00 00 00 00 00 00 00 00 00 00 00 00 00 00 ................
0040CCD0 00 00 00 00 00 00 00 00 00 00 00 00 00 00 00 00 ................
0040CCE0 00 00 00 00 00 00 00 00 00 00 00 00 00 00 00 00 ................
0040CCF0 00 00 00 00 00 00 00 00 00 00 00 00 00 00 00 00 ................
0040CD00 00 00 00 00 00 00 00 00 00 00 00 00 00 00 00 00 ................
0040CD10 00 00 00 00 00 00 00 00 00 00 00 00 00 00 00 00 ................
0040CD20 00 00 00 00 00 00 00 00 00 00 00 00 00 00 00 00 ................
0040CD30 00 00 00 00 00 00 00 00 00 00 00 00 00 00 00 00 ................
0040CD40 00 00 00 00 00 00 00 00 00 00 00 00 00 00 00 00 ................
0040CD50 00 00 00 00 00 00 00 00 00 00 00 00 00 00 00 00 ................
0040CD60 00 00 00 00 00 00 00 00 00 00 00 00 00 00 00 00 ................
0040CD70 00 00 00 00 00 00 00 00 00 00 00 00 00 00 00 00 ................
0040CD80 00 00 00 00 00 00 00 00 00 00 00 00 00 00 00 00 ................
0040CD90 00 00 00 00 00 00 00 00 00 00 00 00 00 00 00 00 ................
0040CDA0 00 00 00 00 00 00 00 00 00 00 00 00 00 00 00 00 ................
0040CDB0 00 00 00 00 00 00 00 00 00 00 00 00 00 00 00 00 ................
0040CDC0 00 00 00 00 00 00 00 00 00 00 00 00 00 00 00 00 ................
0040CDD0 00 00 00 00 00 00 00 00 00 00 00 00 00 00 00 00 ................
0040CDE0 00 00 00 00 00 00 00 00 00 00 00 00 00 00 00 00 ................
0040CDF0 00 00 00 00 00 00 00 00 00 00 00 00 00 00 00 00 ................
0040CE00 00 00 00 00 00 00 00 00 00 00 00 00 00 00 00 00 ................
0040CE10 00 00 00 00 00 00 00 00 00 00 00 00 00 00 00 00 ................
0040CE20 00 00 00 00 00 00 00 00 00 00 00 00 00 00 00 00 ................
0040CE30 00 00 00 00 00 00 00 00 00 00 00 00 00 00 00 00 ................
0040CE40 00 00 00 00 00 00 00 00 00 00 00 00 00 00 00 00 ................
0040CE50 00 00 00 00 00 00 00 00 00 00 00 00 00 00 00 00 ................
0040CE60 00 00 00 00 00 00 00 00 00 00 00 00 00 00 00 00 ................
0040CE70 00 00 00 00 00 00 00 00 00 00 00 00 00 00 00 00 ................
0040CE80 00 00 00 00 00 00 00 00 00 00 00 00 00 00 00 00 ................
0040CE90 00 00 00 00 00 00 00 00 00 00 00 00 00 00 00 00 ................
0040CEA0 00 00 00 00 00 00 00 00 00 00 00 00 00 00 00 00 ................
0040CEB0 00 00 00 00 00 00 00 00 00 00 00 00 00 00 00 00 ................
0040CEC0 00 00 00 00 00 00 00 00 00 00 00 00 00 00 00 00 ................
0040CED0 00 00 00 00 00 00 00 00 00 00 00 00 00 00 00 00 ................
0040CEE0 00 00 00 00 00 00 00 00 00 00 00 00 00 00 00 00 ................
0040CEF0 00 00 00 00 00 00 00 00 00 00 00 00 00 00 00 00 ................
0040CF00 00 00 00 00 00 00 00 00 00 00 00 00 00 00 00 00 ................
0040CF10 00 00 00 00 00 00 00 00 00 00 00 00 00 00 00 00 ................
0040CF20 00 00 00 00 00 00 00 00 00 00 00 00 00 00 00 00 ................
0040CF30 00 00 00 00 00 00 00 00 00 00 00 00 00 00 00 00 ................
0040CF40 00 00 00 00 00 00 00 00 00 00 00 00 00 00 00 00 ................
0040CF50 00 00 00 00 00 00 00 00 00 00 00 00 00 00 00 00 ................
0040CF60 00 00 00 00 00 00 00 00 00 00 00 00 00 00 00 00 ................
0040CF70 00 00 00 00 00 00 00 00 00 00 00 00 00 00 00 00 ................
0040CF80 00 00 00 00 00 00 00 00 00 00 00 00 00 00 00 00 ................
0040CF90 00 00 00 00 00 00 00 00 00 00 00 00 00 00 00 00 ................
0040CFA0 00 00 00 00 00 00 00 00 00 00 00 00 00 00 00 00 ................
0040CFB0 00 00 00 00 00 00 00 00 00 00 00 00 00 00 00 00 ................
0040CFC0 00 00 00 00 00 00 00 00 00 00 00 00 00 00 00 00 ................
0040CFD0 00 00 00 00 00 00 00 00 00 00 00 00 00 00 00 00 ................
0040CFE0 00 00 00 00 00 00 00 00 00 00 00 00 00 00 00 00 ................
0040CFF0 00 00 00 00 00 00 00 00 00 00 00 00 00 00 00 00 ................
0040D000 00 00 00 00 00 00 00 00 00 00 00 00 00 00 01 00 ................
0040D010 18 00 00 00 18 00 00 80 00 00 00 00 00 00 00 00 ................
0040D020 00 00 00 00 00 00 01 00 01 00 00 00 30 00 00 80 ............0...
0040D030 00 00 00 00 00 00 00 00 00 00 00 00 00 00 01 00 ................
0040D040 09 04 00 00 48 00 00 00 70 D1 00 00 7D 01 00 00 ....H...p...}...
0040D050 00 00 00 00 00 00 00 00 00 00 00 00 00 00 00 00 ................
0040D060 00 00 00 00 00 00 00 00 00 00 00 00 00 00 00 00 ................
0040D070 00 00 00 00 00 00 00 00 00 00 00 00 00 00 00 00 ................
0040D080 00 00 00 00 00 00 00 00 00 00 00 00 00 00 00 00 ................
0040D090 00 00 00 00 00 00 00 00 00 00 00 00 00 00 00 00 ................
0040D0A0 00 00 00 00 00 00 00 00 00 00 00 00 00 00 00 00 ................
0040D0B0 00 00 00 00 00 00 00 00 00 00 00 00 00 00 00 00 ................
0040D0C0 00 00 00 00 00 00 00 00 00 00 00 00 00 00 00 00 ................
0040D0D0 00 00 00 00 00 00 00 00 00 00 00 00 00 00 00 00 ................
0040D0E0 00 00 00 00 00 00 00 00 00 00 00 00 00 00 00 00 ................
0040D0F0 00 00 00 00 00 00 00 00 00 00 00 00 00 00 00 00 ................
0040D100 00 00 00 00 00 00 00 00 00 00 00 00 00 00 00 00 ................
0040D110 00 00 00 00 00 00 00 00 00 00 00 00 00 00 00 00 ................
0040D120 00 00 00 00 00 00 00 00 00 00 00 00 00 00 00 00 ................
0040D130 00 00 00 00 00 00 00 00 00 00 00 00 00 00 00 00 ................
0040D140 00 00 00 00 00 00 00 00 00 00 00 00 00 00 00 00 ................
0040D150 00 00 00 00 00 00 00 00 00 00 00 00 00 00 00 00 ................
0040D160 00 00 00 00 00 00 00 00 00 00 00 00 00 00 00 00 ................
0040D170 3C 3F 78 6D 6C 20 76 65 72 73 69 6F 6E 3D 27 31 <?xml version='1
0040D180 2E 30 27 20 65 6E 63 6F 64 69 6E 67 3D 27 55 54 .0' encoding='UT
0040D190 46 2D 38 27 20 73 74 61 6E 64 61 6C 6F 6E 65 3D F-8' standalone=
0040D1A0 27 79 65 73 27 3F 3E 0D 0A 3C 61 73 73 65 6D 62 'yes'?>..<assemb
0040D1B0 6C 79 20 78 6D 6C 6E 73 3D 27 75 72 6E 3A 73 63 ly xmlns='urn:sc
0040D1C0 68 65 6D 61 73 2D 6D 69 63 72 6F 73 6F 66 74 2D hemas-microsoft-
0040D1D0 63 6F 6D 3A 61 73 6D 2E 76 31 27 20 6D 61 6E 69 com:asm.v1' mani
0040D1E0 66 65 73 74 56 65 72 73 69 6F 6E 3D 27 31 2E 30 festVersion='1.0
0040D1F0 27 3E 0D 0A 20 20 3C 74 72 75 73 74 49 6E 66 6F '>..  <trustInfo
0040D200 20 78 6D 6C 6E 73 3D 22 75 72 6E 3A 73 63 68 65  xmlns="urn:sche
0040D210 6D 61 73 2D 6D 69 63 72 6F 73 6F 66 74 2D 63 6F mas-microsoft-co
0040D220 6D 3A 61 73 6D 2E 76 33 22 3E 0D 0A 20 20 20 20 m:asm.v3">..    
0040D230 3C 73 65 63 75 72 69 74 79 3E 0D 0A 20 20 20 20 <security>..    
0040D240 20 20 3C 72 65 71 75 65 73 74 65 64 50 72 69 76   <requestedPriv
0040D250 69 6C 65 67 65 73 3E 0D 0A 20 20 20 20 20 20 20 ileges>..       
0040D260 20 3C 72 65 71 75 65 73 74 65 64 45 78 65 63 75  <requestedExecu
0040D270 74 69 6F 6E 4C 65 76 65 6C 20 6C 65 76 65 6C 3D tionLevel level=
0040D280 27 61 73 49 6E 76 6F 6B 65 72 27 20 75 69 41 63 'asInvoker' uiAc
0040D290 63 65 73 73 3D 27 66 61 6C 73 65 27 20 2F 3E 0D cess='false' />.
0040D2A0 0A 20 20 20 20 20 20 3C 2F 72 65 71 75 65 73 74 .      </request
0040D2B0 65 64 50 72 69 76 69 6C 65 67 65 73 3E 0D 0A 20 edPrivileges>.. 
0040D2C0 20 20 20 3C 2F 73 65 63 75 72 69 74 79 3E 0D 0A    </security>..
0040D2D0 20 20 3C 2F 74 72 75 73 74 49 6E 66 6F 3E 0D 0A   </trustInfo>..
0040D2E0 3C 2F 61 73 73 65 6D 62 6C 79 3E 0D 0A 00 00 00 </assembly>.....
0040D2F0 00 00 00 00 00 00 00 00 00 00 00 00 00 00 00 00 ................
0040D300 00 00 00 00 00 00 00 00 00 00 00 00 00 00 00 00 ................
0040D310 00 00 00 00 00 00 00 00 00 00 00 00 00 00 00 00 ................
0040D320 00 00 00 00 00 00 00 00 00 00 00 00 00 00 00 00 ................
0040D330 00 00 00 00 00 00 00 00 00 00 00 00 00 00 00 00 ................
0040D340 00 00 00 00 00 00 00 00 00 00 00 00 00 00 00 00 ................
0040D350 00 00 00 00 00 00 00 00 00 00 00 00 00 00 00 00 ................
0040D360 00 00 00 00 00 00 00 00 00 00 00 00 00 00 00 00 ................
0040D370 00 00 00 00 00 00 00 00 00 00 00 00 00 00 00 00 ................
0040D380 00 00 00 00 00 00 00 00 00 00 00 00 00 00 00 00 ................
0040D390 00 00 00 00 00 00 00 00 00 00 00 00 00 00 00 00 ................
0040D3A0 00 00 00 00 00 00 00 00 00 00 00 00 00 00 00 00 ................
0040D3B0 00 00 00 00 00 00 00 00 00 00 00 00 00 00 00 00 ................
0040D3C0 00 00 00 00 00 00 00 00 00 00 00 00 00 00 00 00 ................
0040D3D0 00 00 00 00 00 00 00 00 00 00 00 00 00 00 00 00 ................
0040D3E0 00 00 00 00 00 00 00 00 00 00 00 00 00 00 00 00 ................
0040D3F0 00 00 00 00 00 00 00 00 00 00 00 00 00 00 00 00 ................
0040D400 00 00 00 00 00 00 00 00 00 00 00 00 00 00 00 00 ................
0040D410 00 00 00 00 00 00 00 00 00 00 00 00 00 00 00 00 ................
0040D420 00 00 00 00 00 00 00 00 00 00 00 00 00 00 00 00 ................
0040D430 00 00 00 00 00 00 00 00 00 00 00 00 00 00 00 00 ................
0040D440 00 00 00 00 00 00 00 00 00 00 00 00 00 00 00 00 ................
0040D450 00 00 00 00 00 00 00 00 00 00 00 00 00 00 00 00 ................
0040D460 00 00 00 00 00 00 00 00 00 00 00 00 00 00 00 00 ................
0040D470 00 00 00 00 00 00 00 00 00 00 00 00 00 00 00 00 ................
0040D480 00 00 00 00 00 00 00 00 00 00 00 00 00 00 00 00 ................
0040D490 00 00 00 00 00 00 00 00 00 00 00 00 00 00 00 00 ................
0040D4A0 00 00 00 00 00 00 00 00 00 00 00 00 00 00 00 00 ................
0040D4B0 00 00 00 00 00 00 00 00 00 00 00 00 00 00 00 00 ................
0040D4C0 00 00 00 00 00 00 00 00 00 00 00 00 00 00 00 00 ................
0040D4D0 00 00 00 00 00 00 00 00 00 00 00 00 00 00 00 00 ................
0040D4E0 00 00 00 00 00 00 00 00 00 00 00 00 00 00 00 00 ................
0040D4F0 00 00 00 00 00 00 00 00 00 00 00 00 00 00 00 00 ................
0040D500 00 00 00 00 00 00 00 00 00 00 00 00 00 00 00 00 ................
0040D510 00 00 00 00 00 00 00 00 00 00 00 00 00 00 00 00 ................
0040D520 00 00 00 00 00 00 00 00 00 00 00 00 00 00 00 00 ................
0040D530 00 00 00 00 00 00 00 00 00 00 00 00 00 00 00 00 ................
0040D540 00 00 00 00 00 00 00 00 00 00 00 00 00 00 00 00 ................
0040D550 00 00 00 00 00 00 00 00 00 00 00 00 00 00 00 00 ................
0040D560 00 00 00 00 00 00 00 00 00 00 00 00 00 00 00 00 ................
0040D570 00 00 00 00 00 00 00 00 00 00 00 00 00 00 00 00 ................
0040D580 00 00 00 00 00 00 00 00 00 00 00 00 00 00 00 00 ................
0040D590 00 00 00 00 00 00 00 00 00 00 00 00 00 00 00 00 ................
0040D5A0 00 00 00 00 00 00 00 00 00 00 00 00 00 00 00 00 ................
0040D5B0 00 00 00 00 00 00 00 00 00 00 00 00 00 00 00 00 ................
0040D5C0 00 00 00 00 00 00 00 00 00 00 00 00 00 00 00 00 ................
0040D5D0 00 00 00 00 00 00 00 00 00 00 00 00 00 00 00 00 ................
0040D5E0 00 00 00 00 00 00 00 00 00 00 00 00 00 00 00 00 ................
0040D5F0 00 00 00 00 00 00 00 00 00 00 00 00 00 00 00 00 ................
0040D600 00 00 00 00 00 00 00 00 00 00 00 00 00 00 00 00 ................
0040D610 00 00 00 00 00 00 00 00 00 00 00 00 00 00 00 00 ................
0040D620 00 00 00 00 00 00 00 00 00 00 00 00 00 00 00 00 ................
0040D630 00 00 00 00 00 00 00 00 00 00 00 00 00 00 00 00 ................
0040D640 00 00 00 00 00 00 00 00 00 00 00 00 00 00 00 00 ................
0040D650 00 00 00 00 00 00 00 00 00 00 00 00 00 00 00 00 ................
0040D660 00 00 00 00 00 00 00 00 00 00 00 00 00 00 00 00 ................
0040D670 00 00 00 00 00 00 00 00 00 00 00 00 00 00 00 00 ................
0040D680 00 00 00 00 00 00 00 00 00 00 00 00 00 00 00 00 ................
0040D690 00 00 00 00 00 00 00 00 00 00 00 00 00 00 00 00 ................
0040D6A0 00 00 00 00 00 00 00 00 00 00 00 00 00 00 00 00 ................
0040D6B0 00 00 00 00 00 00 00 00 00 00 00 00 00 00 00 00 ................
0040D6C0 00 00 00 00 00 00 00 00 00 00 00 00 00 00 00 00 ................
0040D6D0 00 00 00 00 00 00 00 00 00 00 00 00 00 00 00 00 ................
0040D6E0 00 00 00 00 00 00 00 00 00 00 00 00 00 00 00 00 ................
0040D6F0 00 00 00 00 00 00 00 00 00 00 00 00 00 00 00 00 ................
0040D700 00 00 00 00 00 00 00 00 00 00 00 00 00 00 00 00 ................
0040D710 00 00 00 00 00 00 00 00 00 00 00 00 00 00 00 00 ................
0040D720 00 00 00 00 00 00 00 00 00 00 00 00 00 00 00 00 ................
0040D730 00 00 00 00 00 00 00 00 00 00 00 00 00 00 00 00 ................
0040D740 00 00 00 00 00 00 00 00 00 00 00 00 00 00 00 00 ................
0040D750 00 00 00 00 00 00 00 00 00 00 00 00 00 00 00 00 ................
0040D760 00 00 00 00 00 00 00 00 00 00 00 00 00 00 00 00 ................
0040D770 00 00 00 00 00 00 00 00 00 00 00 00 00 00 00 00 ................
0040D780 00 00 00 00 00 00 00 00 00 00 00 00 00 00 00 00 ................
0040D790 00 00 00 00 00 00 00 00 00 00 00 00 00 00 00 00 ................
0040D7A0 00 00 00 00 00 00 00 00 00 00 00 00 00 00 00 00 ................
0040D7B0 00 00 00 00 00 00 00 00 00 00 00 00 00 00 00 00 ................
0040D7C0 00 00 00 00 00 00 00 00 00 00 00 00 00 00 00 00 ................
0040D7D0 00 00 00 00 00 00 00 00 00 00 00 00 00 00 00 00 ................
0040D7E0 00 00 00 00 00 00 00 00 00 00 00 00 00 00 00 00 ................
0040D7F0 00 00 00 00 00 00 00 00 00 00 00 00 00 00 00 00 ................
0040D800 00 00 00 00 00 00 00 00 00 00 00 00 00 00 00 00 ................
0040D810 00 00 00 00 00 00 00 00 00 00 00 00 00 00 00 00 ................
0040D820 00 00 00 00 00 00 00 00 00 00 00 00 00 00 00 00 ................
0040D830 00 00 00 00 00 00 00 00 00 00 00 00 00 00 00 00 ................
0040D840 00 00 00 00 00 00 00 00 00 00 00 00 00 00 00 00 ................
0040D850 00 00 00 00 00 00 00 00 00 00 00 00 00 00 00 00 ................
0040D860 00 00 00 00 00 00 00 00 00 00 00 00 00 00 00 00 ................
0040D870 00 00 00 00 00 00 00 00 00 00 00 00 00 00 00 00 ................
0040D880 00 00 00 00 00 00 00 00 00 00 00 00 00 00 00 00 ................
0040D890 00 00 00 00 00 00 00 00 00 00 00 00 00 00 00 00 ................
0040D8A0 00 00 00 00 00 00 00 00 00 00 00 00 00 00 00 00 ................
0040D8B0 00 00 00 00 00 00 00 00 00 00 00 00 00 00 00 00 ................
0040D8C0 00 00 00 00 00 00 00 00 00 00 00 00 00 00 00 00 ................
0040D8D0 00 00 00 00 00 00 00 00 00 00 00 00 00 00 00 00 ................
0040D8E0 00 00 00 00 00 00 00 00 00 00 00 00 00 00 00 00 ................
0040D8F0 00 00 00 00 00 00 00 00 00 00 00 00 00 00 00 00 ................
0040D900 00 00 00 00 00 00 00 00 00 00 00 00 00 00 00 00 ................
0040D910 00 00 00 00 00 00 00 00 00 00 00 00 00 00 00 00 ................
0040D920 00 00 00 00 00 00 00 00 00 00 00 00 00 00 00 00 ................
0040D930 00 00 00 00 00 00 00 00 00 00 00 00 00 00 00 00 ................
0040D940 00 00 00 00 00 00 00 00 00 00 00 00 00 00 00 00 ................
0040D950 00 00 00 00 00 00 00 00 00 00 00 00 00 00 00 00 ................
0040D960 00 00 00 00 00 00 00 00 00 00 00 00 00 00 00 00 ................
0040D970 00 00 00 00 00 00 00 00 00 00 00 00 00 00 00 00 ................
0040D980 00 00 00 00 00 00 00 00 00 00 00 00 00 00 00 00 ................
0040D990 00 00 00 00 00 00 00 00 00 00 00 00 00 00 00 00 ................
0040D9A0 00 00 00 00 00 00 00 00 00 00 00 00 00 00 00 00 ................
0040D9B0 00 00 00 00 00 00 00 00 00 00 00 00 00 00 00 00 ................
0040D9C0 00 00 00 00 00 00 00 00 00 00 00 00 00 00 00 00 ................
0040D9D0 00 00 00 00 00 00 00 00 00 00 00 00 00 00 00 00 ................
0040D9E0 00 00 00 00 00 00 00 00 00 00 00 00 00 00 00 00 ................
0040D9F0 00 00 00 00 00 00 00 00 00 00 00 00 00 00 00 00 ................
0040DA00 00 00 00 00 00 00 00 00 00 00 00 00 00 00 00 00 ................
0040DA10 00 00 00 00 00 00 00 00 00 00 00 00 00 00 00 00 ................
0040DA20 00 00 00 00 00 00 00 00 00 00 00 00 00 00 00 00 ................
0040DA30 00 00 00 00 00 00 00 00 00 00 00 00 00 00 00 00 ................
0040DA40 00 00 00 00 00 00 00 00 00 00 00 00 00 00 00 00 ................
0040DA50 00 00 00 00 00 00 00 00 00 00 00 00 00 00 00 00 ................
0040DA60 00 00 00 00 00 00 00 00 00 00 00 00 00 00 00 00 ................
0040DA70 00 00 00 00 00 00 00 00 00 00 00 00 00 00 00 00 ................
0040DA80 00 00 00 00 00 00 00 00 00 00 00 00 00 00 00 00 ................
0040DA90 00 00 00 00 00 00 00 00 00 00 00 00 00 00 00 00 ................
0040DAA0 00 00 00 00 00 00 00 00 00 00 00 00 00 00 00 00 ................
0040DAB0 00 00 00 00 00 00 00 00 00 00 00 00 00 00 00 00 ................
0040DAC0 00 00 00 00 00 00 00 00 00 00 00 00 00 00 00 00 ................
0040DAD0 00 00 00 00 00 00 00 00 00 00 00 00 00 00 00 00 ................
0040DAE0 00 00 00 00 00 00 00 00 00 00 00 00 00 00 00 00 ................
0040DAF0 00 00 00 00 00 00 00 00 00 00 00 00 00 00 00 00 ................
0040DB00 00 00 00 00 00 00 00 00 00 00 00 00 00 00 00 00 ................
0040DB10 00 00 00 00 00 00 00 00 00 00 00 00 00 00 00 00 ................
0040DB20 00 00 00 00 00 00 00 00 00 00 00 00 00 00 00 00 ................
0040DB30 00 00 00 00 00 00 00 00 00 00 00 00 00 00 00 00 ................
0040DB40 00 00 00 00 00 00 00 00 00 00 00 00 00 00 00 00 ................
0040DB50 00 00 00 00 00 00 00 00 00 00 00 00 00 00 00 00 ................
0040DB60 00 00 00 00 00 00 00 00 00 00 00 00 00 00 00 00 ................
0040DB70 00 00 00 00 00 00 00 00 00 00 00 00 00 00 00 00 ................
0040DB80 00 00 00 00 00 00 00 00 00 00 00 00 00 00 00 00 ................
0040DB90 00 00 00 00 00 00 00 00 00 00 00 00 00 00 00 00 ................
0040DBA0 00 00 00 00 00 00 00 00 00 00 00 00 00 00 00 00 ................
0040DBB0 00 00 00 00 00 00 00 00 00 00 00 00 00 00 00 00 ................
0040DBC0 00 00 00 00 00 00 00 00 00 00 00 00 00 00 00 00 ................
0040DBD0 00 00 00 00 00 00 00 00 00 00 00 00 00 00 00 00 ................
0040DBE0 00 00 00 00 00 00 00 00 00 00 00 00 00 00 00 00 ................
0040DBF0 00 00 00 00 00 00 00 00 00 00 00 00 00 00 00 00 ................
0040DC00 00 00 00 00 00 00 00 00 00 00 00 00 00 00 00 00 ................
0040DC10 00 00 00 00 00 00 00 00 00 00 00 00 00 00 00 00 ................
0040DC20 00 00 00 00 00 00 00 00 00 00 00 00 00 00 00 00 ................
0040DC30 00 00 00 00 00 00 00 00 00 00 00 00 00 00 00 00 ................
0040DC40 00 00 00 00 00 00 00 00 00 00 00 00 00 00 00 00 ................
0040DC50 00 00 00 00 00 00 00 00 00 00 00 00 00 00 00 00 ................
0040DC60 00 00 00 00 00 00 00 00 00 00 00 00 00 00 00 00 ................
0040DC70 00 00 00 00 00 00 00 00 00 00 00 00 00 00 00 00 ................
0040DC80 00 00 00 00 00 00 00 00 00 00 00 00 00 00 00 00 ................
0040DC90 00 00 00 00 00 00 00 00 00 00 00 00 00 00 00 00 ................
0040DCA0 00 00 00 00 00 00 00 00 00 00 00 00 00 00 00 00 ................
0040DCB0 00 00 00 00 00 00 00 00 00 00 00 00 00 00 00 00 ................
0040DCC0 00 00 00 00 00 00 00 00 00 00 00 00 00 00 00 00 ................
0040DCD0 00 00 00 00 00 00 00 00 00 00 00 00 00 00 00 00 ................
0040DCE0 00 00 00 00 00 00 00 00 00 00 00 00 00 00 00 00 ................
0040DCF0 00 00 00 00 00 00 00 00 00 00 00 00 00 00 00 00 ................
0040DD00 00 00 00 00 00 00 00 00 00 00 00 00 00 00 00 00 ................
0040DD10 00 00 00 00 00 00 00 00 00 00 00 00 00 00 00 00 ................
0040DD20 00 00 00 00 00 00 00 00 00 00 00 00 00 00 00 00 ................
0040DD30 00 00 00 00 00 00 00 00 00 00 00 00 00 00 00 00 ................
0040DD40 00 00 00 00 00 00 00 00 00 00 00 00 00 00 00 00 ................
0040DD50 00 00 00 00 00 00 00 00 00 00 00 00 00 00 00 00 ................
0040DD60 00 00 00 00 00 00 00 00 00 00 00 00 00 00 00 00 ................
0040DD70 00 00 00 00 00 00 00 00 00 00 00 00 00 00 00 00 ................
0040DD80 00 00 00 00 00 00 00 00 00 00 00 00 00 00 00 00 ................
0040DD90 00 00 00 00 00 00 00 00 00 00 00 00 00 00 00 00 ................
0040DDA0 00 00 00 00 00 00 00 00 00 00 00 00 00 00 00 00 ................
0040DDB0 00 00 00 00 00 00 00 00 00 00 00 00 00 00 00 00 ................
0040DDC0 00 00 00 00 00 00 00 00 00 00 00 00 00 00 00 00 ................
0040DDD0 00 00 00 00 00 00 00 00 00 00 00 00 00 00 00 00 ................
0040DDE0 00 00 00 00 00 00 00 00 00 00 00 00 00 00 00 00 ................
0040DDF0 00 00 00 00 00 00 00 00 00 00 00 00 00 00 00 00 ................
0040DE00 00 00 00 00 00 00 00 00 00 00 00 00 00 00 00 00 ................
0040DE10 00 00 00 00 00 00 00 00 00 00 00 00 00 00 00 00 ................
0040DE20 00 00 00 00 00 00 00 00 00 00 00 00 00 00 00 00 ................
0040DE30 00 00 00 00 00 00 00 00 00 00 00 00 00 00 00 00 ................
0040DE40 00 00 00 00 00 00 00 00 00 00 00 00 00 00 00 00 ................
0040DE50 00 00 00 00 00 00 00 00 00 00 00 00 00 00 00 00 ................
0040DE60 00 00 00 00 00 00 00 00 00 00 00 00 00 00 00 00 ................
0040DE70 00 00 00 00 00 00 00 00 00 00 00 00 00 00 00 00 ................
0040DE80 00 00 00 00 00 00 00 00 00 00 00 00 00 00 00 00 ................
0040DE90 00 00 00 00 00 00 00 00 00 00 00 00 00 00 00 00 ................
0040DEA0 00 00 00 00 00 00 00 00 00 00 00 00 00 00 00 00 ................
0040DEB0 00 00 00 00 00 00 00 00 00 00 00 00 00 00 00 00 ................
0040DEC0 00 00 00 00 00 00 00 00 00 00 00 00 00 00 00 00 ................
0040DED0 00 00 00 00 00 00 00 00 00 00 00 00 00 00 00 00 ................
0040DEE0 00 00 00 00 00 00 00 00 00 00 00 00 00 00 00 00 ................
0040DEF0 00 00 00 00 00 00 00 00 00 00 00 00 00 00 00 00 ................
0040DF00 00 00 00 00 00 00 00 00 00 00 00 00 00 00 00 00 ................
0040DF10 00 00 00 00 00 00 00 00 00 00 00 00 00 00 00 00 ................
0040DF20 00 00 00 00 00 00 00 00 00 00 00 00 00 00 00 00 ................
0040DF30 00 00 00 00 00 00 00 00 00 00 00 00 00 00 00 00 ................
0040DF40 00 00 00 00 00 00 00 00 00 00 00 00 00 00 00 00 ................
0040DF50 00 00 00 00 00 00 00 00 00 00 00 00 00 00 00 00 ................
0040DF60 00 00 00 00 00 00 00 00 00 00 00 00 00 00 00 00 ................
0040DF70 00 00 00 00 00 00 00 00 00 00 00 00 00 00 00 00 ................
0040DF80 00 00 00 00 00 00 00 00 00 00 00 00 00 00 00 00 ................
0040DF90 00 00 00 00 00 00 00 00 00 00 00 00 00 00 00 00 ................
0040DFA0 00 00 00 00 00 00 00 00 00 00 00 00 00 00 00 00 ................
0040DFB0 00 00 00 00 00 00 00 00 00 00 00 00 00 00 00 00 ................
0040DFC0 00 00 00 00 00 00 00 00 00 00 00 00 00 00 00 00 ................
0040DFD0 00 00 00 00 00 00 00 00 00 00 00 00 00 00 00 00 ................
0040DFE0 00 00 00 00 00 00 00 00 00 00 00 00 00 00 00 00 ................
0040DFF0 00 00 00 00 00 00 00 00 00 00 00 00 00 00 00 00 ................
0040E000 00 10 00 00 14 00 00 00 0C 70 26 70 3C 70 98 30 .........p&p<p.0
0040E010 C0 30 C4 30 00 20 00 00 E4 00 00 00 4C 31 50 31 .0.0. ......L1P1
0040E020 64 71 78 71 88 32 8C 32 90 32 94 32 98 32 9C 32 dqxq.2.2.2.2.2.2
0040E030 A0 32 A4 32 A8 32 AC 32 B0 32 B4 32 B8 32 BC 32 .2.2.2.2.2.2.2.2
0040E040 50 33 54 33 58 33 5C 33 60 33 64 33 68 33 6C 33 P3T3X3\3`3d3h3l3
0040E050 70 33 90 35 94 35 98 35 9C 35 A0 35 A4 35 A8 35 p3.5.5.5.5.5.5.5
0040E060 AC 35 B0 35 B4 35 B8 35 BC 35 C0 35 C4 35 C8 35 .5.5.5.5.5.5.5.5
0040E070 CC 35 D0 35 D4 35 D8 35 DC 35 E0 35 E4 35 FC 36 .5.5.5.5.5.5.5.6
0040E080 56 77 6A 77 82 77 B2 77 CE 77 F0 77 0C 78 D4 38 Vwjw.w.w.w.w.x.8
0040E090 F0 78 FC 78 1C 79 28 79 34 79 40 79 58 3A F4 7A .x.x.y(y4y@yX:.z
0040E0A0 00 7B 0C 7B C4 3B C8 3B D4 3B D8 3B DC 3B E0 3B .{.{.;.;.;.;.;.;
0040E0B0 E4 3B AC 3C B0 3C B4 3C B8 3C BC 3C C0 3C C4 3C .;.<.<.<.<.<.<.<
0040E0C0 C8 3C CC 3C 80 3D 84 3D 88 3D 8C 3D 90 3D 30 7E .<.<.=.=.=.=.=0~
0040E0D0 38 7E 60 7E 68 7E 88 7E 94 7E A0 7E AC 7E B8 7E 8~`~h~.~.~.~.~.~
0040E0E0 EA 7E 34 7F 5E 7F 74 7F 7E 7F 88 7F 92 7F AC 7F .~4.^.t.~.......
0040E0F0 B6 7F C0 7F E8 7F F0 7F 00 30 00 00 C0 00 00 00 .........0......
0040E100 02 70 C8 70 D4 70 F2 70 34 71 5E 71 A4 71 68 72 .p.p.p.p4q^q.qhr
0040E110 FC 72 1E 73 46 73 58 73 80 73 A6 73 C2 73 D2 73 .r.sFsXs.s.s.s.s
0040E120 FA 73 0A 74 2E 74 14 75 36 75 7C 75 18 76 24 76 .s.t.t.u6u|u.v$v
0040E130 30 76 3C 76 48 76 54 76 6E 76 94 76 9C 76 AA 76 0v<vHvTvnv.v.v.v
0040E140 CC 76 E4 76 EC 76 7C 77 84 77 9A 77 AA 77 B2 77 .v.v.v|w.w.w.w.w
0040E150 C6 77 CE 77 E0 77 E8 77 FA 77 02 78 14 78 2E 78 .w.w.w.w.w.x.x.x
0040E160 54 78 6E 78 CA 78 E2 78 76 79 8A 79 4C 7A 82 7A Txnx.x.xvy.yLz.z
0040E170 E2 7A EA 7A 10 7B 18 7B 5E 7B 22 7C 34 7C B2 7C .z.z.{.{^{"|4|.|
0040E180 BE 7C 20 7D CC 7D D8 7D E4 7D F0 7D 48 7E 54 7E .| }.}.}.}.}H~T~
0040E190 60 7E 6C 7E 78 7E 84 7E 90 7E 9C 7E A8 7E B4 7E `~l~x~.~.~.~.~.~
0040E1A0 C0 7E CC 7E D8 7E E4 7E F0 7E FC 7E 08 7F 14 7F .~.~.~.~.~.~....
0040E1B0 20 7F 2C 7F 38 7F 00 00 00 70 00 00 28 00 00 00  .,.8....p..(...
0040E1C0 04 31 10 34 14 35 18 36 18 39 1C 39 20 39 24 39 .1.4.5.6.9.9 9$9
0040E1D0 28 39 44 3B 48 3B 4C 3B 50 3B 54 3B 58 3B 00 00 (9D;H;L;P;T;X;..
0040E1E0 00 80 00 00 14 00 00 00 84 32 88 32 CC 32 A0 38 .........2.2.2.8
0040E1F0 AC 3B 00 00 00 00 00 00 00 00 00 00 00 00 00 00 .;..............
0040E200 00 00 00 00 00 00 00 00 00 00 00 00 00 00 00 00 ................
0040E210 00 00 00 00 00 00 00 00 00 00 00 00 00 00 00 00 ................
0040E220 00 00 00 00 00 00 00 00 00 00 00 00 00 00 00 00 ................
0040E230 00 00 00 00 00 00 00 00 00 00 00 00 00 00 00 00 ................
0040E240 00 00 00 00 00 00 00 00 00 00 00 00 00 00 00 00 ................
0040E250 00 00 00 00 00 00 00 00 00 00 00 00 00 00 00 00 ................
0040E260 00 00 00 00 00 00 00 00 00 00 00 00 00 00 00 00 ................
0040E270 00 00 00 00 00 00 00 00 00 00 00 00 00 00 00 00 ................
0040E280 00 00 00 00 00 00 00 00 00 00 00 00 00 00 00 00 ................
0040E290 00 00 00 00 00 00 00 00 00 00 00 00 00 00 00 00 ................
0040E2A0 00 00 00 00 00 00 00 00 00 00 00 00 00 00 00 00 ................
0040E2B0 00 00 00 00 00 00 00 00 00 00 00 00 00 00 00 00 ................
0040E2C0 00 00 00 00 00 00 00 00 00 00 00 00 00 00 00 00 ................
0040E2D0 00 00 00 00 00 00 00 00 00 00 00 00 00 00 00 00 ................
0040E2E0 00 00 00 00 00 00 00 00 00 00 00 00 00 00 00 00 ................
0040E2F0 00 00 00 00 00 00 00 00 00 00 00 00 00 00 00 00 ................
0040E300 00 00 00 00 00 00 00 00 00 00 00 00 00 00 00 00 ................
0040E310 00 00 00 00 00 00 00 00 00 00 00 00 00 00 00 00 ................
0040E320 00 00 00 00 00 00 00 00 00 00 00 00 00 00 00 00 ................
0040E330 00 00 00 00 00 00 00 00 00 00 00 00 00 00 00 00 ................
0040E340 00 00 00 00 00 00 00 00 00 00 00 00 00 00 00 00 ................
0040E350 00 00 00 00 00 00 00 00 00 00 00 00 00 00 00 00 ................
0040E360 00 00 00 00 00 00 00 00 00 00 00 00 00 00 00 00 ................
0040E370 00 00 00 00 00 00 00 00 00 00 00 00 00 00 00 00 ................
0040E380 00 00 00 00 00 00 00 00 00 00 00 00 00 00 00 00 ................
0040E390 00 00 00 00 00 00 00 00 00 00 00 00 00 00 00 00 ................
0040E3A0 00 00 00 00 00 00 00 00 00 00 00 00 00 00 00 00 ................
0040E3B0 00 00 00 00 00 00 00 00 00 00 00 00 00 00 00 00 ................
0040E3C0 00 00 00 00 00 00 00 00 00 00 00 00 00 00 00 00 ................
0040E3D0 00 00 00 00 00 00 00 00 00 00 00 00 00 00 00 00 ................
0040E3E0 00 00 00 00 00 00 00 00 00 00 00 00 00 00 00 00 ................
0040E3F0 00 00 00 00 00 00 00 00 00 00 00 00 00 00 00 00 ................
0040E400 00 00 00 00 00 00 00 00 00 00 00 00 00 00 00 00 ................
0040E410 00 00 00 00 00 00 00 00 00 00 00 00 00 00 00 00 ................
0040E420 00 00 00 00 00 00 00 00 00 00 00 00 00 00 00 00 ................
0040E430 00 00 00 00 00 00 00 00 00 00 00 00 00 00 00 00 ................
0040E440 00 00 00 00 00 00 00 00 00 00 00 00 00 00 00 00 ................
0040E450 00 00 00 00 00 00 00 00 00 00 00 00 00 00 00 00 ................
0040E460 00 00 00 00 00 00 00 00 00 00 00 00 00 00 00 00 ................
0040E470 00 00 00 00 00 00 00 00 00 00 00 00 00 00 00 00 ................
0040E480 00 00 00 00 00 00 00 00 00 00 00 00 00 00 00 00 ................
0040E490 00 00 00 00 00 00 00 00 00 00 00 00 00 00 00 00 ................
0040E4A0 00 00 00 00 00 00 00 00 00 00 00 00 00 00 00 00 ................
0040E4B0 00 00 00 00 00 00 00 00 00 00 00 00 00 00 00 00 ................
0040E4C0 00 00 00 00 00 00 00 00 00 00 00 00 00 00 00 00 ................
0040E4D0 00 00 00 00 00 00 00 00 00 00 00 00 00 00 00 00 ................
0040E4E0 00 00 00 00 00 00 00 00 00 00 00 00 00 00 00 00 ................
0040E4F0 00 00 00 00 00 00 00 00 00 00 00 00 00 00 00 00 ................
0040E500 00 00 00 00 00 00 00 00 00 00 00 00 00 00 00 00 ................
0040E510 00 00 00 00 00 00 00 00 00 00 00 00 00 00 00 00 ................
0040E520 00 00 00 00 00 00 00 00 00 00 00 00 00 00 00 00 ................
0040E530 00 00 00 00 00 00 00 00 00 00 00 00 00 00 00 00 ................
0040E540 00 00 00 00 00 00 00 00 00 00 00 00 00 00 00 00 ................
0040E550 00 00 00 00 00 00 00 00 00 00 00 00 00 00 00 00 ................
0040E560 00 00 00 00 00 00 00 00 00 00 00 00 00 00 00 00 ................
0040E570 00 00 00 00 00 00 00 00 00 00 00 00 00 00 00 00 ................
0040E580 00 00 00 00 00 00 00 00 00 00 00 00 00 00 00 00 ................
0040E590 00 00 00 00 00 00 00 00 00 00 00 00 00 00 00 00 ................
0040E5A0 00 00 00 00 00 00 00 00 00 00 00 00 00 00 00 00 ................
0040E5B0 00 00 00 00 00 00 00 00 00 00 00 00 00 00 00 00 ................
0040E5C0 00 00 00 00 00 00 00 00 00 00 00 00 00 00 00 00 ................
0040E5D0 00 00 00 00 00 00 00 00 00 00 00 00 00 00 00 00 ................
0040E5E0 00 00 00 00 00 00 00 00 00 00 00 00 00 00 00 00 ................
0040E5F0 00 00 00 00 00 00 00 00 00 00 00 00 00 00 00 00 ................
