;;; Segment code (00000000)
00000000 1E 01 70 00 40 00 08 00 72 00 40 00 08 00 20 57 ..p.@...r.@... W
00000010 07 10 70 00 00 00 00 00 00 56 02 10 D0 00 1E 03 ..p......V......
00000020 1E 01 07 01 74 00 40 00 08 00 72 00 40 00 08 00 ....t.@...r.@...
00000030 14 00 24 C0 46 55 E6 4F 74 5B 14 49 44 5F 64 61 ..$.FU.Ot[.ID_da
00000040 F4 4F 04 56 07 10 70 00 00 00 00 00 00 56 02 10 .O.V..p......V..
00000050 D0 00 07 02 1E 03 00 00 1E 01 38 01 12 00 04 70 ..........8....p
00000060 08 00 00 50 1B 12 81 05 84 1C 01 05 80 1C 14 00 ...P............
00000070 08 C0 E8 4F 98 60 0A 55 12 00 04 B0 0C 00 80 57 ...O.`.U.......W
00000080 5E 10 10 60 13 00 04 B0 0C 00 20 4C A0 61 00 A0 ^..`...... L.a..
00000090 D0 00 12 00 04 B0 0C 00 80 57 44 1F FF C0 65 FF .........WD...e.
000000A0 70 00 00 00 00 00 00 56 06 10 72 00 40 00 04 00 p......V..r.@...
000000B0 FF C0 39 FF 12 00 14 30 08 00 38 02 1E 03 00 00 ..9....0..8.....
000000C0 1E 01 1E 03 1E 01 70 00 00 00 00 00 00 56 09 10 ......p......V..
000000D0 74 00 40 00 10 00 72 00 40 00 04 00 FF C0 0D FF t.@...r.@.......
000000E0 FF C0 41 FF 1E 03 00 00 1E 01 1E 03 12 01 12 00 ..A.............
000000F0 04 B0 28 00 10 01 00 05 6C E2 10 01 12 00 04 B0 ..(.....l.......
00000100 2C 00 10 01 00 C0 74 D4 12 5A 00 C0 6A D8 9D 01 ,.....t..Z..j...
00000110 67 01 BF 60 FC BF 28 55 4A 55 BC 54 00 40 1D 54 g..`..(UJU.T.@.T
00000120 E8 10 76 5B F4 55 A2 55 00 C0 B0 21 70 53 14 12 ..v[.U.U...!pS..
00000130 18 01 1C 01 D4 55 82 54 F2 61 00 C0 5E D7 07 5B .....U.T.a..^..[
00000140 82 55 00 C0 F6 D7 8F 60 00 52 1F 10 07 52 1A 1E .U.....`.R...R..
00000150 82 55 00 C0 32 D7 A2 55 00 C0 70 02 00 52 15 11 .U..2..U..p..R..
00000160 BF 60 04 40 67 02 9D 03 20 05 74 E2 00 C0 F4 D7 .`.@g... .t.....
00000170 12 5A 00 C0 02 D8 B4 54 00 40 F4 61 A2 55 00 C0 .Z.....T.@.a.U..
00000180 CE 09 02 55 FF C0 69 FF 20 05 7A E2 FF C0 61 FF ...U..i. .z...a.
00000190 00 00 9D 01 67 01 BF 60 FC BF 28 55 4A 55 BD 5A ....g..`..(UJU.Z
000001A0 00 40 1C 54 EC 10 1A 01 00 5E 10 01 C4 55 82 54 .@.T.....^...U.T
000001B0 F2 61 00 C0 0E D7 8F 60 07 53 12 12 D6 5B F4 55 .a.....`.S...[.U
000001C0 82 55 00 C0 1A 0F 07 5B 00 52 61 11 00 52 1C 1E .U.....[.Ra..R..
000001D0 A2 55 00 C0 B2 D6 00 52 1B 11 82 55 00 C0 EC 01 .U.....R...U....
000001E0 00 52 12 11 BF 60 04 40 67 02 9D 03 B4 54 00 40 .R...`.@g....T.@
000001F0 F4 61 82 55 00 C0 58 09 02 55 FF C0 F3 FE 20 05 .a.U..X..U.... .
00000200 8A E2 FF C0 EB FE 20 05 7A E2 FF C0 E3 FE 20 05 ...... .z..... .
00000210 98 E2 FF C0 DB FE 00 00 9D 01 58 01 BF 60 FC FB ..........X..`..
00000220 FD 55 2A 55 4D EF 00 04 00 C0 4C D9 08 55 30 54 .U*UM.....L..U0T
00000230 80 61 B0 56 FF 03 A7 12 18 01 A4 55 D2 55 00 C0 .a.V.......U.U..
00000240 E6 D8 D8 61 70 00 7A 00 2E 67 08 E0 40 05 BE E2 ...ap.z..g..@...
00000250 A2 55 00 C0 1A D6 08 55 4F 60 00 56 05 13 4D AF .U.....UO`.V..M.
00000260 00 04 D2 55 00 C0 86 03 00 56 0D 11 04 55 82 55 ...U.....V...U.U
00000270 FF C0 9F FE A2 55 00 C0 8E DB DF 55 BF 60 04 04 .....U.....U.`..
00000280 58 02 9D 03 12 00 04 B0 28 00 10 01 00 05 A6 E2 X.......(.......
00000290 10 01 12 00 04 B0 2C 00 10 01 00 C0 DE D2 12 5A ......,........Z
000002A0 00 C0 D4 D6 1D 01 12 00 04 B0 28 00 10 01 00 05 ..........(.....
000002B0 C2 E2 10 01 12 00 04 B0 2C 00 10 01 00 C0 BC D2 ........,.......
000002C0 12 5A 00 C0 B2 D6 A2 55 00 C0 98 D6 12 5A 00 C0 .Z.....U.....Z..
000002D0 A6 D6 9D 01 67 01 BF 60 00 FC 28 55 00 C0 98 D8 ....g..`..(U....
000002E0 0C 55 A0 05 FF FF 14 00 0A B0 30 54 A0 61 B0 56 .U........0T.a.V
000002F0 FF 03 A4 14 10 54 C0 61 10 01 84 55 42 54 F2 61 .....T.a...UBT.a
00000300 00 C0 24 D8 4F 60 3C 52 BB 10 B2 54 FD FF A2 61 ..$.O`<R...T...a
00000310 82 61 40 05 D8 E2 00 C0 4A D9 00 52 04 12 FC 61 .a@.....J..R...a
00000320 70 00 7A 00 2E 67 0C E0 8C 5B 97 5B FD 55 40 05 p.z..g...[.[.U@.
00000330 BE E2 D2 55 00 C0 B6 02 0A 55 00 56 05 13 40 05 ...U.....U.V..@.
00000340 DC E2 C2 5B 73 5B 00 C0 26 D5 00 56 07 12 04 55 ...[s[..&..V...U
00000350 A2 55 FF C0 41 FE D2 55 00 C0 AC DA BF 60 00 04 .U..A..U.....`..
00000360 67 02 9D 03 C1 55 B1 32 FD FF 1C 5F FC 61 0C F0 g....U.2..._.a..
00000370 8D 55 F0 55 FC 5B 17 5B EB 1D 12 00 04 B0 28 00 .U.U.[.[......(.
00000380 10 01 00 05 A6 E2 10 01 12 00 04 B0 2C 00 10 01 ............,...
00000390 00 C0 E8 D1 12 5A 00 C0 DE D5 82 55 00 C0 C4 D5 .....Z.....U....
000003A0 12 5A 00 C0 D2 D5 1D 01 12 00 04 B0 28 00 10 01 .Z..........(...

;; fn03B0: 000003B0
fn03B0 proc
	movd	$E2C2,(r1,r0)
	push	$2,r0
	loadd	(0x40002C),r0
	push	$2,r0
	bal	ra,fn0000D578
	movw	$1,r2
	bal	ra,fn0000D974
	push	$2,ra
	cmpd	$0,(r3,r2)
	beq	000003E2

l000003CE:
	loadw	0xC(r3,r2),r0
	cmpw	$1C4F,r0
	beq	000003DC

l000003D6:
	bal	ra,fn00002D76
	popret	$2,ra

l000003DC:
	bal	ra,fn00001B74
	popret	$2,ra

l000003E2:
	movw	$FFFE,r0
	popret	$2,ra
000003E8                         9D 01 67 01 BF 60 FC FF         ..g..`..
000003F0 2C 55 47 5B 5A 55 02 56 01 15 B2 54 70 00 00 C0 ,UG[ZU.V...Tp...
00000400 B2 D5 08 55 00 56 0A 14 00 C3 14 00 B0 5A 00 20 ...U.V.......Z. 
00000410 08 DB 00 54 08 EF 34 00 08 C3 0C 00 90 5A 08 DF ...T..4......Z..
00000420 2A 00 08 C3 2C 00 08 C3 20 00 0A B0 0D 5A 00 50 *...,... ....Z.P
00000430 02 13 B2 58 D0 FF B3 58 D5 FF 40 05 2C E3 16 5A ...X...X..@.,..Z
00000440 BE 5A 4F 1C EA 10 00 5C B0 32 D0 FF 08 DF 2A 00 .ZO....\.2....*.
00000450 1A 60 0A B0 00 50 07 12 01 59 21 31 B1 50 09 00 .`...P...Y!1.P..
00000460 B3 1F 30 31 B0 50 4D 00 A4 1F 00 5D 00 5F 20 4C ..01.PM....]._ L
00000470 40 61 00 A0 E0 0A B0 5A B6 01 00 01 0D 01 1C 01 @a.....Z........
00000480 00 C0 6C D6 07 5B 08 D7 8F 60 90 52 12 13 28 A8 ..l..[...`.R..(.
00000490 00 C0 0C D5 82 55 00 C0 06 D5 08 54 80 55 4F 60 .....U.....T.UO`
000004A0 67 02 9D 03 18 96 1F D0 01 52 05 1F B1 52 4F 1C g........R...RO.
000004B0 0F 15 C2 55 00 C0 C0 D6 1A 54 0A 61 A2 55 00 C0 ...U.....T.a.U..
000004C0 F2 D4 08 E8 00 56 07 1E 1A 01 C4 55 02 55 00 C0 .....V.....U.U..
000004D0 56 D6 4F 60 0D 52 14 16 B0 5A 01 06 BD 5A 09 02 V.O`.R...Z...Z..
000004E0 1F 90 B1 52 B1 79 12 10 0D 5B 07 52 65 1C 78 D7 ...R.y...[.Re.x.
000004F0 08 96 10 52 01 17 B0 52 4F 1C 07 15 08 C2 08 C3 ...R...RO.......
00000500 30 00 28 AF 34 00 02 56 0B 10 08 9F 32 00 B0 52 0.(.4..V....2..R
00000510 FC FF 03 10 00 C0 88 D4 00 54 08 EF 34 00 08 C3 .........T..4...
00000520 32 00 08 C3 08 00 08 C3 3C 00 80 55 4F 60 67 02 2.......<..UO`g.
00000530 9D 03 6D 5B EE 18 18 C3 0C 00 EB 18 B0 5A B1 79 ..m[.........Z.y
00000540 08 D6 E7 18 E8 D6 E5 18 28 C3 2C 00 E2 18 18 C3 ........(.,.....
00000550 2C 00 E0 18 FF FE 48 C3 2C 00 E0 18 F7 FE 18 C3 ,.....H.,.......
00000560 20 00 E0 18 EF FE 38 C3 2C 00 E0 18 E7 FE D8 9F  .....8.,.......
00000570 20 00 0D 52 10 19 18 C3 20 00 C2 55 00 C0 F8 D5  ..R.... ..U....
00000580 1A 54 0A 61 A2 55 00 C0 2A D4 08 E8 00 56 03 18 .T.a.U..*....V..
00000590 1A 01 C4 55 02 55 00 C0 8E D5 4F 60 E7 1A B0 5A ...U.U....O`...Z
000005A0 01 0E BD 5A 09 0A ED 19 14 5A 03 5A 72 5B 00 C0 ...Z.....Z.Zr[..
000005B0 2A D8 08 DF 24 00 90 52 13 10 08 C3 24 00 08 96 *...$..R....$...
000005C0 08 C2 B0 52 4F 1C 1C 19 08 C3 26 00 08 C3 28 00 ...RO.....&...(.
000005D0 08 C3 22 00 E5 19 24 5A 03 5A 72 5B 00 C0 FC D7 .."...$Z.Zr[....
000005E0 B0 5A B1 79 08 D6 08 C2 EB 18 1E 01 45 55 94 5A .Z.y........EU.Z
000005F0 FF C0 F9 FD 1E 03 1E 01 45 55 94 5A FF C0 ED FD ........EU.Z....
00000600 1E 03 1E 01 47 01 27 5B 3A 55 92 52 0D 11 D2 54 ....G.'[:U.R...T
00000610 00 C0 A0 D3 08 55 00 56 07 11 BF 60 FE FF 07 01 .....U.V...`....
00000620 00 05 64 E4 10 01 18 01 00 C0 70 CF A5 55 74 5B ..d.......p..Ut[
00000630 82 55 FF C0 B7 FD 0A 55 82 55 00 C0 62 D3 CF 60 .U.....U.U..b..`
00000640 A0 55 47 02 1E 03 0A 54 A0 55 47 02 1E 03 00 00 .UG....T.UG.....
00000650 02 56 0C 11 02 96 B0 52 4F 1C 11 08 01 52 06 10 .V.....RO....R..
00000660 B0 52 B1 79 10 08 00 52 11 11 02 9A 00 52 1E 10 .R.y...R.....R..
00000670 40 5B 40 33 40 53 4A 10 24 52 44 10 42 DB 00 5A @[@3@SJ.$RD.B..Z
00000680 EE 0A 24 5A 42 DB 00 5A EC 1F 90 5A EE 0A 00 00 ..$ZB..Z...Z....
00000690 1E 01 18 01 28 55 02 56 0C 13 02 96 B0 52 4F 1C ....(U.V.....RO.
000006A0 18 13 02 9F 32 00 00 52 11 08 01 52 06 10 B0 52 ....2..R...R...R
000006B0 FB FF 10 08 00 52 1D 12 38 9F 24 00 28 97 04 5A .....R..8.$.(..Z
000006C0 00 C0 18 D7 90 52 05 12 08 C2 08 96 B0 52 4F 1C .....R.......RO.
000006D0 17 10 08 C3 26 00 08 C3 28 00 08 C3 22 00 08 C3 ....&...(..."...
000006E0 30 00 28 AF 34 00 02 56 0B 10 08 9F 32 00 B0 52 0.(.4..V....2..R
000006F0 FC FF 03 10 00 C0 A8 D2 00 54 08 EF 34 00 08 C3 .........T..4...
00000700 32 00 08 C3 08 00 08 C3 3C 00 00 5A 18 02 1E 03 2.......<..Z....
00000710 90 5A 18 02 1E 03 00 00 1E 01 27 01 28 55 47 5B .Z........'.(UG[
00000720 02 56 00 18 26 01 02 96 B0 52 4F 1C 11 08 01 52 .V..&....RO....R
00000730 07 10 B0 52 B1 79 11 08 01 52 10 18 0E 01 18 9F ...R.y...R......
00000740 32 00 01 52 12 08 02 52 06 10 B1 52 FB FF 11 08 2..R...R...R....
00000750 01 52 1B 17 15 52 A9 17 05 52 09 11 18 9F 30 00 .R...R...R....0.
00000760 01 52 04 10 18 9F 2E 00 17 33 08 C3 30 00 B0 52 .R.......3..0..R
00000770 4F 1C 04 11 07 52 69 16 08 94 07 52 05 10 18 C3 O....Ri....R....
00000780 30 00 78 DF 2E 00 70 33 27 02 1E 03 18 94 17 3B 0.x...p3'......;
00000790 08 C3 30 00 B0 52 4F 1C 1E 1E 28 94 48 9F 22 00 ..0..RO...(.H.".
000007A0 14 52 06 15 07 52 7C 12 27 33 07 52 6E 14 38 9F .R...R|.'3.Rn.8.
000007B0 24 00 28 97 04 5A 00 C0 22 D6 90 52 06 14 08 C2 $.(..Z.."..R....
000007C0 08 96 B0 52 4F 1C 0F 12 08 C3 30 00 28 AF 34 00 ...RO.....0.(.4.
000007D0 02 56 0C 10 18 9F 32 00 B1 52 FC FF 04 10 00 C0 .V....2..R......
000007E0 BE D1 08 96 02 54 28 EF 34 00 08 C3 32 00 08 C3 .....T(.4...2...
000007F0 08 00 08 C3 3C 00 B0 52 4F 1C 14 15 02 5A 18 90 ....<..RO....Z..
00000800 70 5B 01 52 6D 11 71 53 D3 08 03 52 09 11 17 3B p[.Rm.qS...R...;
00000810 10 5B 01 5A 18 D0 0E 5F 48 A2 E4 61 48 E2 20 33 .[.Z..._H..aH. 3
00000820 08 D4 EC 1A 08 C3 26 00 08 C3 28 00 08 C3 22 00 ......&...(...".
00000830 08 C3 30 00 28 AF 34 00 02 56 1D 1C E7 1D 71 3B ..0.(.4..V....q;
00000840 07 5A E9 1E 07 52 7C 1D 90 5A 27 02 1E 03 70 5B .Z...R|..Z'...p[
00000850 20 33 00 52 68 1F 08 90 73 5B 03 3B 28 97 00 C0  3.Rh...s[.;(...
00000860 7A D5 90 52 02 1F 08 C2 08 C3 26 00 08 C3 28 00 z..R......&...(.
00000870 08 C3 30 00 28 AF 34 00 02 56 0B 10 08 9F 32 00 ..0.(.4..V....2.
00000880 B0 52 FC FF 03 10 00 C0 16 D1 00 54 08 EF 34 00 .R.........T..4.
00000890 08 C3 32 00 08 C3 3C 00 08 94 70 33 08 D4 27 02 ..2...<...p3..'.
000008A0 1E 03 00 5A E0 18 D7 FE 1E 01 27 01 28 55 47 5B ...Z......'.(UG[
000008B0 02 56 00 18 26 01 02 96 B0 52 4F 1C 11 08 01 52 .V..&....RO....R
000008C0 07 10 B0 52 B1 79 11 08 01 52 10 18 0E 01 18 9F ...R.y...R......
000008D0 32 00 01 52 12 08 02 52 06 10 B1 52 FB FF 11 08 2..R...R...R....
000008E0 01 52 1B 17 15 52 A9 17 05 52 09 11 18 9F 30 00 .R...R...R....0.
000008F0 01 52 04 10 18 9F 2E 00 17 33 08 C3 30 00 B0 52 .R.......3..0..R
00000900 4F 1C 04 11 07 52 69 16 08 94 07 52 05 10 18 C3 O....Ri....R....
00000910 30 00 78 DF 2E 00 70 33 27 02 1E 03 18 94 17 3B 0.x...p3'......;
00000920 08 C3 30 00 B0 52 4F 1C 1E 1E 28 94 48 9F 22 00 ..0..RO...(.H.".
00000930 14 52 06 15 07 52 7C 12 27 33 07 52 6E 14 38 9F .R...R|.'3.Rn.8.
00000940 24 00 28 97 04 5A 00 C0 92 D4 90 52 06 14 08 C2 $.(..Z.....R....
00000950 08 96 B0 52 4F 1C 0F 12 08 C3 30 00 28 AF 34 00 ...RO.....0.(.4.
00000960 02 56 0C 10 18 9F 32 00 B1 52 FC FF 04 10 00 C0 .V....2..R......
00000970 2E D0 08 96 02 54 28 EF 34 00 08 C3 32 00 08 C3 .....T(.4...2...
00000980 08 00 08 C3 3C 00 B0 52 4F 1C 14 15 02 5A 18 90 ....<..RO....Z..
00000990 70 5B 01 52 6D 11 71 53 D3 08 03 52 09 11 17 3B p[.Rm.qS...R...;
000009A0 10 5B 01 5A 18 D0 0E 5F 48 A2 E4 61 48 E2 20 33 .[.Z..._H..aH. 3
000009B0 08 D4 EC 1A 08 C3 26 00 08 C3 28 00 08 C3 22 00 ......&...(...".
000009C0 08 C3 30 00 28 AF 34 00 02 56 1D 1C E7 1D 71 3B ..0.(.4..V....q;
000009D0 07 5A E9 1E 07 52 7C 1D 90 5A 27 02 1E 03 70 5B .Z...R|..Z'...p[
000009E0 20 33 00 52 68 1F 08 90 73 5B 03 3B 28 97 00 C0  3.Rh...s[.;(...
000009F0 EA D3 90 52 02 1F 08 C2 08 C3 26 00 08 C3 28 00 ...R......&...(.
00000A00 08 C3 30 00 28 AF 34 00 02 56 0B 10 08 9F 32 00 ..0.(.4..V....2.
00000A10 B0 52 FC FF 03 10 00 C0 86 CF 00 54 08 EF 34 00 .R.........T..4.
00000A20 08 C3 32 00 08 C3 3C 00 08 94 70 33 08 D4 27 02 ..2...<...p3..'.
00000A30 1E 03 00 5A E0 18 D7 FE 02 56 05 11 02 96 B0 52 ...Z.....V.....R
00000A40 4F 1C 11 08 01 52 06 10 B0 52 B1 79 10 08 00 52 O....R...R.y...R
00000A50 1A 10 02 94 12 9F 30 00 01 52 04 10 12 9F 2E 00 ......0..R......
00000A60 10 33 EE 0A 90 5A EE 0A 02 56 05 11 02 96 B0 52 .3...Z...V.....R
00000A70 4F 1C 11 08 01 52 06 10 B0 52 B1 79 10 08 00 52 O....R...R.y...R
00000A80 1A 10 02 94 12 9F 30 00 01 52 04 10 12 9F 2E 00 ......0..R......
00000A90 10 33 EE 0A 90 5A EE 0A 1E 01 18 01 28 55 02 56 .3...Z......(U.V
00000AA0 0E 11 02 96 B0 52 4F 1C 11 08 01 52 06 10 B0 52 .....RO....R...R
00000AB0 B1 79 10 08 00 52 13 11 28 97 14 5A 03 5A 00 C0 .y...R..(..Z.Z..
00000AC0 1A D3 90 52 0C 10 18 96 B1 52 4F 1C 03 10 18 02 ...R.....RO.....
00000AD0 1E 03 18 9F 3C 00 10 3B 18 02 1E 03 90 5A 18 02 ....<..;.....Z..
00000AE0 1E 03 00 00 1E 01 18 01 28 55 02 56 0E 11 02 96 ........(U.V....
00000AF0 B0 52 4F 1C 11 08 01 52 06 10 B0 52 B1 79 10 08 .RO....R...R.y..
00000B00 00 52 13 11 28 97 14 5A 03 5A 00 C0 CE D2 90 52 .R..(..Z.Z.....R
00000B10 0C 10 18 96 B1 52 4F 1C 03 10 18 02 1E 03 18 9F .....RO.........
00000B20 3C 00 10 3B 18 02 1E 03 90 5A 18 02 1E 03 00 00 <..;.....Z......
00000B30 02 56 07 10 12 96 00 5A B1 52 4F 1C 04 10 EE 0A .V.....Z.RO.....
00000B40 00 5A EE 0A 02 9F 28 00 EE 0A 00 00 02 56 01 12 .Z....(......V..
00000B50 02 96 B0 52 4F 1C 11 08 01 52 06 10 B0 52 B1 79 ...RO....R...R.y
00000B60 10 08 00 52 16 11 02 9F 32 00 04 56 04 10 04 D0 ...R....2..V....
00000B70 02 9F 32 00 B0 52 FC FF 06 10 02 AF 34 00 00 56 ..2..R......4..V
00000B80 05 10 EE 0A 00 05 6C E4 EE 0A 00 05 BC E2 EE 0A ......l.........
00000B90 00 54 EE 0A 1E 01 18 01 28 55 02 56 0C 10 02 96 .T......(U.V....
00000BA0 B0 52 4F 1C 11 08 01 52 08 10 B0 52 B1 79 11 08 .RO....R...R.y..
00000BB0 01 52 03 10 18 02 1E 03 B0 52 4F 1C 15 10 08 C3 .R.......RO.....
00000BC0 26 00 08 C3 28 00 28 AF 34 00 02 56 0B 10 08 9F &...(.(.4..V....
00000BD0 32 00 B0 52 FC FF 03 10 00 C0 C4 CD 00 54 08 EF 2..R.........T..
00000BE0 34 00 08 C3 32 00 18 02 1E 03 00 00             4...2.......    

;; fn00000BEC: 00000BEC
;;   Called from:
;;     00001BB6 (in fn00001B74)
;;     00001C96 (in fn00001BEC)
;;     00001EC8 (in fn00001DFA)
;;     00001F00 (in fn00001DFA)
;;     0000200A (in fn00001F0C)
;;     0000207E (in fn00001F0C)
;;     00002E3A (in fn00002D76)
;;     00002E6C (in fn00002D76)
;;     00002F2C (in fn00002D76)
fn00000BEC proc
	push	$2,r13,ra
	push	$7,r7
	movd	(r9,r8),(r3,r2)
	movw	r4,r10
	movw	r5,r11
	movw	r6,r7
	loadd	0x68(r3,r2),(r3,r2)
	cmpd	$0,(r3,r2)
	beq	00000C14

l00000C00:
	loadw	0x64(r9,r8),r0
	cmpw	$FFFC,r0
	beq	00000C0E

l00000C0A:
	bal	ra,fn0000D99C

l00000C0E:
	movd	$0,(r1,r0)
	stord	(r1,r0),0x68(r9,r8)

l00000C14:
	cmpw	$0,r10
	sne	r0
	cmpw	$0,r0
	beq	00000C28

l00000C1C:
	cmpw	$FFFB,r10
	sne	r0
	cmpw	$0,r0
	beq	00000C28

l00000C26:
	storw	$0,(r9,r8)

l00000C28:
	storw	r10,0x64(r9,r8)
	movw	r11,r0
	orw	r7,r0
	cmpw	$0,r0
	seq	r0
	cmpw	$0,r0
	bne	00000C80

l00000C38:
	cmpw	$FFFC,r10
	seq	r0
	cmpw	$0,r0
	bne	00000C80

l00000C42:
	loadd	0x10(r9,r8),r12
	movd	(r3,r2),r12
	bal	ra,fn0000DB74
	movd	r13,(r1,r0)
	movw	r11,r2
	movw	r7,r3
	bal	ra,fn0000DB74
	movd	(r3,r2),r13
	addd	(r1,r0),(r3,r2)
	addd	$3,(r3,r2)
	bal	ra,fn0000D9B0
	stord	(r1,r0),0x68(r9,r8)
	cmpd	$0,(r1,r0)
	beq	00000C84

l00000C66:
	movd	(r5,r4),r12
	movd	(r3,r2),(r1,r0)
	bal	ra,fn0000DBF0
	movw	$203A,r2
	storw	r2,(r1,r0)
	movd	$2,(r3,r2)
	addd	(r1,r0),(r3,r2)
	movw	r11,r4
	movw	r7,r5
	bal	ra,fn0000DC28

l00000C80:
	pop	$7,r7
	popret	$2,r13,ra

l00000C84:
	movw	$FFFC,r0
	storw	r0,0x64(r9,r8)
	pop	$7,r7
	popret	$2,r13,ra
00000C90 9D 01 67 01 BF 60 FC FF 28 55 BC 54 38 00 2C 61 ..g..`..(U.T8.,a
00000CA0 02 9F 48 00 0F D1 BD 5A 00 40 E8 11 04 5A C2 55 ..H....Z.@...Z.U
00000CB0 00 C0 FE 61 21 5A 01 33 B1 22 FB FF 01 52 0D 15 ...a!Z.3."...R..
00000CC0 B0 52 FC FF 06 16 B0 52 FD FF 0E 16 18 9F 48 00 .R.....R......H.
00000CD0 01 52 08 17 10 52 00 18 0E 01 08 9F 3C 00 00 52 .R...R......<..R
00000CE0 16 1E 08 9F 32 00 00 52 11 08 01 52 07 10 B0 52 ....2..R...R...R
00000CF0 FB FF 10 08 00 52 10 18 08 01 78 9F 26 00 07 52 .....R....x.&..R
00000D00 15 12 28 9A 2F D0 A8 AC E5 10 07 33 0F 90 70 53 ..(./......3..pS
00000D10 B3 11 5F 90 75 3B B5 52 00 40 B2 10 D5 5B 55 5F .._.u;.R.@...[U_
00000D20 73 5F A3 61 28 97 00 C0 9A D0 00 52 CF 1E 00 52 s_.a(......R...R
00000D30 1C 16 18 C3 26 00 08 9F 3C 00 07 33 78 DF 3C 00 ....&...<..3x.<.
00000D40 08 AC 08 EF 38 00 07 52 12 1B 50 05 90 E4 B4 5A ....8..R..P....Z
00000D50 FB FF 82 55 FF C0 99 FE 08 9F 48 00 1F 91 01 3B ...U......H....;
00000D60 18 D0 10 5F 28 AF 44 00 14 00 02 C0 28 E2 01 5A ..._(.D.....(..Z
00000D70 10 5B 4F 60 67 02 9D 03 50 05 C4 E4 B4 5A FE FF .[O`g...P....Z..
00000D80 82 55 FF C0 6B FE 91 5A 10 5B 4F 60 67 02 9D 03 .U..k..Z.[O`g...
00000D90 50 05 6C E4 04 5B 82 55 FF C0 55 FE 91 5A 10 5B P.l..[.U..U..Z.[
00000DA0 4F 60 67 02 9D 03 58 AF 50 00 05 56 0B 12 B4 5A O`g...X.P..V...Z
00000DB0 FD FF 82 55 FF C0 39 FE 91 5A 10 5B 4F 60 67 02 ...U..9..Z.[O`g.
00000DC0 9D 03 2F 91 28 D0 24 5F 28 AF 44 00 14 00 42 C0 ../.(.$_(.D...B.
00000DD0 28 E2 10 52 1E 1C 08 C3 22 00 01 5A 10 5B 4F 60 (..R...."..Z.[O`
00000DE0 67 02 9D 03 0F 91 10 3B 08 D0 00 5F 28 AF 44 00 g......;..._(.D.
00000DF0 14 00 02 C0 28 E2 08 C3 22 00 01 5A E0 1F 91 5A ....(..."..Z...Z
00000E00 E8 1B 50 05 7A E4 E4 1D 50 05 A8 E4 94 5A 82 55 ..P.z...P....Z.U
00000E10 FF C0 DD FD 91 5A ED 1A 00 00 9D 01 67 01 BF 60 .....Z......g..`
00000E20 FC FF 28 55 BD 54 38 00 2D 61 72 9A 07 52 0A 11 ..(U.T8.-ar..R..
00000E30 78 9F 3C 00 17 52 B3 16 48 AF 38 00 04 B0 B0 50 x.<..R..H.8....P
00000E40 1F 00 00 18 46 01 08 9F 20 00 00 52 10 18 9A 01 ....F... ..R....
00000E50 08 C3 3C 00 18 C3 26 00 08 C2 00 5A 4F 60 67 02 ..<...&....ZO`g.
00000E60 9D 03 A2 9B A2 5F 00 C0 4A CB 0C 5B 1B 5B 08 DC ....._..J..[.[..
00000E70 18 DD A2 5B A2 33 22 5F 00 C0 38 CB 08 DF 1C 00 ...[.3"_..8.....
00000E80 18 DF 1E 00 12 5B 02 27 02 52 02 08 02 52 10 18 .....[.'.R...R..
00000E90 60 01 C2 5B B2 27 02 52 02 08 02 52 10 18 52 01 `..[.'.R...R..R.
00000EA0 A8 DA 00 54 08 EF 58 00 08 EF 5C 00 08 EF 60 00 ...T..X...\...`.
00000EB0 78 DF 3C 00 08 EF 38 00 BF 60 FE FF B0 5A 38 00 x.<...8..`...Z8.
00000EC0 00 01 50 05 EC E4 B4 5A 1F 00 D2 55 00 C0 4A 5D ..P....Z...U..J]
00000ED0 4F 60 00 52 0E 1A 28 AF 1C 00 00 C0 C2 CA 28 AC O`.R..(.......(.
00000EE0 00 C0 BC CA 78 DA 50 05 6C E4 B4 5A FC FF 82 55 ....x.P.l..Z...U
00000EF0 FF C0 FD FC 90 5A 4F 60 67 02 9D 03 08 9F 32 00 .....ZO`g.....2.
00000F00 00 52 11 08 01 52 06 10 B0 52 FB FF 10 08 00 52 .R...R...R.....R
00000F10 12 1F 08 9F 26 00 00 52 18 14 C8 AC 07 52 08 10 ....&..R.....R..
00000F20 08 AF 38 00 00 B0 0C F0 78 9F 3C 00 C8 AC A8 9A ..8.....x.<.....
00000F30 7A 3B 70 5F 0F E0 07 5A BB 5A 00 40 E4 10 07 33 z;p_...Z.Z.@...3
00000F40 7A 53 B5 11 A5 5B 75 3B B5 52 00 40 B2 10 B5 5B zS...[u;.R.@...[
00000F50 55 5F 73 5F 0F A0 03 61 C3 61 28 97 00 C0 64 CE U_s_...a.a(...d.
00000F60 00 52 CE 1E 00 52 1E 14 18 C3 26 00 08 9F 3C 00 .R...R....&...<.
00000F70 07 33 78 DF 3C 00 08 AC 08 EF 38 00 07 52 00 13 .3x.<.....8..R..
00000F80 17 52 05 11 E0 18 B5 FE 04 B1 B0 50 8B FF 10 18 .R.........P....
00000F90 B9 FE D2 55 00 C0 AC 5A 28 C3 22 00 08 C3 20 00 ...U...Z(."... .
00000FA0 00 5A 4F 60 67 02 9D 03 07 52 0A 11 08 9F 20 00 .ZO`g....R.... .
00000FB0 00 52 00 18 9F FE 28 AF 1C 00 28 E2 17 5A 48 AF .R....(...(..ZH.
00000FC0 38 00 70 5F 10 01 00 C0 5E CB 08 9F 3C 00 08 D0 8.p_....^...<...
00000FD0 08 C3 3C 00 18 C3 22 00 18 C3 20 00 4F 60 00 5A ..<..."... .O`.Z
00000FE0 4F 60 67 02 9D 03 28 AF 1C 00 28 E2 EB 1E 02 5B O`g...(...(....[
00000FF0 13 5B 00 C0 AA C9 C2 5B B3 5B 00 C0 A2 C9 E0 18 .[.....[.[......
00001000 E9 FE 50 05 A8 E4 94 5A 82 55 FF C0 E3 FB 90 5A ..P....Z.U.....Z
00001010 4F 60 67 02 9D 03 00 00 1E 01 67 01 28 55 08 9F O`g.......g.(U..
00001020 22 00 10 52 0E 12 20 52 0C 11 00 52 0F 10 08 90 "..R.. R...R....
00001030 00 52 19 10 08 9F 26 00 00 52 02 1F 08 9F 3C 00 .R....&..R....<.
00001040 00 52 1E 1E 00 5A 67 02 1E 03 82 55 FF C0 CF FD .R...Zg....U....
00001050 90 52 04 11 08 9F 22 00 00 52 1A 1E 00 5A E4 1F .R...."..R...Z..
00001060 08 9A 00 33 08 DF 48 00 08 AF 1C 00 08 EF 44 00 ...3..H.......D.
00001070 82 55 FF C0 1F FC 90 52 1B 1D 90 5A 67 02 1E 03 .U.....R...Zg...
00001080 78 9A 77 33 A8 AF 1C 00 08 C2 03 5A BC 5A 00 40 x.w3.......Z.Z.@
00001090 E6 10 38 90 03 33 38 D0 37 53 B3 11 75 5B 35 3B ..8..38.7S..u[5;
000010A0 B5 52 00 40 B2 10 C5 5B 55 5F 33 5F A3 61 28 97 .R.@...[U_3_.a(.
000010B0 00 C0 10 CD 00 52 CE 1E 00 52 18 10 18 C3 26 00 .....R...R....&.
000010C0 08 AF 1C 00 08 E2 00 5A EF 1B 50 05 A8 E4 94 5A .......Z..P....Z
000010D0 82 55 FF C0 1B FB 90 5A E2 1D 00 00 9D 01 67 01 .U.....Z......g.
000010E0 BF 60 F4 FF 2C 55 4A 55 6D 5B 02 56 00 18 42 01 .`..,UJUm[.V..B.
000010F0 02 96 B0 52 4F 1C 10 18 38 01 02 9F 32 00 00 52 ...RO...8...2..R
00001100 11 08 01 52 07 10 B0 52 FB FF 10 08 00 52 10 18 ...R...R.....R..
00001110 20 01 0D 52 60 18 A4 01 00 5A 0D 53 07 13 1C 9F  ..R`....Z.S....
00001120 30 00 01 53 10 18 12 01 7C 90 DD 5F 00 54 0F E2 0..S....|.._.T..
00001130 DF D0 9D 00 00 00 FE FF B3 10 91 5A 1F D0 07 52 ...........Z...R
00001140 08 12 2F 90 27 53 B2 10 27 5B 78 5F 4C A2 18 01 ../.'S..'[x_L...
00001150 A2 55 00 C0 D2 C9 0C A2 80 61 0C E2 0C 90 70 3B .U.......a....p;
00001160 0C D0 8A 61 4F 60 14 00 8D C0 0F A2 80 61 0F E2 ...aO`.......a..
00001170 0C 94 07 33 7C D4 0D 56 05 10 7C 90 EA 1D 1C C3 ...3|..V..|.....
00001180 28 00 1F 92 01 52 09 14 10 5B CF 60 67 02 9D 03 (....R...[.`g...
00001190 0C 9F 26 00 00 52 05 10 0C 9F 3C 00 00 52 00 1F ..&..R....<..R..
000011A0 1C 9F 22 00 01 52 02 13 0C 9A 00 33 2F 90 02 53 .."..R.....3/..S
000011B0 4D 12 11 52 03 11 2C DF 48 00 AC EF 44 00 C2 55 M..R..,.H...D..U
000011C0 FF C0 D1 FA 90 52 07 12 7C 90 0C C2 78 5F 8A 61 .....R..|...x_.a
000011D0 EB 1C 07 33 1F 90 71 53 BA 1F 78 5F A0 55 80 61 ...3..qS..x_.U.a
000011E0 0F E4 5F 90 75 3B B5 52 00 40 B3 10 B5 5A 00 40 .._.u;.R.@...Z.@
000011F0 55 5F 2C 97 3F A4 00 C0 CA CB 00 52 CB 1E 00 52 U_,.?......R...R
00001200 13 15 1C C3 26 00 AF A4 EF 1A C2 55 FF C0 0D FE ....&......U....
00001210 90 52 14 1B 01 54 1F E2 0C 9F 32 00 B0 52 FB FF .R...T....2..R..
00001220 11 08 01 52 0D 13 00 52 10 08 00 52 09 13 90 5A ...R...R...R...Z
00001230 CF 60 67 02 9D 03 0C DF 30 00 8C 9F 2E 00 7C 90 .`g.....0.....|.
00001240 08 52 00 18 E9 FE 07 52 08 11 81 5B 87 53 D0 08 .R.....R...[.S..
00001250 00 52 03 12 07 52 61 12 78 3B 71 5B 07 5A 7C D0 .R...Ra.x;q[.Z|.
00001260 14 5F 2C A2 42 61 2C E2 0C 94 10 33 0C D4 08 52 ._,.Ba,....3...R
00001270 00 18 BB FE 07 52 1A 1E 0C 9F 26 00 00 52 06 10 .....R....&..R..
00001280 0C 9F 3C 00 00 52 00 18 A5 FE C2 55 FF C0 8D FD ..<..R.....U....
00001290 90 52 01 1C 7C 90 E8 1D 87 3B 08 5A E1 1E 0F 92 .R..|....;.Z....
000012A0 CF 60 67 02 9D 03 50 05 A8 E4 94 5A C2 55 FF C0 .`g...P....Z.U..
000012B0 3F F9 00 54 0F E2 E1 1B 50 05 F4 E4 B4 5A FE FF ?..T....P....Z..
000012C0 C2 55 FF C0 2B F9 90 5A E4 1B 00 00 9D 01 67 01 .U..+..Z......g.
000012D0 BF 60 F0 FF BC 54 26 00 FC 61 2F E0 4D 55 8C A0 .`...T&..a/.MU..
000012E0 CC A2 0C 56 05 10 0C 96 B0 52 4F 1C 07 10 0A 54 ...V.....RO....T
000012F0 A0 55 BF 60 10 00 67 02 9D 03 0C 9F 32 00 00 52 .U.`..g.....2..R
00001300 11 08 01 52 06 10 B0 52 FB FF 10 08 00 52 10 1F ...R...R.....R..
00001310 DA 55 0D 56 0E 1E D4 55 82 55 00 C0 3E C0 0A 55 .U.V...U.U..>..U
00001320 D4 55 02 55 00 C0 BC C1 80 57 09 10 50 05 14 E5 .U.U.....W..P...
00001330 B4 5A FE FF C2 55 FF C0 B7 F8 EA 1D 0A 56 09 1D .Z...U.......V..
00001340 0C 9F 30 00 00 52 1D 15 7C 90 00 54 0F E2 A8 5B ..0..R..|..T...[
00001350 9A 00 00 00 FE FF B2 10 98 5A 07 52 06 12 87 53 .........Z.R...S
00001360 B2 10 87 5B 78 5F 4C A2 18 01 2F A2 00 C0 B8 C7 ...[x_L.../.....
00001370 0C A2 80 61 0C E2 0C 90 70 3B 0C D0 0F A2 80 61 ...a....p;.....a
00001380 0F E2 4F 60 14 00 8A C0 0F A2 80 61 0F E2 0C 94 ..O`.......a....
00001390 07 33 7C D4 0A 56 03 10 7C 90 EA 1D D4 55 2F A2 .3|..V..|....U/.
000013A0 00 C0 40 C1 0A 55 E5 1A 0C 9F 26 00 00 52 06 10 ..@..U....&..R..
000013B0 0C 9F 3C 00 00 52 00 18 FE 00 1C 9F 22 00 01 52 ..<..R......"..R
000013C0 08 11 0C 9A 00 33 08 53 44 11 11 52 0C 14 8C DF .....3.SD..R....
000013D0 48 00 0F A0 0C EF 44 00 C2 55 FF C0 B7 F8 90 52 H.....D..U.....R
000013E0 07 18 7C 90 0C C2 78 5F 0F A0 80 61 0F E0 EB 1C ..|...x_...a....
000013F0 C2 55 FF C0 27 FC 90 52 00 18 F7 FE 7C 90 E8 1A .U..'..R....|...
00001400 0C C3 30 00 8C 9F 2E 00 7C 90 08 52 0F 19 07 52 ..0.....|..R...R
00001410 06 11 81 5B 87 53 D0 08 00 52 02 12 07 52 60 12 ...[.S...R...R`.
00001420 78 3B 71 5B 07 5A 7C D0 14 5F 2C A2 42 61 2C E2 x;q[.Z|.._,.Ba,.
00001430 0C 94 10 33 0C D4 08 52 1B 1E E8 18 0C 9F 26 00 ...3...R......&.
00001440 00 52 06 10 0C 9F 3C 00 00 52 00 18 01 FF C2 55 .R....<..R.....U
00001450 FF C0 C9 FB 90 52 00 18 99 FE 7C 90 E9 1D 87 3B .....R....|....;
00001460 08 5A E2 1E AF E6 8B 5B E4 10 07 33 7B 53 BC 11 .Z.....[...3{S..
00001470 78 5F 0F A0 80 61 0F E4 B5 5B 75 3B B5 52 00 40 x_...a...[u;.R.@
00001480 B3 10 B5 5A 00 40 55 5F 2C 97 3F A4 00 C0 34 C9 ...Z.@U_,.?...4.
00001490 00 52 CC 1E AF A6 00 52 17 11 1C C3 26 00 0F A4 .R.....R....&...
000014A0 0F E0 E0 18 E3 FE AF A6 78 5F 0F A0 80 61 0F E0 ........x_...a..
000014B0 E0 18 D5 FE 1C C3 28 00 D4 55 2F A2 00 C0 24 C0 ......(..U/...$.
000014C0 0A 55 E0 18 2F FE 50 05 A8 E4 94 5A C2 55 FF C0 .U../.P....Z.U..
000014D0 1F F7 0A 54 E0 18 1D FE 00 00 9D 01 67 01 BF 60 ...T........g..`
000014E0 F0 FF 2C 55 02 56 0C 15 02 96 B0 52 4F 1C 18 15 ..,U.V.....RO...
000014F0 02 9F 32 00 00 52 11 08 01 52 06 10 B0 52 FB FF ..2..R...R...R..
00001500 10 08 00 52 1D 14 AC 90 0A 52 01 11 90 5A A0 33 ...R.....R...Z.3
00001510 0C D0 0C 94 10 32 0C D4 0C A2 12 54 02 61 2C E2 .....2.....T.a,.
00001520 00 B0 00 5D BF 60 10 00 67 02 9D 03 0C 9F 30 00 ...].`..g.....0.
00001530 00 52 1F 15 00 54 0F E6 1D 54 FF E4 A7 5B D8 5B .R...T...T...[.[
00001540 9D 00 00 00 FE FF B2 10 98 5A 07 52 0E 12 7F D2 .........Z.R....
00001550 87 53 B2 10 8F D2 1F 92 1A 5F 8C A2 1A 01 84 55 .S......._.....U
00001560 2F A6 00 C0 C2 C5 A8 61 8C E2 0F 94 07 3B 7C D0 /......a.....;|.
00001570 0F A6 A0 61 0F E6 4F 60 14 00 AD C0 0F A6 A0 61 ...a..O`.......a
00001580 0F E6 0C 94 AF 92 0A 33 AC D4 0D 56 00 18 08 01 .......3...V....
00001590 7C 90 E6 1D C2 55 FF C0 83 FA 90 52 1A 1F 90 5A |....U.....R...Z
000015A0 BF 60 10 00 67 02 9D 03 0C 9F 26 00 00 52 05 10 .`..g.....&..R..
000015B0 0C 9F 3C 00 00 52 0D 16 1C 9F 22 00 01 52 0B 1E ..<..R...."..R..
000015C0 0C 9A 00 33 80 53 A7 1E 11 52 04 14 8C DF 48 00 ...3.S...R....H.
000015D0 0F A4 0C EF 44 00 C2 55 FF C0 B9 F6 90 52 00 1E ....D..U.....R..
000015E0 1C 90 1F D2 0C C2 1A 5F 0F A4 A0 61 0F E4 E5 1C ......._...a....
000015F0 AC DF 30 00 7C 9F 2E 00 A0 5B 07 52 0C 19 00 52 ..0.|....[.R...R
00001600 07 11 74 5B 00 52 63 12 70 53 D1 08 01 52 0F 11 ..t[.Rc.pS...R..
00001610 07 3B 04 5B A0 5B 0C D0 48 5F 2C A2 82 61 2C E2 .;.[.[..H_,..a,.
00001620 1C 94 41 33 1C D4 07 52 1B 1E 0A 5B E4 18 1C 9F ..A3...R...[....
00001630 26 00 01 52 05 10 1C 9F 3C 00 01 52 07 1F C2 55 &..R....<..R...U
00001640 FF C0 D9 F9 90 52 0C 1A 0C 90 EA 1D 70 3B 07 5A .....R......p;.Z
00001650 E3 1E 8F D2 E5 10 07 33 1F 92 17 53 55 12 7A 5F .......3...SU.z_
00001660 8F A4 A8 61 5F 92 75 3B B5 52 00 40 B3 10 B5 5A ...a_.u;.R.@...Z
00001670 00 40 55 5F 2C 97 83 55 00 C0 48 C7 00 52 CC 1E .@U_,..U..H..R..
00001680 00 52 19 11 1C C3 26 00 8F E4 7F D2 E0 18 ED FE .R....&.........
00001690 1C C3 28 00 1F 96 01 52 D3 18 0F B0 00 5D BF 60 ..(....R.....].`
000016A0 10 00 67 02 9D 03 7A 5F 0F A4 A0 61 0F E4 7F D2 ..g...z_...a....
000016B0 E0 18 C9 FE 50 05 A8 E4 94 5A C2 55 FF C0 31 F5 ....P....Z.U..1.
000016C0 90 5A E0 18 63 FE 00 00 9D 01 67 01 BF 60 F0 FF .Z..c.....g..`..
000016D0 2C 55 02 56 0C 15 02 96 B0 52 4F 1C 18 15 02 9F ,U.V.....RO.....
000016E0 32 00 00 52 11 08 01 52 06 10 B0 52 FB FF 10 08 2..R...R...R....
000016F0 00 52 1D 14 AC 90 0A 52 01 11 90 5A A0 33 0C D0 .R.....R...Z.3..
00001700 0C 94 10 32 0C D4 0C A2 12 54 02 61 2C E2 00 B0 ...2.....T.a,...
00001710 00 5D BF 60 10 00 67 02 9D 03 0C 9F 30 00 00 52 .].`..g.....0..R
00001720 1F 15 00 54 0F E6 1D 54 FF E4 A7 5B D8 5B 9D 00 ...T...T...[.[..
00001730 00 00 FE FF B2 10 98 5A 07 52 0E 12 7F D2 87 53 .......Z.R.....S
00001740 B2 10 8F D2 1F 92 1A 5F 8C A2 1A 01 84 55 2F A6 ......._.....U/.
00001750 00 C0 D4 C3 A8 61 8C E2 0F 94 07 3B 7C D0 0F A6 .....a.....;|...
00001760 A0 61 0F E6 4F 60 14 00 AD C0 0F A6 A0 61 0F E6 .a..O`.......a..
00001770 0C 94 AF 92 0A 33 AC D4 0D 56 00 18 08 01 7C 90 .....3...V....|.
00001780 E6 1D C2 55 FF C0 95 F8 90 52 1A 1F 90 5A BF 60 ...U.....R...Z.`
00001790 10 00 67 02 9D 03 0C 9F 26 00 00 52 05 10 0C 9F ..g.....&..R....
000017A0 3C 00 00 52 0D 16 1C 9F 22 00 01 52 0B 1E 0C 9A <..R...."..R....
000017B0 00 33 80 53 A7 1E 11 52 04 14 8C DF 48 00 0F A4 .3.S...R....H...
000017C0 0C EF 44 00 C2 55 FF C0 CB F4 90 52 00 1E 1C 90 ..D..U.....R....
000017D0 1F D2 0C C2 1A 5F 0F A4 A0 61 0F E4 E5 1C AC DF ....._...a......
000017E0 30 00 7C 9F 2E 00 A0 5B 07 52 0C 19 00 52 07 11 0.|....[.R...R..
000017F0 74 5B 70 53 D1 08 01 52 01 12 00 52 6F 11 07 3B t[pS...R...Ro..;
00001800 04 5B A0 5B 0C D0 48 5F 2C A2 82 61 2C E2 1C 94 .[.[..H_,..a,...
00001810 41 33 1C D4 07 52 1B 1E 0A 5B E4 18 1C 9F 26 00 A3...R...[....&.
00001820 01 52 05 10 1C 9F 3C 00 01 52 07 1F C2 55 FF C0 .R....<..R...U..
00001830 EB F7 90 52 0C 1A 0C 90 EA 1D 70 3B 07 5A E3 1E ...R......p;.Z..
00001840 8F D2 E5 10 07 33 1F 92 17 53 55 12 7A 5F 8F A4 .....3...SU.z_..
00001850 A8 61 5F 92 75 3B B5 52 00 40 B3 10 B5 5A 00 40 .a_.u;.R.@...Z.@
00001860 55 5F 2C 97 83 55 00 C0 5A C5 00 52 CC 1E 00 52 U_,..U..Z..R...R
00001870 19 11 1C C3 26 00 8F E4 7F D2 E0 18 ED FE 1C C3 ....&...........
00001880 28 00 1F 96 01 52 D3 18 0F B0 00 5D BF 60 10 00 (....R.....].`..
00001890 67 02 9D 03 7A 5F 0F A4 A0 61 0F E4 7F D2 E0 18 g...z_...a......
000018A0 C9 FE 50 05 A8 E4 94 5A C2 55 FF C0 43 F3 90 5A ..P....Z.U..C..Z
000018B0 E0 18 63 FE 00 00 1E 01 47 01 2A 5B 38 55 03 56 ..c.....G.*[8U.V
000018C0 0E 15 03 96 B0 52 4F 1C 1A 15 03 9F 32 00 00 52 .....RO.....2..R
000018D0 11 08 01 52 06 10 B0 52 FB FF 10 08 00 52 1F 14 ...R...R.....R..
000018E0 08 9F 30 00 00 52 1D 11 0A 52 69 14 68 90 08 9A ..0..R...Ri.h...
000018F0 00 33 01 5B 06 52 0B 14 06 53 08 16 48 A2 28 AF .3.[.R...S..H.(.
00001900 1C 00 24 57 00 15 16 32 68 D0 94 60 48 E2 A4 F0 ..$W...2h..`H...
00001910 08 94 90 32 08 D4 08 C3 28 00 A0 5B 47 02 1E 03 ...2....(..[G...
00001920 08 C3 30 00 78 9F 2E 00 0B 5A B7 53 0E 1D 18 90 ..0.x....Z.S....
00001930 01 52 08 11 74 5B 71 53 D0 08 00 52 01 13 01 52 .R..t[qS...R...R
00001940 6F 12 17 3B 14 5B B1 5B 18 D0 40 5F 28 A2 02 61 o..;.[.[..@_(..a
00001950 28 E2 08 94 40 33 08 D4 07 52 07 1C 18 90 01 52 (...@3...R.....R
00001960 1A 1E 08 9F 26 00 00 52 05 10 08 9F 3C 00 00 52 ....&..R....<..R
00001970 09 10 82 55 FF C0 A5 F6 90 52 1A 1D 90 5A 47 02 ...U.....R...ZG.
00001980 1E 03 0A 52 6C 1F 08 9A 01 5B 01 33 18 C2 10 5F ...Rl....[.3..._
00001990 90 60 28 AF 1C 00 20 61 08 E2 A0 F0 EA 1B 71 3B .`(... a......q;
000019A0 07 5A E3 1D 62 5F 42 61 00 5F 40 61 24 57 5C 10 .Z..b_Ba._@a$W\.
000019B0 92 60 90 60 42 B0 40 F0 48 AF 1C 00 24 57 49 1F .`.`B.@.H...$WI.
000019C0 68 90 04 55 E1 1A 04 55 EF 19 50 05 36 E5 B4 5A h..U...U..P.6..Z
000019D0 FD FF 82 55 FF C0 19 F2 90 5A E2 1D 9D 01 67 01 ...U.....Z....g.
000019E0 BF 60 F4 FF 2A 55 4F E4 68 5B 0F 94 1F 95 10 27 .`..*UO.h[.....'
000019F0 00 52 01 08 06 52 D0 08 10 25 00 50 19 16 20 5B .R...R...%.P.. [
00001A00 B0 27 00 52 00 08 00 52 13 16 02 96 B0 52 4F 1C .'.R...R.....RO.
00001A10 1F 15 02 9F 32 00 00 52 11 08 01 52 06 10 B0 52 ....2..R...R...R
00001A20 FB FF 10 08 00 52 14 15 0A 9F 30 00 00 52 15 15 .....R....0..R..
00001A30 98 32 8F D0 08 52 0C 14 0A 90 DF A4 00 52 00 17 .2...R.......R..
00001A40 7F 90 07 53 B2 10 07 5B 7C 5F 8A A2 C5 55 A4 5A ...S...[|_...U.Z
00001A50 82 55 00 C0 0A C1 0F E2 00 56 06 10 14 00 80 C0 .U.......V......
00001A60 17 5A 07 33 7C 5F 1C 01 84 55 D2 55 00 C0 B8 C0 .Z.3|_...U.U....
00001A70 0A 90 70 3B 0A D0 2A A2 C2 61 2A E2 1A 94 71 33 ..p;..*..a*...q3
00001A80 1A D4 2F 92 72 3B 2F D2 CD 61 4F 60 02 52 11 08 ../.r;/..aO`.R..
00001A90 01 52 08 10 1F 92 2F 93 21 27 01 52 01 08 01 52 .R..../.!'.R...R
00001AA0 1E 1C 0F A4 0D 57 04 11 0D 82 0F 94 1F 95 CF 60 .....W.........`
00001AB0 67 02 9D 03 0A 9F 26 00 00 52 05 10 0A 9F 3C 00 g.....&..R....<.
00001AC0 00 52 07 1B A2 55 FF C0 53 F5 90 52 1D 10 00 5A .R...U..S..R...Z
00001AD0 01 5B CF 60 67 02 9D 03 0A C3 30 00 7A 9F 2E 00 .[.`g.....0.z...
00001AE0 09 5A 97 53 06 1A 0A 90 00 52 05 1E 71 5B 00 52 .Z.S.....R..q[.R
00001AF0 62 12 70 53 D2 08 02 52 0E 11 07 3B 01 5B 90 5B b.pS...R...;.[.[
00001B00 0A D0 14 5F 2A A2 42 61 2A E2 0A 94 10 33 0A D4 ..._*.Ba*....3..
00001B10 07 52 1A 1E 98 32 8F D0 08 52 0A 1D EE 18 A2 55 .R...2...R.....U
00001B20 FF C0 F9 F4 90 52 04 1D 0A 90 00 52 1A 18 1A C3 .....R.....R....
00001B30 28 00 E8 1B 70 3B 07 5A E4 1E 00 00 1E 01 18 01 (...p;.Z........
00001B40 28 55 02 56 05 11 02 96 B0 52 4F 1C 05 10 08 9F (U.V.....RO.....
00001B50 20 00 18 02 1E 03 02 9F 22 00 00 52 19 1F 02 90  ......."..R....
00001B60 00 52 16 1F FF C0 B7 F2 08 9F 20 00 E3 1F 00 5A .R........ ....Z
00001B70 18 02 1E 03                                     ....            

;; fn00001B74: 00001B74
;;   Called from:
;;     000003DC (in fn03B0)
fn00001B74 proc
	push	$2,ra
	push	$4,r7
	movd	(r9,r8),(r3,r2)
	cmpd	$0,(r3,r2)
	beq	00001BE0

l00001B7E:
	loadw	0xC(r3,r2),r0
	cmpw	$1C4F,r0
	bne	00001BE0

l00001B86:
	loadw	0x14(r3,r2),r0
	cmpw	$0,r0
	beq	00001BA4

l00001B8C:
	movd	$38,(r3,r2)
	addd	(r9,r8),(r3,r2)
	bal	ra,fn000089C4
	loadd	0x38(r9,r8),(r3,r2)
	bal	ra,fn0000D99C
	loadd	0x18(r9,r8),(r3,r2)
	bal	ra,fn0000D99C

l00001BA4:
	loadw	0x64(r9,r8),r7
	cmpw	$FFFB,r7
	beq	00001BB0

l00001BAE:
	movw	$0,r7

l00001BB0:
	movd	$0,(r6,r5)
	movw	$0,r4
	movd	(r3,r2),(r9,r8)
	bal	ra,fn00000BEC
	loadd	0x10(r9,r8),(r3,r2)
	bal	ra,fn0000D99C
	loadw	0xE(r9,r8),r2
	bal	ra,fn0000DDF0
	movw	r0,r10
	movd	(r3,r2),(r9,r8)
	bal	ra,fn0000D99C
	cmpw	$0,r10
	bne	00001BD8

l00001BD2:
	movw	r7,r0
	pop	$4,r7
	popret	$2,ra

l00001BD8:
	movw	$FFFF,r7
	movw	r7,r0
	pop	$4,r7
	popret	$2,ra

l00001BE0:
	movw	$FFFE,r7
	movw	r7,r0
	pop	$4,r7
	popret	$2,ra
00001BEA                               00 00                       ..    

;; fn00001BEC: 00001BEC
;;   Called from:
;;     00001ED2 (in fn00001DFA)
;;     00002044 (in fn00001F0C)
;;     00002EFA (in fn00002D76)
fn00001BEC proc
	push	$2,ra
	push	$7,r7
	movd	(r9,r8),(r3,r2)
	loadw	0x16(r3,r2),r7
	movw	r7,r2
	addw	r7,r2
	movzw	r2,(r3,r2)
	bal	ra,fn0000D9B0
	movd	(r11,r10),(r1,r0)
	stord	(r1,r0),0x18(r9,r8)
	movd	$0,r12
	cmpd	(r1,r0),r12
	beq	00001C8C

l00001C08:
	loadw	0x40(r9,r8),r0
	cmpw	$0,r0
	beq	00001C18

l00001C10:
	storw	r7,0x14(r9,r8)

l00001C12:
	movw	$0,r0
	pop	$7,r7
	popret	$2,ra

l00001C18:
	movzw	r7,(r3,r2)
	bal	ra,fn0000D9B0
	stord	(r1,r0),0x38(r9,r8)
	cmpd	$0,(r1,r0)
	beq	00001C86

l00001C26:
	stord	r12,0xB0(r9,r8)
	stord	r12,0xB8(r9,r8)
	stord	r12,0xC0(r9,r8)
	loadw	0x54(r9,r8),r4
	addd	$-2,sp
	movw	$38,r0
	push	$1,r0
	movd	$E4EC,(r1,r0)
	push	$2,r0
	loadw	0x58(r9,r8),r0
	push	$1,r0
	movw	$8,r5
	push	$1,r5
	movw	$1F,r6
	movd	$38,(r3,r2)
	addd	(r9,r8),(r3,r2)
	bal	ra,fn00006226
	addd	$12,sp
	cmpw	$0,r0
	bne	00001CA0

l00001C64:
	stord	r12,0x70(r9,r8)
	loadw	0x16(r9,r8),r1
	loadw	0x40(r9,r8),r0
	storw	r1,0x14(r9,r8)
	cmpw	$0,r0
	bne	00001C12

l00001C74:
	storw	r1,0x90(r9,r8)
	loadd	0x38(r9,r8),(r3,r2)
	stord	(r3,r2),0x88(r9,r8)
	stord	(r3,r2),4(r9,r8)
	pop	$7,r7
	popret	$2,ra

l00001C86:
	movd	(r3,r2),(r11,r10)
	bal	ra,fn0000D99C

l00001C8C:
	movd	$E46C,(r6,r5)
	movw	$FFFC,r4
	movd	(r3,r2),(r9,r8)
	bal	ra,fn00000BEC
	movw	$FFFF,r0
	pop	$7,r7
	popret	$2,ra

l00001CA0:
	loadd	0x38(r9,r8),(r3,r2)
	bal	ra,fn0000D99C
	loadd	0x18(r9,r8),(r3,r2)
	bal	ra,fn0000D99C
	br	00001C8C
00001CB0 00 00 9D 01 67 01 28 55 4C 5B 02 9A 00 52 0A 17 ....g.(UL[...R..
00001CC0 78 9F 20 00 07 52 04 12 58 9F 3C 00 05 52 0C 11 x. ..R..X.<..R..
00001CD0 38 AF 38 00 B7 5A 00 40 B5 52 00 40 B2 10 75 5B 8.8..Z.@.R.@..u[
00001CE0 55 5F 28 97 00 C0 AC C0 00 52 68 15 58 9F 3C 00 U_(......Rh.X.<.
00001CF0 05 3B 58 DF 3C 00 00 5E 38 AF 38 00 03 61 38 EF .;X.<..^8.8..a8.
00001D00 38 00 05 52 1A 1E 07 5A 70 5B 67 02 9D 03 BA 54 8..R...Zp[g....T
00001D10 38 00 8A 61 58 9F 48 00 70 5B 05 52 0F 11 0C 52 8..aX.H.p[.R...R
00001D20 07 14 4C 52 11 08 01 52 19 11 10 52 00 08 5D 5B ..LR...R...R..][
00001D30 00 52 14 11 C4 5B A2 55 00 C0 9C 2F B0 52 FE FF .R...[.U.../.R..
00001D40 0E 14 58 9F 48 00 D5 53 19 1E 4C 52 1D 1D A2 55 ..X.H..S..LR...U
00001D50 00 C0 44 2A 70 5B 67 02 9D 03 28 AF 44 00 08 A2 ..D*p[g...(.D...
00001D60 20 57 4A 10 E6 14 00 5E 28 A2 20 61 08 E2 28 AF  WJ....^(. a..(.
00001D70 44 00 20 57 57 12 14 00 02 C0 B2 56 00 40 D4 10 D. WW......V.@..
00001D80 B2 5A 00 40 03 5A 50 05 FF FF 14 00 25 B0 28 97 .Z.@.ZP.....%.(.
00001D90 03 55 00 C0 FE BF 00 52 77 1E 50 05 A8 E4 94 5A .U.....Rw.P....Z
00001DA0 82 55 FF C0 4B EE 97 5A 70 5B 67 02 9D 03 5D 5B .U..K..Zp[g...][
00001DB0 E2 1C FF C0 3B FE 07 5B 90 52 13 18 70 5B 67 02 ....;..[.R..p[g.
00001DC0 9D 03 D8 9F 48 00 0D 52 16 1B D8 9A D8 DF 48 00 ....H..R......H.
00001DD0 08 AF 1C 00 08 EF 44 00 08 E2 ED 1A 50 05 56 E5 ......D.....P.V.
00001DE0 04 5B 82 55 FF C0 09 EE 97 5A 70 5B 67 02 9D 03 .[.U.....Zp[g...
00001DF0 5D 5B 0D 52 10 1A EA 1E 00 00                   ][.R......      

;; fn00001DFA: 00001DFA
;;   Called from:
;;     00002086 (in fn00001F0C)
fn00001DFA proc
	push	$2,r13,ra
	push	$7,r7
	movd	(r9,r8),(r3,r2)
	loadw	0x14(r3,r2),r0
	cmpw	$0,r0
	beq	00001ED2

l00001E06:
	loadw	0x40(r9,r8),r0
	cmpw	$0,r0
	bne	00001E40

l00001E0E:
	loadw	0x90(r9,r8),r0
	movw	$4000,r12
	movw	$0,r7
	movd	$38,(r11,r10)
	addd	(r9,r8),(r11,r10)

l00001E1E:
	movw	r0,r13
	cmpw	$0,r0
	beq	00001E82

l00001E24:
	movw	$0,r4
	movd	(r3,r2),(r11,r10)
	bal	ra,fn00004CD4
	cmpw	$FFFE,r0
	beq	00001EF8

l00001E32:
	loadw	0x90(r9,r8),r0
	cmpw	r0,r13
	bne	00001E1E

l00001E3A:
	movw	$0,r0

l00001E3C:
	pop	$7,r7
	popret	$2,r13,ra

l00001E40:
	loadw	0x78(r9,r8),r5
	cmpw	$0,r5
	beq	00001E3A

l00001E48:
	loadd	0x70(r9,r8),(r4,r3)
	movw	$4000,r7

l00001E50:
	cmpw	$4000,r5
	bhs	00001E58

l00001E56:
	movw	r7,r5

l00001E58:
	movzw	r5,(r6,r5)
	loadw	0xE(r9,r8),r2
	bal	ra,fn0000DD90
	cmpw	$0,r0
	bgt	00001EC0

l00001E64:
	loadw	0x78(r9,r8),r5
	subw	r0,r5
	storw	r5,0x78(r9,r8)
	movxw	r0,(r1,r0)
	loadd	0x70(r9,r8),(r4,r3)
	addd	(r1,r0),(r4,r3)
	stord	(r4,r3),0x70(r9,r8)
	cmpw	$0,r5
	bne	00001E50

l00001E7E:
	movw	$0,r0
	br	00001E3C

l00001E82:
	loadd	0x88(r9,r8),(r3,r2)
	loadd	4(r9,r8),(r1,r0)
	cmpd	(r1,r0),(r3,r2)
	bhi	00001E9E

l00001E8C:
	br	00001EE6

l00001E8E:
	movxw	r0,(r1,r0)
	loadd	4(r9,r8),(r3,r2)
	addd	(r3,r2),(r1,r0)
	stord	(r1,r0),4(r9,r8)
	loadd	0x88(r9,r8),(r3,r2)
	cmpd	(r3,r2),(r1,r0)
	bhs	00001EDE

l00001E9E:
	subd	(r3,r2),(r1,r0)
	cmpd	$4000,(r3,r2)
	bge	00001EAC

l00001EA8:
	movw	r12,r2
	movw	r7,r3

l00001EAC:
	movd	$FFFF,(r6,r5)
	andd	(r3,r2),(r6,r5)
	loadw	0xE(r9,r8),r2
	movd	(r4,r3),(r1,r0)
	bal	ra,fn0000DD90
	cmpw	$0,r0
	ble	00001E8E

l00001EC0:
	movd	$E4A8,(r6,r5)
	movw	$FFFF,r4
	movd	(r3,r2),(r9,r8)
	bal	ra,fn00000BEC
	movw	$FFFF,r0
	pop	$7,r7
	popret	$2,r13,ra

l00001ED2:
	bal	ra,fn00001BEC
	cmpw	$FFFF,r0
	bne	00001E06

l00001EDA:
	pop	$7,r7
	popret	$2,r13,ra

l00001EDE:
	loadw	0x90(r9,r8),r13
	cmpw	$0,r13
	bne	00001E24

l00001EE6:
	loadw	0x14(r9,r8),r13
	storw	r13,0x90(r9,r8)
	loadd	0x38(r9,r8),(r1,r0)
	stord	(r1,r0),0x88(r9,r8)
	stord	(r1,r0),4(r9,r8)
	br	00001E24

l00001EF8:
	movd	$E556,(r6,r5)
	movw	r0,r4
	movd	(r3,r2),(r9,r8)
	bal	ra,fn00000BEC
	movw	$FFFF,r0
	pop	$7,r7
	popret	$2,r13,ra
00001F0A                               00 00                       ..    

;; fn00001F0C: 00001F0C
;;   Called from:
;;     00002EDA (in fn00002D76)
fn00001F0C proc
	push	$2,r13,ra
	push	$7,r7
	addd	$-4,sp
	movd	(r9,r8),(r3,r2)
	movw	r4,r10
	loadw	0x78(r3,r2),r0
	cmpw	$0,r0
	bne	00002086

l00001F22:
	cmpw	$0,r10
	beq	00001FB8

l00001F26:
	movd	$38,(r1,r0)
	addd	(r9,r8),(r1,r0)
	stord	(r1,r0),(sp)
	movw	$1,r1
	movw	$4000,r13
	movw	$0,r12

l00001F36:
	loadw	0x14(r9,r8),r0
	cmpw	r0,r10
	sge	r2
	cmpw	$0,r2
	beq	00001FC0

l00001F40:
	movw	r0,r11
	cmpw	$0,r0
	bgt	00001FC0

l00001F46:
	loadd	0x18(r9,r8),(r3,r2)
	cmpw	$0,r1
	beq	00001F58

l00001F4C:
	movzw	r11,(r6,r5)
	movw	$0,r4
	bal	ra,fn0000DB44
	loadd	0x18(r9,r8),(r3,r2)
	loadw	0x14(r9,r8),r0

l00001F58:
	storw	r11,0x78(r9,r8)
	stord	(r3,r2),0x70(r9,r8)
	loadw	8(r9,r8),r1
	addw	r11,r1
	storw	r1,8(r9,r8)
	cmpw	$0,r0
	beq	00002042

l00001F6A:
	loadw	0x40(r9,r8),r0
	cmpw	$0,r0
	beq	00002016

l00001F72:
	loadw	0x78(r9,r8),r5
	cmpw	$0,r5
	beq	00001FB0

l00001F7A:
	loadd	0x70(r9,r8),(r4,r3)
	movw	$4000,r7

l00001F82:
	cmpw	$4000,r5
	bhs	00001F8A

l00001F88:
	movw	r7,r5

l00001F8A:
	movzw	r5,(r6,r5)
	loadw	0xE(r9,r8),r2
	bal	ra,fn0000DD90
	cmpw	$0,r0
	bgt	00002002

l00001F96:
	loadw	0x78(r9,r8),r5
	subw	r0,r5
	storw	r5,0x78(r9,r8)
	movxw	r0,(r1,r0)
	loadd	0x70(r9,r8),(r4,r3)
	addd	(r1,r0),(r4,r3)
	stord	(r4,r3),0x70(r9,r8)
	cmpw	$0,r5
	bne	00001F82

l00001FB0:
	subw	r11,r10
	movw	$0,r1
	cmpw	r10,r1
	bne	00001F36

l00001FB8:
	movw	$0,r0

l00001FBA:
	addd	$4,sp
	pop	$7,r7
	popret	$2,r13,ra

l00001FC0:
	movw	r10,r11
	br	00001F46

l00001FC4:
	loadd	0x88(r9,r8),(r3,r2)
	loadd	4(r9,r8),(r1,r0)
	cmpd	(r1,r0),(r3,r2)
	bhi	00001FE0

l00001FCE:
	br	00002058

l00001FD0:
	movxw	r0,(r1,r0)
	loadd	4(r9,r8),(r3,r2)
	addd	(r3,r2),(r1,r0)
	stord	(r1,r0),4(r9,r8)
	loadd	0x88(r9,r8),(r3,r2)
	cmpd	(r3,r2),(r1,r0)
	bhs	00002050

l00001FE0:
	subd	(r3,r2),(r1,r0)
	cmpd	$4000,(r3,r2)
	bge	00001FEE

l00001FEA:
	movw	r13,r2
	movw	r12,r3

l00001FEE:
	movd	$FFFF,(r6,r5)
	andd	(r3,r2),(r6,r5)
	loadw	0xE(r9,r8),r2
	movd	(r4,r3),(r1,r0)
	bal	ra,fn0000DD90
	cmpw	$0,r0
	ble	00001FD0

l00002002:
	movd	$E4A8,(r6,r5)
	movw	$FFFF,r4
	movd	(r3,r2),(r9,r8)
	bal	ra,fn00000BEC
	movw	$FFFF,r0
	addd	$4,sp
	pop	$7,r7
	popret	$2,r13,ra

l00002016:
	loadw	0x90(r9,r8),r0

l0000201A:
	movw	r0,r7
	cmpw	$0,r0
	beq	00001FC4

l00002020:
	movw	$0,r4
	loadd	(sp),(r3,r2)
	bal	ra,fn00004CD4
	cmpw	$FFFE,r0
	beq	00002076

l0000202E:
	loadw	0x90(r9,r8),r0
	cmpw	r0,r7
	bne	0000201A

l00002036:
	subw	r11,r10
	movw	$0,r1
	cmpw	r10,r1
	bne	00001F36

l00002040:
	br	00001FB8

l00002042:
	movd	(r3,r2),(r9,r8)
	bal	ra,fn00001BEC
	cmpw	$FFFF,r0
	bne	00001F6A

l0000204C:
	movw	$FFFF,r0
	br	00001FBA

l00002050:
	loadw	0x90(r9,r8),r7
	cmpw	$0,r7
	bne	00002020

l00002058:
	loadw	0x14(r9,r8),r7
	storw	r7,0x90(r9,r8)
	loadd	0x38(r9,r8),(r1,r0)
	stord	(r1,r0),0x88(r9,r8)
	stord	(r1,r0),4(r9,r8)
	movw	$0,r4
	loadd	(sp),(r3,r2)
	bal	ra,fn00004CD4
	cmpw	$FFFE,r0
	bne	0000202E

l00002076:
	movd	$E556,(r6,r5)
	movw	r0,r4
	movd	(r3,r2),(r9,r8)
	bal	ra,fn00000BEC
	movw	$FFFF,r0
	br	00001FBA

l00002086:
	bal	ra,fn00001DFA
	cmpw	$FFFF,r0
	bne	00001F22

l00002090:
	movw	$FFFF,r0
	br	00001FBA
00002094             00 00 9D 01 67 01 BF 60 FC FF B0 54     ....g..`...T
000020A0 1A 00 F0 61 2C 55 4D 55 20 A0 2F E0 02 56 0E 14 ...a,UMU ./..V..
000020B0 0C 9A 00 52 01 15 0C 9F 30 00 00 52 1E 13 7C 9A ...R....0..R..|.
000020C0 0C 9F 3C 00 72 5F 4F A0 24 57 5C 14 48 55 04 5B ..<.r_O.$W\.HU.[
000020D0 2C AC 04 52 0E 12 0C AF 38 00 44 5F 40 61 14 00 ,..R....8.D_@a..
000020E0 20 C0 07 3B 7A 5F 8A 57 B3 10 87 5B 8A 55 40 00  ..;z_.W...[.U@.
000020F0 00 00 FF FF 02 61 1A 01 D4 55 00 C0 2A BA 0C 9F .....a...U..*...
00002100 3C 00 70 33 0C DF 3C 00 0C 94 07 33 7C D4 14 00 <.p3..<....3|...
00002110 A8 C0 4F 60 08 56 0C 11 C2 55 FF C0 E1 FC 90 52 ..O`.V...U.....R
00002120 05 11 AD 61 4C 9F 3C 00 7C 9A 2C AC 04 52 14 1D ...aL.<.|.,..R..
00002130 2C EF 38 00 20 55 E2 1D 0C C3 30 00 4C 9F 2E 00 ,.8. U....0.L...
00002140 C2 55 FF C0 CB FD 90 52 1B 1B 02 54 2F E0 0F A0 .U.....R...T/...
00002150 4F 60 67 02 9D 03 C2 55 FF C0 95 FA 90 52 1C 1A O`g....U.....R..
00002160 E5 1F 00 52 10 18 24 01 DC EF 38 00 BD 54 38 00 ...R..$...8..T8.
00002170 CD 61 AF A0 9A 00 00 00 FE FF A6 13 A1 5B A8 55 .a...........[.U
00002180 1C DF 3C 00 0C 94 10 33 0C D4 07 52 07 13 0C 9F ..<....3...R....
00002190 20 00 00 52 0C 13 5C 9F 3C 00 05 52 0C 11 3C AF  ..R..\.<..R..<.
000021A0 38 00 B7 5A 00 40 B5 52 00 40 B2 10 75 5B 55 5F 8..Z.@.R.@..u[U_
000021B0 2C 97 00 C0 DE BB 00 52 6C 15 5C 9F 3C 00 05 3B ,......Rl.\.<..;
000021C0 5C DF 3C 00 00 5E 3C AF 38 00 03 61 3C EF 38 00 \.<..^<.8..a<.8.
000021D0 05 52 1A 1E 14 00 8A C0 0A 56 0A 1B 7C 9A 9A 00 .R.......V..|...
000021E0 00 00 FE FF BC 1C 91 5A 18 5B 09 5A 1C DF 3C 00 .......Z.[.Z..<.
000021F0 0C 94 10 33 0C D4 07 52 1B 1C C2 55 FF C0 F1 F9 ...3...R...U....
00002200 90 52 04 1A 0C 9F 20 00 00 52 16 1C 0C 9F 48 00 .R.... ..R....H.
00002210 07 5B 00 52 0F 10 04 5A D2 55 00 C0 BA 2A B0 52 .[.R...Z.U...*.R
00002220 FE FF 0F 14 0C 9F 48 00 70 53 05 1D 07 5B 00 52 ......H.pS...[.R
00002230 13 1F 0C AF 44 00 3C A2 30 57 AA 10 E3 13 00 5E ....D.<.0W.....^
00002240 3C A2 03 61 3C E2 0C AF 44 00 30 57 B7 12 14 00 <..a<...D.0W....
00002250 30 C0 B0 56 00 40 D4 10 B0 5A 00 40 01 5A 50 05 0..V.@...Z.@.ZP.
00002260 FF FF 14 00 05 B0 2C 97 00 C0 28 BB 00 52 78 1E ......,...(..Rx.
00002270 50 05 A8 E4 94 5A C2 55 FF C0 75 E9 00 54 0F E0 P....Z.U..u..T..
00002280 0F A0 4F 60 67 02 9D 03 C2 55 FF C0 71 FB 90 52 ..O`g....U..q..R
00002290 00 18 BB FE 7C 9A E0 18 D3 FE 7C 9F 48 00 07 52 ....|.....|.H..R
000022A0 1B 1B 7C 9A 7C DF 48 00 0C AF 1C 00 0C EF 44 00 ..|.|.H.......D.
000022B0 0C E2 04 5A D2 55 00 C0 1E 2A B0 52 FE FF 13 1B ...Z.U...*.R....
000022C0 50 05 56 E5 04 5B C2 55 FF C0 25 E9 01 54 1F E0 P.V..[.U..%..T..
000022D0 0F A0 4F 60 67 02 9D 03 1E 01 07 01 02 56 08 11 ..O`g........V..
000022E0 02 96 07 5A B0 52 B1 79 04 10 70 5B 07 02 1E 03 ...Z.R.y..p[....
000022F0 72 9F 32 00 07 52 1C 10 06 52 6E 10 66 5F 16 01 r.2..R...Rn.f_..
00002300 FF C0 97 FD 07 5B 4F 60 70 5B 07 02 1E 03 07 5A .....[O`p[.....Z
00002310 70 5B 07 02 1E 03 50 05 7E E5 B4 5A FD FF FF C0 p[....P.~..Z....
00002320 CF E8 70 5B 07 02 1E 03 00 00 9D 01 58 01 BF 60 ..p[........X..`
00002330 FC FF BC 54 18 00 FC 61 2F E0 4A 55 DC A0 CC A2 ...T...a/.JU....
00002340 0C 56 05 10 0C 96 B0 52 B1 79 06 10 08 54 80 55 .V.....R.y...T.U
00002350 4F 60 58 02 9D 03 0C 9F 32 00 00 52 18 1F 48 55 O`X.....2..R..HU
00002360 04 56 06 1F D2 55 00 C0 F2 AF 08 55 A4 55 02 55 .V...U.....U.U.U
00002370 00 C0 70 B1 D0 57 09 10 50 05 14 E5 B4 5A FE FF ..p..W..P....Z..
00002380 C2 55 FF C0 6B E8 E3 1E 08 56 02 1E 18 01 4F A2 .U..k....V....O.
00002390 C2 55 FF C0 05 FD A4 55 02 55 00 C0 46 B1 08 55 .U.....U.U..F..U
000023A0 4F 60 E6 1D 1E 01 27 01 BF 60 FC FF 28 55 47 5B O`....'..`..(UG[
000023B0 02 56 0D 14 02 96 B0 52 B1 79 19 14 02 9F 32 00 .V.....R.y....2.
000023C0 00 52 15 14 12 9F 30 00 01 52 19 13 68 9A 06 52 .R....0..R..h..R
000023D0 01 12 48 9F 3C 00 28 AC 04 52 0D 12 08 AF 38 00 ..H.<.(..R....8.
000023E0 44 5F 40 61 14 00 20 C0 06 53 B4 11 40 00 00 00 D_@a.. ..S..@...
000023F0 FF FF 20 61 70 F0 08 9F 3C 00 10 32 08 DF 3C 00 .. ap...<..2..<.
00002400 08 94 10 32 08 D4 B0 5A FF 00 70 23 4F 60 27 02 ...2...Z..p#O`'.
00002410 1E 03 7F F0 10 54 10 01 44 54 F4 61 82 55 FF C0 .....T..DT.a.U..
00002420 79 FC 4F 60 10 56 13 11 B0 5A FF 00 70 23 4F 60 y.O`.V...Z..p#O`
00002430 27 02 1E 03 28 EF 38 00 20 55 E3 1D 02 DF 30 00 '...(.8. U....0.
00002440 42 9F 2E 00 FF C0 C9 FA 90 52 11 1C 90 5A 4F 60 B........R...ZO`
00002450 27 02 1E 03 00 00 9D 01 67 01 BF 60 FC FF 2D 55 '.......g..`..-U
00002460 4A 55 02 56 02 15 02 96 B0 52 B1 79 1E 14 72 9F JU.V.....R.y..r.
00002470 32 00 07 52 1A 14 42 55 00 C0 FC B6 0F E0 00 56 2..R..BU.......V
00002480 0B 13 0D 9A 00 52 0C 13 0D 9F 30 00 00 52 10 18 .....R....0..R..
00002490 E4 01 7D 9A 0D 9F 3C 00 72 5F 4F A0 24 57 5A 13 ..}...<.r_O.$WZ.
000024A0 4C 55 04 5B 2D AC 04 52 00 18 8E 01 0D AF 38 00 LU.[-..R......8.
000024B0 44 5F 40 61 14 00 20 C0 07 3B 78 5F C8 57 B3 10 D_@a.. ..;x_.W..
000024C0 C7 5B C8 55 40 00 00 00 FF FF 02 61 18 01 A4 55 .[.U@......a...U
000024D0 00 C0 54 B6 0D 9F 3C 00 70 33 0D DF 3C 00 0D 94 ..T...<.p3..<...
000024E0 07 33 7D D4 14 00 8C C0 4F 60 0C 56 10 18 54 01 .3}.....O`.V..T.
000024F0 7F 90 07 52 0A 10 70 5B 4F 60 67 02 9D 03 D2 55 ...R..p[O`g....U
00002500 FF C0 ED F6 90 52 11 1C 97 5A 70 5B 4F 60 67 02 .....R...Zp[O`g.
00002510 9D 03 00 52 10 18 8A 01 AD EF 38 00 BC 54 38 00 ...R......8..T8.
00002520 DC 61 AF A0 9A 00 00 00 FE FF A6 13 A1 5B A8 55 .a...........[.U
00002530 1D DF 3C 00 0D 94 10 33 0D D4 07 52 07 13 0D 9F ..<....3...R....
00002540 20 00 00 52 0C 13 5D 9F 3C 00 05 52 0C 11 3D AF  ..R..].<..R..=.
00002550 38 00 B7 5A 00 40 B5 52 00 40 B2 10 75 5B 55 5F 8..Z.@.R.@..u[U_
00002560 2D 97 00 C0 2E B8 00 52 6C 15 5D 9F 3C 00 05 3B -......Rl.].<..;
00002570 5D DF 3C 00 00 5E 3D AF 38 00 03 61 3D EF 38 00 ].<..^=.8..a=.8.
00002580 05 52 1A 1E 14 00 8A C0 0A 56 03 1B 7D 9A 9A 00 .R.......V..}...
00002590 00 00 FE FF BC 1C 91 5A 18 5B 09 5A 1D DF 3C 00 .......Z.[.Z..<.
000025A0 0D 94 10 33 0D D4 07 52 1B 1C D2 55 FF C0 41 F6 ...3...R...U..A.
000025B0 90 52 0B 1A 0D 9F 20 00 00 52 16 1C 0D 9F 48 00 .R.... ..R....H.
000025C0 07 5B 00 52 0F 10 04 5A C2 55 00 C0 0A 27 B0 52 .[.R...Z.U...'.R
000025D0 FE FF 0D 15 0D 9F 48 00 70 53 05 1D 07 5B 00 52 ......H.pS...[.R
000025E0 13 1F 0D AF 44 00 3D A2 30 57 AA 10 EA 13 00 5E ....D.=.0W.....^
000025F0 3D A2 03 61 3D E2 0D AF 44 00 30 57 BE 12 14 00 =..a=...D.0W....
00002600 30 C0 B0 56 00 40 D4 10 B0 5A 00 40 01 5A 50 05 0..V.@...Z.@.ZP.
00002610 FF FF 14 00 05 B0 2D 97 00 C0 78 B7 00 52 78 1E ......-...x..Rx.
00002620 50 05 A8 E4 94 5A D2 55 FF C0 C5 E5 97 5A 70 5B P....Z.U.....Zp[
00002630 4F 60 67 02 9D 03 2D EF 38 00 20 55 E0 18 75 FE O`g...-.8. U..u.
00002640 D2 55 FF C0 B9 F7 90 52 00 18 C1 FE 8A 61 4D 9F .U.....R.....aM.
00002650 3C 00 7D 9A E0 18 51 FE 7D 9F 48 00 07 52 14 1B <.}...Q.}.H..R..
00002660 7D 9A 7D DF 48 00 0D AF 1C 00 0D EF 44 00 0D E2 }.}.H.......D...
00002670 EB 1A 0D C3 30 00 4D 9F 2E 00 D2 55 FF C0 91 F8 ....0.M....U....
00002680 90 52 10 18 11 FE 97 5A E0 18 83 FE 50 05 56 E5 .R.....Z....P.V.
00002690 04 5B D2 55 FF C0 59 E5 97 5A E0 18 5D FE D2 55 .[.U..Y..Z..]..U
000026A0 FF C0 5B F7 90 52 00 18 63 FE 7D 9A E0 18 6D FE ..[..R..c.}...m.
000026B0 9D 01 67 01 BF 60 F8 FF BC 54 1E 00 FC 61 28 55 ..g..`...T...a(U
000026C0 4A 55 CC A0 CF E2 0D 54 D2 57 00 18 92 01 02 96 JU.....T.W......
000026D0 B0 52 B1 79 10 18 88 01 02 9F 32 00 0F D0 00 52 .R.y......2....R
000026E0 10 18 7C 01 72 9A 07 52 02 16 08 9F 30 00 00 52 ..|.r..R....0..R
000026F0 16 14 48 9F 3C 00 08 AC 04 52 00 15 28 AF 38 00 ..H.<....R..(.8.
00002700 14 00 02 C0 4C 5F 2C 61 0C 61 97 32 72 5F C2 61 ....L_,a.a.2r_.a
00002710 02 82 0F A2 10 01 A4 55 C2 55 00 C0 36 AF 07 5B .......U.U..6..[
00002720 4F 60 00 52 00 14 A8 9A 0A 53 BC 13 90 5A A0 33 O`.R.....S...Z.3
00002730 00 5F 0C 61 0C B0 00 50 15 13 B8 9F 3C 00 7B 33 ._.a...P....<.{3
00002740 B8 DF 3C 00 08 94 70 33 08 D4 BA 53 AC 12 A8 DF ..<...p3...S....
00002750 3C 00 82 55 FF C0 A7 F6 90 52 03 14 AB 3B 28 AC <..U.....R...;(.
00002760 B0 5F 48 9A 44 5F 24 61 10 01 00 C0 BA B3 08 AC ._H.D_$a........
00002770 08 EF 38 00 B8 DF 3C 00 4F 60 E5 11 08 C3 30 00 ..8...<.O`....0.
00002780 48 9F 2E 00 82 55 FF C0 87 F7 90 52 0A 12 78 9A H....U.....R..x.
00002790 48 9F 3C 00 08 AC 04 52 12 1B 08 EF 38 00 02 54 H.<....R....8..T
000027A0 E2 1B 7F 90 70 5B 8F 60 67 02 9D 03 72 9B 72 5B ....p[.`g...r.r[
000027B0 72 33 22 5F 00 C0 FC B1 0C 55 08 EC D0 57 0A 10 r3"_.....U...W..
000027C0 08 9F 20 00 00 52 03 11 78 DA E0 19 C2 55 00 C0 .. ..R..x....U..
000027D0 CE B1 50 05 6C E4 B4 5A FC FF 82 55 FF C0 11 E4 ..P.l..Z...U....
000027E0 78 9F 32 00 70 5B 8F 60 67 02 9D 03 72 5F 00 C0 x.2.p[.`g...r_..
000027F0 C2 B1 08 EF 1C 00 00 56 0A 1E D8 EF 58 00 D8 EF .......V....X...
00002800 5C 00 D8 EF 60 00 48 9F 2A 00 BF 60 FE FF B0 5A \...`.H.*..`...Z
00002810 38 00 00 01 00 05 EC E4 10 01 08 9F 2C 00 00 01 8...........,...
00002820 85 5A 05 01 B6 5A 1F 00 B2 54 38 00 82 61 00 C0 .Z...Z...T8..a..
00002830 F8 39 CF 60 00 52 16 11 D8 EF 38 00 78 9B 08 9F .9.`.R....8.x...
00002840 20 00 78 DA 00 52 10 18 A5 FE 78 DF 48 00 08 AF  .x..R....x.H...
00002850 1C 00 08 EF 44 00 08 E2 E0 18 93 FE B7 5A FE FF ....D........Z..
00002860 E2 1A 28 AF 1C 00 00 C0 36 B1 28 AC 00 C0 30 B1 ..(.....6.(...0.
00002870 E1 1B 00 00 9D 01 67 01 BF 60 F4 FF BC 54 22 00 ......g..`...T".
00002880 FC 61 8C A0 0C A2 0F E2 8C 60 CF E4 08 56 00 18 .a.......`...V..
00002890 80 02 08 96 B0 52 B1 79 10 18 76 02 18 9F 32 00 .....R.y..v...2.
000028A0 1F D0 01 52 10 18 6A 02 08 9A 00 52 00 18 36 02 ...R..j....R..6.
000028B0 48 9F 3C 00 08 9F 30 00 00 52 1B 14 28 AC 04 52 H.<...0..R..(..R
000028C0 00 18 3E 01 08 AF 38 00 14 00 20 C0 4A 5F 0A 61 ..>...8... .J_.a
000028D0 2A 61 08 9A 90 32 00 5F A0 61 00 82 0F A4 10 01 *a...2._.a......
000028E0 4F A4 A2 55 00 C0 6C AD 07 5B 4F 60 00 52 00 18 O..U..l..[O`.R..
000028F0 22 01 C8 9A 0C 53 B0 18 18 01 C2 5B 92 32 22 5F "....S.....[.2"_
00002900 2A 61 0A B0 00 50 10 18 08 01 A8 9F 3C 00 7A 33 *a...P......<.z3
00002910 A8 DF 3C 00 08 94 70 33 08 D4 AC 53 AA 17 C8 DF ..<...p3...S....
00002920 3C 00 82 55 FF C0 D7 F4 90 52 00 18 36 01 C1 5B <..U.....R..6..[
00002930 1A 3B 28 AC A0 5F 48 9A 44 5F 24 61 10 01 00 C0 .;(.._H.D_$a....
00002940 E6 B1 08 AC 08 EF 38 00 A8 DF 3C 00 4F 60 E1 16 ......8...<.O`..
00002950 08 C3 30 00 B8 9F 2E 00 04 52 10 18 9A 01 28 AC ..0......R....(.
00002960 0B 52 0E 14 BC 54 38 00 8C 61 11 5A BD 5A 00 40 .R...T8..a.Z.Z.@
00002970 08 9A B0 53 D4 08 04 52 09 14 07 5B 00 52 66 14 ...S...R...[.Rf.
00002980 01 52 07 10 75 5F 04 5A 00 C0 BC B1 28 AC 08 9A .R..u_.Z....(...
00002990 78 DF 3C 00 28 EF 38 00 18 94 71 33 18 D4 00 52 x.<.(.8...q3...R
000029A0 00 18 FA 00 08 9F 20 00 00 52 01 16 58 9F 3C 00 ...... ..R..X.<.
000029B0 05 52 0C 11 38 AF 38 00 BA 5A 00 40 B5 52 00 40 .R..8.8..Z.@.R.@
000029C0 B2 10 A5 5B 55 5F 28 97 00 C0 C8 B3 00 52 63 14 ...[U_(......Rc.
000029D0 58 9F 3C 00 05 3B 58 DF 3C 00 00 5E 38 AF 38 00 X.<..;X.<..^8.8.
000029E0 03 61 38 EF 38 00 05 52 1A 1E 7B 3B 28 AC 1F 90 .a8.8..R..{;(...
000029F0 0B 52 1F 1B 48 9F 3C 00 04 52 10 18 CB FE 28 EF .R..H.<..R....(.
00002A00 38 00 00 54 04 5A E0 18 C7 FE B7 5B EA 1B 7F 90 8..T.Z.....[....
00002A10 70 5B CF 60 67 02 9D 03 08 AF 44 00 38 A2 03 57 p[.`g.....D.8..W
00002A20 4A 10 E8 14 00 5E 38 A2 03 61 38 E2 08 AF 44 00 J....^8..a8...D.
00002A30 30 57 BC 13 14 00 30 C0 B0 56 00 40 D3 10 D0 5B 0W....0..V.@...[
00002A40 01 5A 50 05 FF FF 14 00 05 B0 28 97 00 C0 44 B3 .ZP.......(...D.
00002A50 00 52 79 1E 50 05 A8 E4 94 5A 82 55 FF C0 91 E1 .Ry.P....Z.U....
00002A60 78 9F 32 00 70 5B CF 60 67 02 9D 03 08 9F 48 00 x.2.p[.`g.....H.
00002A70 0A 5B 00 52 02 1D 04 5A C2 55 00 C0 5A 22 B0 52 .[.R...Z.U..Z".R
00002A80 FE FF 07 12 08 9F 48 00 A0 53 13 1F 7B 3B 28 AC ......H..S..{;(.
00002A90 1F 90 0B 52 10 18 DD FE EE 1A 82 55 FF C0 51 F1 ...R.......U..Q.
00002AA0 90 52 11 18 78 9F 32 00 EE 1D A8 9F 48 00 0A 52 .R..x.2.....H..R
00002AB0 13 1E A8 9A A8 DF 48 00 08 AF 1C 00 08 EF 44 00 ......H.......D.
00002AC0 08 E2 04 5A C2 55 00 C0 0E 22 B0 52 FE FF 1B 1D ...Z.U...".R....
00002AD0 50 05 56 E5 04 5B 82 55 FF C0 15 E1 78 9F 32 00 P.V..[.U....x.2.
00002AE0 E2 1C 82 55 FF C0 09 F1 90 52 10 18 C7 FD 78 9F ...U.....R....x.
00002AF0 32 00 E9 1B 82 55 FF C0 05 F3 90 52 02 1B 28 AC 2....U.....R..(.
00002B00 0B 52 10 18 63 FE 48 9F 3C 00 E0 18 EF FE B7 5A .R..c.H.<......Z
00002B10 FE FF E0 18 FF FE 00 00 9D 01 67 01 BF 60 FC FF ..........g..`..
00002B20 28 55 4F D1 02 56 00 18 AA 01 02 96 B0 52 B1 79 (UO..V.......R.y
00002B30 10 18 A0 01 02 9F 32 00 0F D0 00 52 10 18 94 01 ......2....R....
00002B40 44 52 A0 18 8E 01 02 9F 30 00 00 52 03 15 0F 90 DR......0..R....
00002B50 02 DF 30 00 B2 9F 2E 00 02 9F 3C 00 00 52 13 15 ..0.......<..R..
00002B60 0B 52 08 14 BC 54 38 00 8C 61 11 5A BD 5A 00 40 .R...T8..a.Z.Z.@
00002B70 08 9A B0 53 D2 08 02 52 0D 14 07 5B 00 52 6A 14 ...S...R...[.Rj.
00002B80 28 AC 01 52 07 10 75 5F 04 5A 00 C0 BA AF 28 AC (..R..u_.Z....(.
00002B90 08 9A 78 DF 3C 00 28 EF 38 00 18 94 71 33 18 D4 ..x.<.(.8...q3..
00002BA0 00 52 07 17 08 9F 20 00 00 52 0D 15 58 9F 3C 00 .R.... ..R..X.<.
00002BB0 05 52 0C 11 38 AF 38 00 BA 5A 00 40 B5 52 00 40 .R..8.8..Z.@.R.@
00002BC0 B2 10 A5 5B 55 5F 28 97 00 C0 C8 B1 00 52 62 14 ...[U_(......Rb.
00002BD0 58 9F 3C 00 05 3B 58 DF 3C 00 00 5E 38 AF 38 00 X.<..;X.<..^8.8.
00002BE0 03 61 38 EF 38 00 05 52 1A 1E 7B 3B 1F 90 0B 52 .a8.8..R..{;...R
00002BF0 10 1C 4F 91 82 55 FF C0 BD F0 08 9F 32 00 4F 60 ..O..U......2.O`
00002C00 67 02 9D 03 FF C0 F7 F1 90 52 1B 1A 08 9F 32 00 g........R....2.
00002C10 E7 1F B7 5B E6 1B 08 AF 44 00 38 A2 30 57 AA 10 ...[....D.8.0W..
00002C20 E2 14 00 5E 38 A2 03 61 38 E2 08 AF 44 00 30 57 ...^8..a8...D.0W
00002C30 B6 13 14 00 30 C0 B0 56 00 40 D3 10 D0 5B 01 5A ....0..V.@...[.Z
00002C40 50 05 FF FF 14 00 05 B0 28 97 00 C0 46 B1 00 52 P.......(...F..R
00002C50 79 1E 50 05 A8 E4 94 5A 82 55 FF C0 93 DF 08 9F y.P....Z.U......
00002C60 32 00 EE 1C 08 9F 48 00 0A 5B 00 52 05 1D 04 5A 2.....H..[.R...Z
00002C70 C2 55 00 C0 62 20 B0 52 FE FF 04 12 08 9F 48 00 .U..b .R......H.
00002C80 A0 53 13 1F 7B 3B 1F 90 0B 52 10 18 E7 FE E2 1B .S..{;...R......
00002C90 82 55 FF C0 5B EF 90 52 16 18 E0 1B A8 9F 48 00 .U..[..R......H.
00002CA0 0A 52 16 1E A8 9A A8 DF 48 00 08 AF 1C 00 08 EF .R......H.......
00002CB0 44 00 08 E2 04 5A C2 55 00 C0 1C 20 B0 52 FE FF D....Z.U... .R..
00002CC0 1E 1D 50 05 56 E5 04 5B 82 55 FF C0 23 DF E6 19 ..P.V..[.U..#...
00002CD0 B0 5A FE FF 4F 60 67 02 9D 03 00 00 1E 01 47 01 .Z..O`g.......G.
00002CE0 28 55 4A 5B 5B 5B 02 56 01 14 02 96 B0 52 B1 79 (UJ[[[.V.....R.y
00002CF0 1D 13 72 9F 32 00 07 52 19 13 02 9F 2A 00 40 53 ..r.2..R....*.@S
00002D00 0E 12 08 9F 30 00 00 52 1C 11 08 9A 00 52 02 11 ....0..R.....R..
00002D10 08 9F 3C 00 00 52 07 10 54 5A 82 55 FF C0 97 EF ..<..R..TZ.U....
00002D20 90 52 08 11 B5 5B A4 5B B2 54 38 00 82 61 00 C0 .R...[.[.T8..a..
00002D30 46 32 A8 DF 2A 00 B8 DF 2C 00 70 5B 47 02 1E 03 F2..*...,.p[G...
00002D40 08 C3 30 00 48 9F 2E 00 82 55 FF C0 C3 F1 90 52 ..0.H....U.....R
00002D50 1D 1D 78 9F 32 00 70 5B 47 02 1E 03 02 9F 2C 00 ..x.2.p[G.....,.
00002D60 50 53 10 1D 70 5B 47 02 1E 03 B7 5A FE FF 70 5B PS..p[G....Z..p[
00002D70 47 02 1E 03 00 00                               G.....          

;; fn00002D76: 00002D76
;;   Called from:
;;     000003D6 (in fn03B0)
fn00002D76 proc
	push	$2,r13,ra
	push	$7,r7
	addd	$-4,sp
	movd	(r9,r8),(r3,r2)
	cmpd	$0,(r3,r2)
	beq	00002F3A

l00002D86:
	loadw	0xC(r3,r2),r0
	cmpw	$79B1,r0
	bne	00002F3A

l00002D90:
	loadw	0x60(r3,r2),r0
	cmpw	$0,r0
	bne	00002ED2

l00002D9A:
	storw	$0,(sp)
	movd	$38,(r11,r10)
	addd	(r9,r8),(r11,r10)
	loadw	0x14(r9,r8),r0
	cmpw	$0,r0
	beq	00002EF8

l00002DAA:
	loadw	0x40(r9,r8),r0
	cmpw	$0,r0
	bne	00002E92

l00002DB2:
	loadw	0x90(r9,r8),r7
	movw	$4000,r13
	movw	$0,r12
	cmpw	$0,r7
	seq	r1
	cmpw	$0,r1
	bne	00002DF0

l00002DC4:
	cmpw	$1,r0
	seq	r0
	cmpw	$0,r0
	bne	00002DF0

l00002DCC:
	movw	$4,r4
	movd	(r3,r2),(r11,r10)
	bal	ra,fn00004CD4
	cmpw	$FFFE,r0
	beq	00002F24

l00002DDC:
	loadw	0x90(r9,r8),r1
	cmpw	r1,r7
	beq	00002F32

l00002DE6:
	movw	r1,r7
	cmpw	$0,r7
	seq	r1
	cmpw	$0,r1
	beq	00002DC4

l00002DF0:
	loadd	0x88(r9,r8),(r3,r2)
	loadd	4(r9,r8),(r1,r0)
	cmpd	(r3,r2),(r1,r0)
	blo	00002E10

l00002DFA:
	br	00002F0A

l00002DFE:
	movxw	r0,(r1,r0)
	loadd	4(r9,r8),(r3,r2)
	addd	(r3,r2),(r1,r0)
	stord	(r1,r0),4(r9,r8)
	loadd	0x88(r9,r8),(r3,r2)
	cmpd	(r3,r2),(r1,r0)
	bhs	00002F06

l00002E10:
	subd	(r3,r2),(r1,r0)
	cmpd	$4000,(r3,r2)
	bge	00002E1E

l00002E1A:
	movw	r13,r2
	movw	r12,r3

l00002E1E:
	movd	$FFFF,(r6,r5)
	andd	(r3,r2),(r6,r5)
	loadw	0xE(r9,r8),r2
	movd	(r4,r3),(r1,r0)
	bal	ra,fn0000DD90
	cmpw	$0,r0
	ble	00002DFE

l00002E32:
	movd	$E4A8,(r6,r5)
	movw	$FFFF,r4
	movd	(r3,r2),(r9,r8)
	bal	ra,fn00000BEC

l00002E3E:
	loadw	0x64(r9,r8),r0
	storw	r0,(sp)

l00002E44:
	loadw	0x14(r9,r8),r0
	cmpw	$0,r0
	beq	00002E66

l00002E4A:
	loadw	0x40(r9,r8),r0
	cmpw	$0,r0
	bne	00002E60

l00002E52:
	movd	(r3,r2),(r11,r10)
	bal	ra,fn00006134
	loadd	0x38(r9,r8),(r3,r2)
	bal	ra,fn0000D99C

l00002E60:
	loadd	0x18(r9,r8),(r3,r2)
	bal	ra,fn0000D99C

l00002E66:
	movd	$0,(r6,r5)
	movw	$0,r4
	movd	(r3,r2),(r9,r8)
	bal	ra,fn00000BEC
	loadd	0x10(r9,r8),(r3,r2)
	bal	ra,fn0000D99C
	loadw	0xE(r9,r8),r2
	bal	ra,fn0000DDF0
	movw	r0,r7
	cmpw	$FFFF,r0
	beq	00002E84

l00002E82:
	loadw	(sp),r7

l00002E84:
	movd	(r3,r2),(r9,r8)
	bal	ra,fn0000D99C

l00002E8A:
	movw	r7,r0
	addd	$4,sp
	pop	$7,r7
	popret	$2,r13,ra

l00002E92:
	loadw	0x78(r9,r8),r5
	cmpw	$0,r5
	beq	00002F40

l00002E9A:
	loadd	0x70(r9,r8),(r4,r3)
	movw	$4000,r7

l00002EA2:
	cmpw	$4000,r5
	bhs	00002EAA

l00002EA8:
	movw	r7,r5

l00002EAA:
	movzw	r5,(r6,r5)
	loadw	0xE(r9,r8),r2
	bal	ra,fn0000DD90
	cmpw	$0,r0
	bgt	00002E32

l00002EB6:
	loadw	0x78(r9,r8),r5
	subw	r0,r5
	storw	r5,0x78(r9,r8)
	movxw	r0,(r1,r0)
	loadd	0x70(r9,r8),(r4,r3)
	addd	(r1,r0),(r4,r3)
	stord	(r4,r3),0x70(r9,r8)
	cmpw	$0,r5
	bne	00002EA2

l00002ED0:
	br	00002E44

l00002ED2:
	storw	$0,0x30(r3,r2)
	loadw	0x5C(r3,r2),r4
	bal	ra,fn00001F0C
	cmpw	$FFFF,r0
	bne	00002D9A

l00002EE4:
	loadw	0x64(r9,r8),r0
	storw	r0,(sp)
	movd	$38,(r11,r10)
	addd	(r9,r8),(r11,r10)
	loadw	0x14(r9,r8),r0
	cmpw	$0,r0
	bne	00002DAA

l00002EF8:
	movd	(r3,r2),(r9,r8)
	bal	ra,fn00001BEC
	cmpw	$FFFF,r0
	bne	00002DAA

l00002F04:
	br	00002E3E

l00002F06:
	loadw	0x90(r9,r8),r7

l00002F0A:
	cmpw	$0,r7
	bne	00002DCC

l00002F10:
	loadw	0x14(r9,r8),r7
	storw	r7,0x90(r9,r8)
	loadd	0x38(r9,r8),(r1,r0)
	stord	(r1,r0),0x88(r9,r8)
	stord	(r1,r0),4(r9,r8)
	br	00002DCC

l00002F24:
	movd	$E556,(r6,r5)
	movw	r0,r4
	movd	(r3,r2),(r9,r8)
	bal	ra,fn00000BEC
	br	00002E3E

l00002F32:
	movd	(r3,r2),(r11,r10)
	bal	ra,fn00004794
	br	00002E44

l00002F3A:
	movw	$FFFE,r7
	br	00002E8A

l00002F40:
	loadw	0x14(r9,r8),r0
	cmpw	$0,r0
	beq	00002E66

l00002F46:
	br	00002E60
00002F48                         9D 01 67 01 BF 60 E8 FF         ..g..`..
00002F50 2A 55 12 9F 5E 00 D2 AF 30 00 72 9F 56 00 72 5F *U..^...0.r.V.r_
00002F60 D5 55 25 61 5F E0 9A 9F 5C 00 90 5B 6A 9F 68 00 .U%a_...\..[j.h.
00002F70 6F D5 6A 9F 28 00 B8 5A FA FE 68 33 05 5A 87 53 o.j.(..Z..h3.Z.S
00002F80 B5 10 B5 5A 06 01 75 33 65 3B 7A AF 38 00 6A 9F ...Z..u3e;z.8.j.
00002F90 2C 00 6F D4 B2 60 02 01 DC 55 2C 61 CF E6 92 5E ,.o..`...U,a...^
00002FA0 CF A0 C2 61 9E 54 2E 61 EE B0 EF F4 62 B0 2A 9F ...a.T.a....b.*.
00002FB0 66 00 29 53 42 10 E1 49 2A 9F 5A 00 2F D3 3F 95 f.)SB..I*.Z./.?.
00002FC0 32 53 52 10 2F D5 6C 59 06 5B 5E 5B 15 5B AF E8 2SR./.lY.[^[.[..
00002FD0 BF 94 E4 10 95 32 05 52 0D 11 40 5F D0 61 62 5E .....2.R..@_.ab^
00002FE0 02 61 92 B0 C9 51 1F 10 92 60 22 B0 9F B4 92 51 .a...Q...`"....Q
00002FF0 1A 10 30 B0 9F A0 29 B0 23 51 15 10 30 B1 29 B1 ..0...).#Q..0.).
00003000 23 51 01 11 B4 23 40 5F 00 61 70 61 40 90 4E 53 #Q...#@_.apa@.NS
00003010 42 1E 60 5B 9F 93 90 53 B2 10 90 5B BF 60 18 00 B.`[...S...[.`..
00003020 67 02 9D 03 92 55 22 60 20 60 BF D4 AF A6 4F DA g....U"` `....O.
00003030 E4 12 42 B2 90 B2 94 51 1F 13 42 B3 90 B3 94 51 ..B....Q..B....Q
00003040 1F 13 42 B4 90 B4 94 51 1F 13 42 B5 90 B5 94 51 ..B....Q..B....Q
00003050 1F 13 42 B6 90 B6 94 51 1F 13 42 B7 90 B7 94 51 ..B....Q..B....Q
00003060 1F 13 82 60 80 60 42 B0 90 B0 94 51 04 08 2A 57 ...`.`B....Q..*W
00003070 A9 08 49 21 09 50 08 13 42 B1 90 B1 94 51 0A 1D ..I!.P..B....Q..
00003080 BF 94 4F 9A 12 60 0F A6 14 00 20 C0 B9 5A 02 01 ..O..`.... ..Z..
00003090 09 3B 96 53 78 1B 0F A8 40 DF 58 00 1F 95 91 53 .;.Sx...@.X....S
000030A0 D6 12 92 5E CF A0 C2 61 90 54 20 61 60 B0 6F F4 ...^...a.T a`.o.
000030B0 C2 B0 96 5B E8 1A BF 94 4F 9A 22 60 E5 1E BF 94 ...[....O."`....
000030C0 4F 9A 32 60 E1 1E BF 94 4F 9A 42 60 ED 1D BF 94 O.2`....O.B`....
000030D0 4F 9A 52 60 E9 1D BF 94 4F 9A 62 60 E5 1D BF 94 O.R`....O.b`....
000030E0 4F 9A 72 60 E1 1D BF 94 4F 9A EE 1C 90 5B E3 19 O.r`....O....[..
000030F0 00 00                                           ..              

;; fn000030F2: 000030F2
;;   Called from:
;;     00005756 (in fn00004CD4)
;;     00005A52 (in fn00004CD4)
fn000030F2 proc
	push	$2,r13,ra
	push	$7,r7
	addd	$-12,sp
	movd	r13,(r3,r2)
	loadw	0x50(r3,r2),r7
	storw	r7,2(sp)
	loadw	0xB4(r3,r2),r11
	movw	r7,r0
	addw	$FEFA,r7
	storw	r7,4(sp)
	movzw	r0,(r2,r1)
	stord	(r2,r1),8(sp)
	loadw	0xAC(r13),r3
	loadw	0x68(r13),r10
	subw	r11,r10
	subw	r3,r10
	cmpw	$0,r10
	bne	00003182

l00003122:
	orw	r3,r11
	cmpw	$0,r11
	bne	0000312A

l00003128:
	loadw	2(sp),r10

l0000312A:
	loadw	4(sp),r7
	addw	r7,r0
	cmpw	r3,r0
	bls	00003192

l00003132:
	loadd	(r13),(r9,r8)
	loadw	4(r9,r8),r7
	cmpw	$0,r7
	beq	00003240

l0000313C:
	loadw	0xB4(r13),r11
	cmpw	r7,r10
	bhs	00003310

l00003146:
	cmpw	$0,r10
	bne	000033F0

l0000314C:
	addw	r10,r11
	storw	r11,0xB4(r13)
	loadw	0x240C(r13),r1
	movw	r11,r0
	addw	r1,r0
	cmpw	$2,r0
	blo	00003286

l00003160:
	cmpw	$105,r11
	blo	00003240

l00003166:
	loadd	(r13),(r1,r0)
	loadw	4(r1,r0),r0
	cmpw	$0,r0
	beq	00003240

l0000316E:
	loadw	0x50(r13),r0
	loadw	0xAC(r13),r3
	loadw	0x68(r13),r10
	subw	r11,r10
	subw	r3,r10
	cmpw	$0,r10
	beq	00003122

l00003182:
	cmpw	$FFFF,r10
	bne	0000312A

l00003186:
	movw	$FFFE,r10
	loadw	4(sp),r7
	addw	r7,r0
	cmpw	r3,r0
	bhi	00003132

l00003192:
	loadd	0x60(r13),(r3,r2)
	loadw	2(sp),r0
	subw	r10,r0
	movzw	r0,(r1,r0)
	loadd	8(sp),(r5,r4)
	addd	(r3,r2),(r5,r4)
	push	$2,r0
	bal	ra,fn0000DB24
	loadw	0xB0(r13),r0
	loadw	6(sp),r1
	subw	r1,r0
	storw	r0,0xB0(r13)
	loadw	0xAC(r13),r3
	subw	r1,r3
	storw	r3,0xAC(r13)
	loadd	0x98(r13),(r1,r0)
	loadd	0xC(sp),(r5,r4)
	subd	(r1,r0),(r5,r4)
	stord	(r1,r0),0x98(r13)
	loadw	0x50(r13),r2
	loadw	0x84(r13),r4
	movzw	r4,(r1,r0)
	addd	(r1,r0),(r1,r0)
	loadd	0x78(r13),(r7,r6)
	addd	(r7,r6),(r1,r0)
	addw	$FFFF,r4
	movzw	r4,(r5,r4)
	addd	$1,(r5,r4)
	addd	(r5,r4),(r5,r4)
	movd	(r7,r6),(r1,r0)
	subd	(r7,r6),(r5,r4)
	movd	(r5,r4),(r7,r6)
	addd	$4,sp

l000031EE:
	addd	$-2,(r1,r0)
	loadw	(r1,r0),r6
	cmpw	r2,r6
	blo	00003362

l000031FA:
	subw	r2,r6
	storw	r6,(r1,r0)
	cmpd	(r5,r4),(r1,r0)
	bne	000031EE

l00003202:
	movzw	r2,(r1,r0)
	addd	(r1,r0),(r1,r0)
	loadd	0x70(r13),(r5,r4)
	addd	(r5,r4),(r1,r0)
	movw	$FFFF,r4
	addw	r2,r4
	movzw	r4,(r5,r4)
	addd	$1,(r5,r4)
	addd	(r5,r4),(r5,r4)
	movd	(r7,r6),(r1,r0)
	subd	(r7,r6),(r5,r4)
	movd	(r5,r4),(r7,r6)

l0000321E:
	addd	$-2,(r1,r0)
	loadw	(r1,r0),r6
	cmpw	r2,r6
	blo	00003352

l0000322A:
	subw	r2,r6
	storw	r6,(r1,r0)
	cmpd	(r5,r4),(r1,r0)
	bne	0000321E

l00003232:
	loadw	2(sp),r7
	addw	r7,r10

l00003236:
	loadd	(r13),(r9,r8)
	loadw	4(r9,r8),r7
	cmpw	$0,r7
	bne	0000313C

l00003240:
	loadd	0x2418(r13),(r3,r2)
	loadd	0x68(r13),(r11,r10)
	cmpd	(r3,r2),(r11,r10)
	bls	00003280

l0000324C:
	loadw	0xAC(r13),r8
	movzw	r8,(r9,r8)
	loadw	0xB4(r13),r0
	movzw	r0,(r1,r0)
	addd	(r1,r0),(r9,r8)
	cmpd	(r3,r2),(r9,r8)
	bls	00003392

l00003260:
	subd	(r11,r10),(r9,r8)
	cmpd	$102,(r11,r10)
	blo	000033D4

l0000326C:
	loadd	0x60(r13),(r3,r2)
	addd	(r9,r8),(r3,r2)
	movd	(r6,r5),(r11,r10)
	movw	$0,r4
	bal	ra,fn0000DB44
	addd	(r11,r10),(r9,r8)
	stord	(r9,r8),0x2418(r13)

l00003280:
	addd	$12,sp
	pop	$7,r7
	popret	$2,r13,ra

l00003286:
	loadw	0xAC(r13),r8
	subw	r1,r8
	loadd	0x60(r13),r12
	movzw	r8,(r3,r2)
	addd	r12,(r3,r2)
	loadb	(r3,r2),r4
	movzb	r4,(r5,r4)
	storw	r4,0x80(r13)
	loadw	0x90(r13),r10
	loadw	0x8C(r13),r0
	storw	r0,(sp)
	movw	$1,r2
	addw	r8,r2
	movzw	r2,(r3,r2)
	addd	r12,(r3,r2)
	loadb	(r3,r2),r0
	movzb	r0,(r1,r0)
	ashuw	r10,r4
	xorw	r0,r0
	loadw	(sp),r2
	andw	r2,r0
	storw	r0,0x80(r13)

l000032BE:
	cmpw	$0,r1
	beq	00003160

l000032C4:
	movw	$2,r2
	addw	r8,r2
	movzw	r2,(r3,r2)
	addd	r12,(r3,r2)
	loadb	(r3,r2),r2
	movzb	r2,(r3,r2)
	ashuw	r10,r0
	xorw	r0,r0
	loadw	(sp),r4
	andw	r4,r0
	storw	r0,0x80(r13)
	movzw	r0,(r5,r4)
	addd	(r5,r4),(r5,r4)
	loadd	0x78(r13),(r3,r2)
	addd	(r3,r2),(r5,r4)
	loadw	(r5,r4),r9
	loadw	0x58(r13),r2
	andw	r8,r2
	movzw	r2,(r3,r2)
	loadd	0x70(r13),(r7,r6)
	addd	(r3,r2),(r3,r2)
	addd	(r7,r6),(r3,r2)
	storw	r9,(r3,r2)
	storw	r8,(r5,r4)
	addw	$1,r8
	addw	$FFFF,r1
	storw	r1,0x240C(r13)
	movw	r11,r2
	addw	r1,r2
	cmpw	$2,r2
	blo	000032BE

l0000330C:
	br	00003160

l00003310:
	movw	$0,r2

l00003312:
	movzw	r3,(r1,r0)
	movzw	r11,(r11,r10)
	addd	(r11,r10),(r1,r0)
	loadd	0x60(r13),(r11,r10)
	addd	(r1,r0),(r11,r10)
	storw	r2,4(r9,r8)
	movzw	r7,r12
	loadd	(r9,r8),(r5,r4)
	push	$2,r12
	movd	(r3,r2),(r11,r10)
	bal	ra,fn0000DB24
	loadd	0x38(r9,r8),(r1,r0)
	loadw	0x18(r1,r0),r0
	addd	$4,sp
	cmpw	$1,r0
	beq	0000336E

l00003338:
	cmpw	$2,r0
	beq	00003380

l0000333C:
	loadd	(r9,r8),(r1,r0)
	addd	r12,(r1,r0)
	stord	(r1,r0),(r9,r8)
	loadd	8(r9,r8),(r1,r0)
	addd	(r1,r0),r12
	stord	r12,8(r9,r8)
	loadw	0xB4(r13),r11
	movw	r7,r10
	br	0000314C

l00003352:
	storw	$0,(r1,r0)
	cmpd	(r5,r4),(r1,r0)
	bne	0000321E

l0000335A:
	loadw	2(sp),r7
	addw	r7,r10
	br	00003236

l00003362:
	storw	$0,(r1,r0)
	cmpd	(r5,r4),(r1,r0)
	bne	000031EE

l0000336A:
	br	00003202

l0000336E:
	loadd	0x60(r9,r8),(r3,r2)
	movw	r7,r6
	movd	(r5,r4),(r11,r10)
	bal	ra,fn0000C0EE
	stord	(r1,r0),0x60(r9,r8)
	br	0000333C

l00003380:
	loadd	0x60(r9,r8),(r3,r2)
	movw	r7,r6
	movd	(r5,r4),(r11,r10)
	bal	ra,fn0000CAF8
	stord	(r1,r0),0x60(r9,r8)
	br	0000333C

l00003392:
	movd	$102,(r1,r0)
	addd	(r9,r8),(r1,r0)
	cmpd	(r3,r2),(r1,r0)
	bls	00003280

l0000339E:
	subd	(r9,r8),(r3,r2)
	addd	$258,(r9,r8)
	subd	(r11,r10),(r3,r2)
	cmpd	(r11,r10),(r9,r8)
	bhs	000033B0

l000033AE:
	movd	(r11,r10),(r9,r8)

l000033B0:
	movd	$FFFF,(r6,r5)
	andd	(r11,r10),(r6,r5)
	loadd	0x60(r13),(r1,r0)
	addd	(r1,r0),(r3,r2)
	movw	$0,r4
	bal	ra,fn0000DB44
	loadd	0x2418(r13),(r1,r0)
	addd	(r1,r0),(r11,r10)
	stord	(r11,r10),0x2418(r13)
	addd	$12,sp
	pop	$7,r7
	popret	$2,r13,ra

l000033D4:
	movd	$102,(r11,r10)
	loadd	0x60(r13),(r3,r2)
	addd	(r9,r8),(r3,r2)
	movd	(r6,r5),(r11,r10)
	movw	$0,r4
	bal	ra,fn0000DB44
	addd	(r11,r10),(r9,r8)
	stord	(r9,r8),0x2418(r13)
	br	00003280

l000033F0:
	movw	r7,r2
	subw	r10,r2
	movw	r10,r7
	br	00003312

;; fn000033F8: 000033F8
;;   Called from:
;;     000055CE (in fn00004CD4)
fn000033F8 proc
	push	$2,r13,ra
	push	$7,r7
	addd	$-16,sp
	movd	r12,(r3,r2)
	storw	r4,8(sp)
	loadd	0xC(r3,r2),(r1,r0)
	loadw	0x50(r3,r2),r2
	movzw	r2,(r3,r2)
	addd	$-5,(r1,r0)
	cmpd	(r1,r0),(r3,r2)
	bhs	00003416

l00003414:
	movd	(r1,r0),(r3,r2)

l00003416:
	storw	r0,0xA(sp)
	loadd	(r12),r13
	loadw	4(r13),r7
	storw	r7,0xC(sp)
	movw	r7,r10

l00003420:
	loadw	0x2414(r12),r0
	addw	$2A,r0
	ashuw	$-13,r0
	loadw	0x10(r13),r7
	cmpw	r7,r0
	bhi	00003664

l00003432:
	subw	r0,r7
	loadw	0xAC(r12),r8
	loadw	0x98(r12),r0
	subw	r0,r8
	movzw	r8,(r1,r0)
	movzw	r10,(r3,r2)
	addd	(r3,r2),(r1,r0)
	cmpd	$FFFE,(r1,r0)
	blo	00003456

l0000344C:
	movw	r8,r0
	addw	r10,r0
	cmpw	r7,r0
	bhs	00003456

l00003454:
	movw	r0,r7

l00003456:
	cmpw	r8,r7
	bhs	0000345C

l0000345A:
	movw	r7,r8

l0000345C:
	loadw	0xA(sp),r0
	cmpw	r0,r7
	bhs	000035F0

l00003464:
	cmpw	$0,r7
	seq	r1
	loadw	8(sp),r2
	cmpw	$4,r2
	sne	r0
	andb	r1,r0
	cmpb	$0,r0
	bne	00003664

l00003476:
	cmpw	$0,r2
	seq	r0
	cmpw	$0,r0
	bne	00003664

l00003480:
	movw	r7,r0
	subw	r8,r0
	cmpw	r0,r10
	bne	00003664

l0000348A:
	cmpw	$4,r2
	seq	r1
	storw	r1,4(sp)

l00003490:
	movd	$0,(r1,r0)
	push	$2,r0
	loadw	8(sp),r6
	movd	(r5,r4),(r1,r0)
	movd	(r3,r2),r12
	bal	ra,fn0000AF94
	loadd	8(r12),(r1,r0)
	loadd	0x14(r12),(r3,r2)
	addd	(r3,r2),(r1,r0)
	addd	$-4,(r1,r0)
	storb	r7,(r1,r0)
	loadd	8(r12),(r1,r0)
	loadd	0x14(r12),(r3,r2)
	addd	(r3,r2),(r1,r0)
	addd	$-3,(r1,r0)
	movw	r7,r2
	lshw	$-8,r2
	storb	r2,(r1,r0)
	loadd	8(r12),(r1,r0)
	loadd	0x14(r12),(r3,r2)
	addd	(r3,r2),(r1,r0)
	addd	$-2,(r1,r0)
	movb	r7,r2
	xorb	$FFFF,r2
	storb	r2,(r1,r0)
	loadd	8(r12),(r1,r0)
	loadd	0x14(r12),(r3,r2)
	addd	(r3,r2),(r1,r0)
	addd	$-1,(r1,r0)
	movw	r7,r2
	xorw	$FFFF,r2
	lshw	$-8,r2
	storb	r2,(r1,r0)
	loadd	(r12),(r11,r10)
	loadd	0x38(r11,r10),r13
	movd	(r3,r2),r13
	bal	ra,fn0000B09C
	loadw	0x14(r13),r0
	loadw	0x10(r11,r10),r9
	addd	$4,sp
	cmpw	r9,r0
	bhs	000034F2

l000034F0:
	movw	r0,r9

l000034F2:
	cmpw	$0,r9
	beq	00003532

l000034F6:
	movzw	r9,(r2,r1)
	stord	(r2,r1),(sp)
	loadd	0xC(r11,r10),(r3,r2)
	loadd	0x10(r13),(r5,r4)
	loadd	(sp),(r1,r0)
	push	$2,r0
	bal	ra,fn0000DB24
	loadd	0xC(r11,r10),(r1,r0)
	loadd	4(sp),(r3,r2)
	addd	(r3,r2),(r1,r0)
	stord	(r1,r0),0xC(r11,r10)
	loadd	0x10(r13),(r1,r0)
	addd	(r3,r2),(r1,r0)
	stord	(r1,r0),0x10(r13)
	loadd	0x14(r11,r10),(r1,r0)
	addd	(r3,r2),(r1,r0)
	stord	(r1,r0),0x14(r11,r10)
	loadw	0x10(r11,r10),r0
	subw	r9,r0
	storw	r0,0x10(r11,r10)
	loadd	0x14(r13),(r1,r0)
	subd	(r1,r0),(r3,r2)
	stord	(r1,r0),0x14(r13)
	addd	$4,sp
	cmpd	$0,(r1,r0)
	bne	00003532

l0000352E:
	loadd	8(r13),(r1,r0)
	stord	(r1,r0),0x10(r13)

l00003532:
	loadd	(r12),r13
	cmpw	$0,r8
	beq	0000356E

l00003538:
	movzw	r8,(r11,r10)
	loadd	0xC(r13),(r3,r2)
	loadd	0x60(r12),(r5,r4)
	loadd	0x98(r12),(r1,r0)
	addd	(r1,r0),(r5,r4)
	push	$2,r10
	bal	ra,fn0000DB24
	loadd	(r12),r13
	loadd	0xC(r13),(r1,r0)
	addd	(r11,r10),(r1,r0)
	stord	(r1,r0),0xC(r13)
	loadw	0x10(r13),r0
	subw	r8,r0
	storw	r0,0x10(r13)
	loadd	0x14(r13),(r1,r0)
	addd	(r11,r10),(r1,r0)
	stord	(r1,r0),0x14(r13)
	loadd	0x98(r12),(r1,r0)
	addd	(r1,r0),(r11,r10)
	stord	(r11,r10),0x98(r12)
	subw	r8,r7
	addd	$4,sp

l0000356E:
	loadw	4(r13),r10
	cmpw	$0,r7
	bne	0000360A

l00003574:
	loadw	4(sp),r7
	cmpw	$0,r7
	beq	00003420

l0000357C:
	loadw	0xC(sp),r7
	subw	r10,r7
	movw	$1,r9
	cmpw	$0,r7
	beq	000035E6

l00003586:
	loadw	0x50(r12),r0
	loadd	0x60(r12),(r3,r2)
	cmpw	r0,r7
	bhs	0000383C

l00003594:
	loadw	0xAC(r12),r1
	movzw	r1,ra
	movzw	r7,(r11,r10)
	loadd	0x68(r12),(r5,r4)
	subd	(r5,r4),ra
	cmpd	(r5,r4),(r11,r10)
	bhs	000038B2

l000035AA:
	addd	ra,(r3,r2)
	loadd	(r13),(r5,r4)
	subd	(r5,r4),(r11,r10)
	push	$2,r10
	bal	ra,fn0000DB24
	loadw	0xAC(r12),r8
	addw	r7,r8
	storw	r8,0xAC(r12)
	loadw	0x50(r12),r0
	addd	$4,sp

l000035C8:
	movzw	r8,(r3,r2)
	stord	(r3,r2),0x98(r12)
	loadw	0x240C(r12),r1
	subw	r1,r0
	cmpw	r0,r7
	bhs	000035DA

l000035D8:
	movw	r7,r0

l000035DA:
	addw	r1,r0
	storw	r0,0x240C(r12)
	cmpw	$0,r9
	beq	00003864

l000035E6:
	movw	$3,r0

l000035E8:
	addd	$16,sp
	pop	$7,r7
	popret	$2,r13,ra

l000035F0:
	storw	$0,4(sp)
	loadw	8(sp),r3
	cmpw	$4,r3
	bne	00003490

l000035FC:
	movw	r7,r0
	subw	r8,r0
	cmpw	r0,r10
	seq	r6
	storw	r6,4(sp)
	br	00003490

l0000360A:
	loadd	0xC(r13),(r9,r8)
	cmpw	r7,r10
	bhi	0000362A

l00003610:
	cmpw	$0,r10
	bne	00003940

l00003616:
	movzw	r7,(r1,r0)
	addd	(r1,r0),(r9,r8)
	stord	(r9,r8),0xC(r13)
	loadw	0x10(r13),r2
	subw	r7,r2
	storw	r2,0x10(r13)
	loadd	0x14(r13),(r3,r2)
	addd	(r3,r2),(r1,r0)
	stord	(r1,r0),0x14(r13)
	br	00003574

l0000362A:
	storw	r7,(sp)
	movw	r7,r3

l0000362E:
	subw	r3,r10
	storw	r10,4(r13)
	movzw	r3,(r11,r10)
	loadd	(r13),(r5,r4)
	push	$2,r10
	movd	(r3,r2),(r9,r8)
	bal	ra,fn0000DB24
	loadd	0x38(r13),(r1,r0)
	loadw	0x18(r1,r0),r0
	addd	$4,sp
	cmpw	$1,r0
	beq	000036C0

l0000364A:
	cmpw	$2,r0
	beq	00003828

l00003650:
	loadd	(r13),(r1,r0)
	addd	(r11,r10),(r1,r0)
	stord	(r1,r0),(r13)
	loadd	8(r13),(r1,r0)
	addd	(r11,r10),(r1,r0)
	stord	(r1,r0),8(r13)
	loadd	(r12),r13
	loadd	0xC(r13),(r9,r8)
	loadw	4(r13),r10
	br	00003616

l00003664:
	loadw	0xC(sp),r7
	subw	r10,r7
	cmpw	$0,r7
	bne	0000385E

l0000366E:
	loadw	0xAC(r12),r8

l00003672:
	loadw	8(sp),r0
	andw	$FFFB,r0
	cmpw	$0,r0
	beq	0000368E

l0000367C:
	cmpw	$0,r10
	bne	0000368E

l00003680:
	movzw	r8,(r1,r0)
	loadd	0x98(r12),(r5,r4)
	cmpd	(r1,r0),(r5,r4)
	bne	0000372A

l0000368A:
	movw	$1,r0
	br	000035E8

l0000368E:
	loadw	0x68(r12),r7
	addw	$FFFF,r7
	subw	r8,r7
	cmpw	r7,r10
	bls	000036AA

l0000369A:
	loadd	0x98(r12),(r5,r4)
	loadw	0x50(r12),r2
	movzw	r2,(r1,r0)
	cmpd	(r5,r4),(r1,r0)
	ble	0000386C

l000036AA:
	cmpw	r7,r10
	bhs	000036D2

l000036AE:
	cmpw	$0,r10
	beq	00003726

l000036B2:
	movzw	r8,(r9,r8)
	loadd	0x60(r12),(r1,r0)
	addd	(r1,r0),(r9,r8)
	movw	r10,r7
	movw	$0,r0
	br	000036EA

l000036C0:
	loadd	0x60(r13),(r3,r2)
	loadw	(sp),r6
	movd	(r5,r4),(r9,r8)
	bal	ra,fn0000C0EE
	stord	(r1,r0),0x60(r13)
	br	00003650

l000036D2:
	cmpw	$0,r7
	beq	00003726

l000036D6:
	movzw	r8,(r9,r8)
	loadd	0x60(r12),(r1,r0)
	addd	(r1,r0),(r9,r8)
	cmpw	r7,r10
	bls	00003934

l000036E4:
	movw	r10,r0
	subw	r7,r0
	movw	r7,r10

l000036EA:
	storw	r0,4(r13)
	movzw	r10,(r1,r0)
	stord	(r1,r0),4(sp)
	loadd	(r13),(r5,r4)
	push	$2,r0
	movd	(r3,r2),(r9,r8)
	bal	ra,fn0000DB24
	loadd	0x38(r13),(r1,r0)
	loadw	0x18(r1,r0),r0
	addd	$4,sp
	cmpw	$1,r0
	beq	0000390C

l00003708:
	cmpw	$2,r0
	beq	00003920

l0000370E:
	loadd	(r13),(r1,r0)
	loadd	4(sp),(r3,r2)
	addd	(r3,r2),(r1,r0)
	stord	(r1,r0),(r13)
	loadd	8(r13),(r1,r0)
	addd	(r3,r2),(r1,r0)
	stord	(r1,r0),8(r13)

l0000371C:
	loadw	0xAC(r12),r8
	addw	r7,r8
	storw	r8,0xAC(r12)

l00003726:
	loadd	0x98(r12),(r5,r4)

l0000372A:
	loadw	0x2414(r12),r0
	addw	$2A,r0
	ashuw	$-13,r0
	movzw	r0,(r1,r0)
	loadd	0xC(r12),(r3,r2)
	movd	(r7,r6),(r3,r2)
	subd	(r7,r6),(r1,r0)
	movd	(r1,r0),(r7,r6)
	cmpd	$FFFF,(r7,r6)
	bhs	0000374C

l00003748:
	movd	$FFFF,(r1,r0)

l0000374C:
	movw	r0,r3
	subw	r4,r8
	loadw	0x50(r12),r2
	cmpw	r2,r0
	bhs	0000375A

l00003758:
	movw	r0,r2

l0000375A:
	cmpw	r2,r8
	bhs	0000379A

l0000375E:
	cmpw	$0,r8
	sne	r1
	loadw	8(sp),r7
	cmpw	$4,r7
	seq	r0
	orb	r1,r0
	cmpb	$0,r0
	beq	0000381E

l0000376E:
	cmpw	$0,r7
	sne	r0
	cmpw	$0,r0
	beq	0000381E

l00003776:
	loadd	(r12),(r1,r0)
	loadw	4(r1,r0),r0
	cmpw	$0,r0
	seq	r0
	cmpw	$0,r0
	beq	0000381E

l00003782:
	cmpw	r3,r8
	sls	r0
	cmpw	$0,r0
	beq	0000381E

l0000378A:
	movw	r3,r2
	cmpw	r3,r8
	bhs	00003792

l00003790:
	movw	r8,r2

l00003792:
	cmpw	$4,r7
	bne	000037AA

l00003796:
	movw	$1,r13
	br	000037AC

l0000379A:
	movw	r3,r2
	cmpw	r3,r8
	bhs	000037A2

l000037A0:
	movw	r8,r2

l000037A2:
	loadw	8(sp),r7
	cmpw	$4,r7
	beq	000038EE

l000037AA:
	movw	$0,r13

l000037AC:
	loadd	0x60(r12),(r1,r0)
	addd	(r1,r0),(r5,r4)
	movzw	r2,(r9,r8)
	push	$2,r8
	movw	r13,r6
	movd	(r3,r2),r12
	bal	ra,fn0000AF94
	loadd	0x98(r12),(r1,r0)
	addd	(r1,r0),(r9,r8)
	stord	(r9,r8),0x98(r12)
	loadd	(r12),(r9,r8)
	loadd	0x38(r9,r8),(r11,r10)
	movd	(r3,r2),(r11,r10)
	bal	ra,fn0000B09C
	loadw	0x14(r11,r10),r0
	loadw	0x10(r9,r8),r7
	addd	$4,sp
	cmpw	r7,r0
	bhs	000037E0

l000037DE:
	movw	r0,r7

l000037E0:
	cmpw	$0,r7
	beq	0000381A

l000037E4:
	movzw	r7,r12
	loadd	0xC(r9,r8),(r3,r2)
	loadd	0x10(r11,r10),(r5,r4)
	push	$2,r12
	bal	ra,fn0000DB24
	loadd	0xC(r9,r8),(r1,r0)
	addd	r12,(r1,r0)
	stord	(r1,r0),0xC(r9,r8)
	loadd	0x10(r11,r10),(r1,r0)
	addd	r12,(r1,r0)
	stord	(r1,r0),0x10(r11,r10)
	loadd	0x14(r9,r8),(r1,r0)
	addd	r12,(r1,r0)
	stord	(r1,r0),0x14(r9,r8)
	loadw	0x10(r9,r8),r0
	subw	r7,r0
	storw	r0,0x10(r9,r8)
	loadd	0x14(r11,r10),(r1,r0)
	subd	(r1,r0),r12
	stord	(r1,r0),0x14(r11,r10)
	addd	$4,sp
	cmpd	$0,(r1,r0)
	bne	0000381A

l00003816:
	loadd	8(r11,r10),(r1,r0)
	stord	(r1,r0),0x10(r11,r10)

l0000381A:
	cmpw	$0,r13
	bne	000038E4

l0000381E:
	movw	$0,r0
	addd	$16,sp
	pop	$7,r7
	popret	$2,r13,ra

l00003828:
	loadd	0x60(r13),(r3,r2)
	loadw	(sp),r6
	movd	(r5,r4),(r9,r8)
	bal	ra,fn0000CAF8
	stord	(r1,r0),0x60(r13)
	br	00003650

l0000383C:
	storw	$2,0x1204(r12)
	movzw	r0,(r1,r0)
	loadd	(r13),(r5,r4)
	subd	(r5,r4),(r1,r0)
	push	$2,r0
	bal	ra,fn0000DB24
	loadw	0x50(r12),r8
	storw	r8,0xAC(r12)
	addd	$4,sp
	movw	r8,r0
	br	000035C8

l0000385E:
	movw	$0,r9
	br	00003586

l00003864:
	loadd	(r12),r13
	loadw	4(r13),r10
	br	00003672

l0000386C:
	subd	(r5,r4),(r1,r0)
	stord	(r5,r4),0x98(r12)
	subw	r2,r8
	storw	r8,0xAC(r12)
	loadd	0x60(r12),(r3,r2)
	movzw	r8,(r9,r8)
	movd	(r5,r4),(r3,r2)
	addd	(r1,r0),(r5,r4)
	push	$2,r8
	bal	ra,fn0000DB24
	loadw	0x2408(r12),r0
	addd	$4,sp
	cmpw	$1,r0
	blo	0000389A

l00003894:
	addw	$1,r0
	storw	r0,0x2408(r12)

l0000389A:
	loadw	0x50(r12),r0
	addw	r0,r7
	loadd	(r12),r13
	loadw	4(r13),r10
	loadw	0xAC(r12),r8
	cmpw	r7,r10
	blo	000036AE

l000038AE:
	br	000036D2

l000038B2:
	subw	r0,r1
	storw	r1,0xAC(r12)
	movzw	r1,ra
	movzw	r0,(r5,r4)
	addd	(r3,r2),(r5,r4)
	push	$2,ra
	bal	ra,fn0000DB24
	loadw	0x2408(r12),r0
	addd	$4,sp
	cmpw	$1,r0
	blo	000038D4

l000038CE:
	addw	$1,r0
	storw	r0,0x2408(r12)

l000038D4:
	loadd	(r12),r13
	loadd	0x60(r12),(r3,r2)
	loadw	0xAC(r12),r0
	movzw	r0,ra
	br	000035AA

l000038E4:
	movw	$2,r0
	addd	$16,sp
	pop	$7,r7
	popret	$2,r13,ra

l000038EE:
	loadd	(r12),(r1,r0)
	loadw	4(r1,r0),r0
	cmpw	$0,r0
	seq	r0
	cmpw	$0,r0
	beq	000037AA

l000038FC:
	cmpw	r3,r8
	sls	r0
	movw	$1,r13
	cmpw	$0,r0
	bne	000037AC

l00003908:
	br	000037AA

l0000390C:
	loadd	0x60(r13),(r3,r2)
	movw	r10,r6
	movd	(r5,r4),(r9,r8)
	bal	ra,fn0000C0EE
	stord	(r1,r0),0x60(r13)
	br	0000370E

l00003920:
	loadd	0x60(r13),(r3,r2)
	movw	r10,r6
	movd	(r5,r4),(r9,r8)
	bal	ra,fn0000CAF8
	stord	(r1,r0),0x60(r13)
	br	0000370E

l00003934:
	cmpw	$0,r10
	beq	0000371C

l0000393A:
	movw	$0,r0
	br	000036EA

l00003940:
	storw	r10,(sp)
	movw	r10,r3
	br	0000362E
00003948                         9D 01 67 01 BF 60 F4 FF         ..g..`..
00003950 2C 55 4F D4 BC 9F 5A 00 BB 52 05 01 B0 18 2C 02 ,UO...Z..R....,.
00003960 1C 9F 56 00 24 5A 14 33 44 5F 2C AF 30 00 42 61 ..V.$Z.3D_,.0.Ba
00003970 22 B0 22 5D 3C 9F 48 00 0C 9F 40 00 30 45 02 2B "."]<.H...@.0E.+
00003980 0C 9F 46 00 02 23 2C DF 40 00 22 5F 22 61 4C AF ..F..#,.@."_"aL.
00003990 3C 00 42 61 42 90 6C 9F 2C 00 16 23 66 5F 8C AF <.BaB.l.,..#f_..
000039A0 38 00 66 61 86 61 46 D0 12 D0 04 52 0A 10 0C 9F 8.fa.aF....R....
000039B0 28 00 B0 32 FA FE 12 5B 42 3B 02 53 B0 18 F6 01 (..2...[B;.S....
000039C0 0C 9F 50 00 8C 9F F6 11 84 5F 42 55 42 61 6C AF ..P......_BUBal.
000039D0 F8 11 26 61 18 32 AC AF F0 11 A4 61 20 52 B0 18 ..&a.2.....a R..
000039E0 00 02 B2 58 FD FF 02 31 0C 9F 58 00 01 3B 10 5B ...X...1..X..;.[
000039F0 16 D0 8C DF F6 11 24 F0 90 32 22 5D 22 5E 20 04 ......$..2"]"^ .
00003A00 2E F3 22 B0 22 5D 22 5F 22 4C C2 61 12 9F 6E 04 .."."]"_"L.a..n.
00003A10 11 32 12 DF 6E 04 B0 52 FF 00 B4 10 90 49 B0 32 .2..n..R.....I.2
00003A20 00 01 00 5F 00 04 2E F4 00 B0 00 5D 00 5E 20 4C ..._.......].^ L
00003A30 C0 61 20 9F 5E 09 12 32 20 DF 5E 09 0C 9F F4 11 .a .^..2 .^.....
00003A40 90 32 1C 9F F6 11 10 53 09 08 2C 9F 50 00 BC 9F .2.....S..,.P...
00003A50 5A 00 2B 3B BC DF 5A 00 3C 9F 56 00 3F D0 EC AF Z.+;..Z.<.V.?...
00003A60 30 00 8C 9F 48 00 AC 9F 46 00 0C 9F 60 00 02 53 0...H...F...`..S
00003A70 B0 08 00 52 00 18 BA 01 2B 52 A0 08 00 52 00 18 ...R....+R...R..
00003A80 B0 01 93 5A 23 33 3C DF 50 00 0C AF 3C 00 0F E2 ...Z#3<.P...<...
00003A90 DC AF 38 00 1C 9F 2C 00 1F D1 0C 9F 40 00 1F 90 ..8...,.....@...
00003AA0 11 32 2F D5 36 5B 1C DF 56 00 22 5A 12 33 22 5F .2/.6[..V."Z.3"_
00003AB0 E2 61 22 B0 22 5D 80 45 20 2B A0 23 0C DF 40 00 .a"."].E +.#..@.
00003AC0 04 5F 44 61 2F A2 24 61 74 90 2F 91 12 23 22 5F ._Da/.$at./..#"_
00003AD0 22 61 D2 61 72 D0 14 D0 96 32 6C DF 50 00 11 32 "a.ar....2l.P..2
00003AE0 06 52 12 1E 2F 95 3F 90 32 33 2C DF 56 00 09 52 .R../.?.23,.V..R
00003AF0 00 18 69 FE 4C AF 4C 00 22 5F 14 00 42 C0 04 56 ..i.L.L."_..B..V
00003B00 60 18 B0 02 44 00 00 00 FF FF 0C AF 30 00 04 61 `...D.......0..a
00003B10 12 01 06 5A C2 55 00 C0 02 77 0C 9F 56 00 00 5F ...Z.U...w..V.._
00003B20 0C EF 4C 00 8C A0 A8 AF 1C 00 A2 55 00 C0 70 75 ..L........U..pu
00003B30 0A 9A 78 98 4F 60 07 53 B2 10 07 5B 07 52 0C 11 ..x.O`.S...[.R..
00003B40 7D 5F 28 A6 4A A8 1D 01 00 C0 DC 9F 08 A6 D0 61 }_(.J..........a
00003B50 08 E6 0A A8 D0 61 0A E8 08 AA D0 61 08 EA 08 98 .....a.....a....
00003B60 70 3B 08 D8 0A AA 14 00 D0 C0 0A EA 4F 60 00 56 p;..........O`.V
00003B70 13 10 0A A4 0A E8 0C A0 00 98 00 52 10 18 D9 FD ...........R....
00003B80 00 5A CF 60 67 02 9D 03 C2 55 FF C0 69 F5 0C 9F .Z.`g....U..i...
00003B90 5A 00 B0 52 05 01 A0 18 CB FD 1F 94 01 52 01 1F Z..R.........R..
00003BA0 1C 9F 56 00 00 52 00 16 20 52 B0 18 17 FE E0 18 ..V..R.. R......
00003BB0 B7 FD C2 55 FF C0 95 F3 0C DF 50 00 1C 9F 56 00 ...U......P...V.
00003BC0 8C 9F F6 11 84 5F 42 55 42 61 6C AF F8 11 26 61 ....._BUBal...&a
00003BD0 18 32 AC AF F0 11 A4 61 20 52 A0 18 09 FE 10 5F .2.....a R....._
00003BE0 2C AF 30 00 20 61 00 B0 06 C2 8C DF F6 11 04 F0 ,.0. a..........
00003BF0 00 5D 00 5F 20 4C C0 61 20 9F 6A 00 12 32 20 DF .]._ L.a .j..2 .
00003C00 6A 00 0C 9F F4 11 90 32 1C 9F F6 11 10 53 09 08 j......2.....S..
00003C10 BC 9F 5A 00 9B 32 BC DF 5A 00 2C 9F 56 00 12 32 ..Z..2..Z.,.V..2
00003C20 2C DF 56 00 09 52 00 18 33 FD E0 18 CB FE 0F 90 ,.V..R..3.......
00003C30 02 33 2C DF 56 00 0C C3 50 00 20 5F E0 61 30 B0 .3,.V...P. _.a0.
00003C40 33 5D 3C DF 40 00 10 5A 20 33 00 5F 0E 61 0E B0 3]<.@..Z 3._.a..
00003C50 00 5D 83 45 30 2B 0A 23 AC DF 40 00 09 52 00 18 .].E0+.#..@..R..
00003C60 FB FC E0 18 93 FE 10 5B 21 52 A3 15 0C DF 06 12 .......[!R......
00003C70 2F 94 42 52 04 15 2C 9F F6 11 10 5A 02 52 02 18 /.BR..,....Z.R..
00003C80 4C AF 4C 00 10 5F 14 00 40 C0 04 56 60 18 2C 01 L.L.._..@..V`.,.
00003C90 44 00 00 00 FF FF 2C AF 30 00 24 61 10 01 06 5A D.....,.0.$a...Z
00003CA0 C2 55 00 C0 76 75 0C 9F 56 00 00 5F 0C EF 4C 00 .U..vu..V.._..L.
00003CB0 8C A0 A8 AF 1C 00 A2 55 00 C0 E4 73 0A 9A 78 98 .......U...s..x.
00003CC0 4F 60 07 53 B2 10 07 5B 07 52 0C 11 7D 5F 28 A6 O`.S...[.R..}_(.
00003CD0 4A A8 1D 01 00 C0 50 9E 08 A6 D0 61 08 E6 0A A8 J.....P....a....
00003CE0 D0 61 0A E8 08 AA D0 61 08 EA 08 98 70 3B 08 D8 .a.....a....p;..
00003CF0 0A AA 14 00 D0 C0 0A EA 4F 60 00 56 13 10 0A A4 ........O`.V....
00003D00 0A E8 0C A0 00 98 00 52 10 08 CF 60 67 02 9D 03 .......R...`g...
00003D10 20 5A 0C DF 06 12 2F 94 42 52 1E 1A 4C AF 4C 00  Z..../.BR..L.L.
00003D20 10 5F 14 00 40 C0 04 56 6B 14 44 00 00 00 FF FF ._..@..Vk.D.....
00003D30 2C AF 30 00 24 61 10 01 16 5A C2 55 00 C0 DC 74 ,.0.$a...Z.U...t
00003D40 0C 9F 56 00 00 5F 0C EF 4C 00 8C A0 A8 AF 1C 00 ..V.._..L.......
00003D50 A2 55 00 C0 4A 73 0A 9A 78 98 4F 60 07 53 B2 10 .U..Js..x.O`.S..
00003D60 07 5B 07 52 0C 11 7D 5F 28 A6 4A A8 1D 01 00 C0 .[.R..}_(.J.....
00003D70 B6 9D 08 A6 D0 61 08 E6 0A A8 D0 61 0A E8 08 AA .....a.....a....
00003D80 D0 61 08 EA 08 98 70 3B 08 D8 0A AA 14 00 D0 C0 .a....p;........
00003D90 0A EA 4F 60 00 56 13 10 0A A4 0A E8 0C A0 10 98 ..O`.V..........
00003DA0 30 5A 01 52 10 18 DF FD 20 5A CF 60 67 02 9D 03 0Z.R.... Z.`g...
00003DB0 04 5A 45 5B E0 18 5D FD 04 54 E0 18 E3 FE 04 54 .ZE[..]..T.....T
00003DC0 EB 1B 9D 01 67 01 BF 60 F8 FF 2C 55 4F D3 72 9F ....g..`..,UO.r.
00003DD0 5A 00 2D 5A B7 52 05 01 B0 18 20 01 1C 9F 56 00 Z.-Z.R.... ...V.
00003DE0 5C 9F 50 00 AC 9F 58 00 26 5A 16 33 66 5F 2C AF \.P...X.&Z.3f_,.
00003DF0 30 00 62 61 22 B0 22 5D 3C 9F 48 00 0C 9F 40 00 0.ba"."]<.H...@.
00003E00 30 45 02 2B 0C 9F 46 00 02 23 2C DF 40 00 22 5F 0E.+..F..#,.@."_
00003E10 22 61 6C AF 3C 00 62 61 42 90 6C 9F 2C 00 16 23 "al.<.baB.l.,..#
00003E20 66 5F 8C AF 38 00 66 61 86 61 46 D0 12 D0 5C DF f_..8.fa.aF...\.
00003E30 5C 00 AC DF 52 00 2C C3 50 00 04 52 0C 15 0C 9F \...R.,.P..R....
00003E40 60 00 50 53 B8 15 2C 9F 28 00 B2 32 FA FE D0 5B `.PS..,.(..2...[
00003E50 13 5B 43 3B 23 53 B3 14 25 52 B4 10 05 53 50 18 .[C;#S..%R...SP.
00003E60 22 01 0C 9F 54 00 00 52 08 16 91 32 12 5F 0C AF "...T..R...2._..
00003E70 30 00 20 61 00 B0 1C 9F F6 11 14 5F 2C AF F8 11 0. a......._,...
00003E80 46 55 46 61 62 61 02 C2 2C AF F0 11 11 32 1C DF FUFaba..,....2..
00003E90 F6 11 42 61 02 F0 00 5D 00 5F 20 4C C0 61 20 9F ..Ba...]._ L.a .
00003EA0 6A 00 12 32 20 DF 6A 00 0C 9F F4 11 90 32 1C 9F j..2 .j......2..
00003EB0 F6 11 01 53 00 18 B4 02 0C 9F 56 00 10 32 0C DF ...S......V..2..
00003EC0 56 00 7C 9F 5A 00 97 32 7C DF 5A 00 0C A0 00 98 V.|.Z..2|.Z.....
00003ED0 00 52 11 18 00 5A 8F 60 67 02 9D 03 C2 55 FF C0 .R...Z.`g....U..
00003EE0 6B F0 0C DF 50 00 50 52 B4 13 5C 9F 5C 00 1C 9F k...P.PR..\.\...
00003EF0 56 00 E3 1B D0 5B E1 1B C2 55 FF C0 F9 F1 0C 9F V....[...U......
00003F00 5A 00 B0 52 05 01 A0 18 D7 FE 1F 93 01 52 03 1E Z..R.........R..
00003F10 00 52 00 18 0A 03 1C 9F 56 00 5C 9F 50 00 AC 9F .R......V.\.P...
00003F20 58 00 20 52 A0 18 C5 FE 5C DF 5C 00 AC DF 52 00 X. R....\.\...R.
00003F30 2C C3 50 00 D0 5B E1 19 1C C3 54 00 11 32 1C DF ,.P..[....T..2..
00003F40 56 00 7C 9F 5A 00 97 32 7C DF 5A 00 E0 18 89 FE V.|.Z..2|.Z.....
00003F50 1C 9F 56 00 5C 9F 5C 00 2C 9F 64 00 12 52 0C 10 ..V.\.\.,.d..R..
00003F60 30 52 10 18 F7 FE 2C 9F 58 00 13 5B 23 3B B3 52 0R....,.X..[#;.R
00003F70 00 10 B0 18 E7 FE 2C C3 50 00 25 52 B0 18 E7 FE ......,.P.%R....
00003F80 AC 9F 5A 00 BA 32 FD FF 1A 33 B0 58 FD FF 05 31 ..Z..2...3.X...1
00003F90 0C 9F 52 00 18 5B 08 3B 4C 9F F6 11 40 5F 6C AF ..R..[.;L...@_l.
00003FA0 F8 11 02 55 02 61 62 61 96 5A 86 33 62 D0 2C AF ...U.aba.Z.3b.,.
00003FB0 F0 11 14 32 4C DF F6 11 20 61 50 F0 B8 32 FE FF ...2L... aP..2..
00003FC0 52 5D 22 5E 20 04 2E F3 22 B0 22 5D 22 5F 22 4C R]"^ ..."."]"_"L
00003FD0 C2 61 02 9F 6E 04 10 32 02 DF 6E 04 B8 52 FF 00 .a..n..2..n..R..
00003FE0 A0 18 18 02 81 5F 10 04 2E F4 01 B0 00 5D 00 5E ....._.......].^
00003FF0 20 4C C0 61 20 9F 5E 09 12 32 20 DF 5E 09 EC 9F  L.a .^..2 .^...
00004000 F6 11 0C 9F F4 11 90 32 0F D0 BC 9F 5C 00 7C 9F .......2....\.|.
00004010 5A 00 17 32 B7 3B 7C DF 5A 00 B8 5A FE FF B8 33 Z..2.;|.Z..Z...3
00004020 8C DF 5C 00 9C 9F 56 00 16 5A 96 33 7F D2 6C DF ..\...V..Z.3..l.
00004030 56 00 6A 53 40 18 0A 01 22 5A 62 33 22 5F 0C AF V.jS@..."Zb3"_..
00004040 30 00 20 61 20 B0 22 5D 1C 9F 48 00 0C 9F 40 00 0. a ."]..H...@.
00004050 10 45 02 2B 0C 9F 46 00 02 23 2C DF 40 00 22 5F .E.+..F..#,.@."_
00004060 22 61 0C AF 3C 00 02 61 72 90 0C 9F 2C 00 60 23 "a..<..ar...,.`#
00004070 00 5F 4C AF 38 00 00 61 40 61 70 D0 62 D0 98 32 ._L.8..a@ap.b..2
00004080 8C DF 5C 00 16 32 08 52 13 1D 7F 92 0C C3 54 00 ..\..2.R......T.
00004090 2C C3 50 00 9B 33 9B 32 BC DF 56 00 1F 90 1E 53 ,.P..3.2..V....S
000040A0 10 18 35 FD 4C AF 4C 00 B0 5F 14 00 40 C0 04 56 ..5.L.L.._..@..V
000040B0 60 18 64 01 44 00 00 00 FF FF 2C AF 30 00 24 61 `.d.D.....,.0.$a
000040C0 10 01 06 5A C2 55 00 C0 52 71 0C 9F 56 00 00 5F ...Z.U..Rq..V.._
000040D0 0C EF 4C 00 8C A0 A8 AF 1C 00 A2 55 00 C0 C0 6F ..L........U...o
000040E0 0A 9A 78 98 4F 60 07 53 B2 10 07 5B 07 52 0F 11 ..x.O`.S...[.R..
000040F0 72 5F 2F E0 28 A6 4A A8 0F A0 10 01 00 C0 28 9A r_/.(.J.......(.
00004100 08 A6 2F A2 20 61 08 E6 0A A8 20 61 0A E8 08 AA ../. a.... a....
00004110 20 61 08 EA 08 98 70 3B 08 D8 0A AA 14 00 20 C0  a....p;...... .
00004120 0A EA 4F 60 00 56 13 10 0A A4 0A E8 0C A0 00 98 ..O`.V..........
00004130 00 52 00 18 A3 FD 7C 9F 5A 00 E0 18 9B FC 98 32 .R....|.Z......2
00004140 8C DF 5C 00 16 32 08 52 10 18 E7 FE 7F 92 0C C3 ..\..2.R........
00004150 54 00 2C C3 50 00 9B 33 9B 32 BC DF 56 00 1F 90 T.,.P..3.2..V...
00004160 1E 53 10 18 73 FC EF 19 4C AF 4C 00 0C 9F 56 00 .S..s...L.L...V.
00004170 00 5F 14 00 40 C0 04 56 6B 14 44 00 00 00 FF FF ._..@..Vk.D.....
00004180 2C AF 30 00 24 61 10 01 06 5A C2 55 00 C0 8C 70 ,.0.$a...Z.U...p
00004190 0C 9F 56 00 00 5F 0C EF 4C 00 8C A0 A8 AF 1C 00 ..V.._..L.......
000041A0 A2 55 00 C0 FA 6E 0A 9A 78 98 4F 60 07 53 B2 10 .U...n..x.O`.S..
000041B0 07 5B 07 52 00 18 05 FD 70 5F 0F E0 28 A6 4A A8 .[.R....p_..(.J.
000041C0 10 01 00 C0 62 99 08 A6 2F A2 20 61 08 E6 0A A8 ....b.../. a....
000041D0 20 61 0A E8 08 AA 20 61 08 EA 08 98 70 3B 08 D8  a.... a....p;..
000041E0 0A AA 14 00 20 C0 0A EA 4F 60 00 56 10 18 CD FC .... ...O`.V....
000041F0 0A A4 0A E8 E0 18 C5 FC 81 5B 91 49 B1 32 00 01 .........[.I.2..
00004200 10 5F 00 04 2E F4 00 B0 00 5D E0 18 E5 FD 04 5A ._.......].....Z
00004210 45 5B EA 1B 04 5A 45 5B E0 18 A9 FE 2C 9F 56 00 E[...ZE[....,.V.
00004220 1C 9F 54 00 01 52 04 12 92 32 22 5F 4C AF 30 00 ..T..R...2"_L.0.
00004230 42 61 12 B0 8C 9F F6 11 82 5F 4C AF F8 11 26 55 Ba......._L...&U
00004240 26 61 64 61 04 D0 4C AF F0 11 18 32 8C DF F6 11 &ada..L....2....
00004250 42 61 12 F0 12 5D 22 5F 22 4C C2 61 12 9F 6A 00 Ba...]"_"L.a..j.
00004260 11 32 12 DF 6A 00 0C DF 54 00 2C 9F 56 00 20 5B .2..j...T.,.V. [
00004270 22 52 A4 15 0C DF 06 12 3F 93 43 52 05 15 1C 9F "R......?.CR....
00004280 F6 11 10 5A 01 52 00 18 51 FC 4C AF 4C 00 20 5F ...Z.R..Q.L.L. _
00004290 14 00 40 C0 04 56 60 18 24 01 44 00 00 00 FF FF ..@..V`.$.D.....
000042A0 2C AF 30 00 24 61 10 01 06 5A C2 55 00 C0 6C 6F ,.0.$a...Z.U..lo
000042B0 0C 9F 56 00 00 5F 0C EF 4C 00 8C A0 A8 AF 1C 00 ..V.._..L.......
000042C0 A2 55 00 C0 DA 6D 0A 9A 78 98 4F 60 07 53 B2 10 .U...m..x.O`.S..
000042D0 07 5B 07 52 0C 11 7D 5F 28 A6 4A A8 1D 01 00 C0 .[.R..}_(.J.....
000042E0 46 98 08 A6 D0 61 08 E6 0A A8 D0 61 0A E8 08 AA F....a.....a....
000042F0 D0 61 08 EA 08 98 70 3B 08 D8 0A AA 14 00 D0 C0 .a....p;........
00004300 0A EA 4F 60 00 56 13 10 0A A4 0A E8 0C A0 00 98 ..O`.V..........
00004310 00 52 10 08 8F 60 67 02 9D 03 20 5A 0C DF 06 12 .R...`g... Z....
00004320 3F 93 43 52 1D 1A 4C AF 4C 00 20 5F 14 00 40 C0 ?.CR..L.L. _..@.
00004330 04 56 67 14 44 00 00 00 FF FF 2C AF 30 00 24 61 .Vg.D.....,.0.$a
00004340 10 01 16 5A C2 55 00 C0 D2 6E 0C 9F 56 00 00 5F ...Z.U...n..V.._
00004350 0C EF 4C 00 8C A0 A8 AF 1C 00 A2 55 00 C0 40 6D ..L........U..@m
00004360 0A 9A 78 98 4F 60 07 53 B2 10 07 5B 07 52 0C 11 ..x.O`.S...[.R..
00004370 7D 5F 28 A6 4A A8 1D 01 00 C0 AC 97 08 A6 D0 61 }_(.J..........a
00004380 08 E6 0A A8 D0 61 0A E8 08 AA D0 61 08 EA 08 98 .....a.....a....
00004390 70 3B 08 D8 0A AA 14 00 D0 C0 0A EA 4F 60 00 56 p;..........O`.V
000043A0 13 10 0A A4 0A E8 0C A0 10 98 30 5A 01 52 10 18 ..........0Z.R..
000043B0 29 FB 20 5A 8F 60 67 02 9D 03 04 54 E0 18 EB FE ). Z.`g....T....
000043C0 04 54 EF 1B 9D 01 67 01 BF 60 F0 FF 2F E2 48 55 .T....g..`../.HU
000043D0 67 5B 02 56 00 18 BA 01 02 AF 20 00 00 56 00 18 g[.V...... ..V..
000043E0 B0 01 02 AF 24 00 00 56 00 18 A6 01 D2 AF 1C 00 ....$..V........
000043F0 0D 56 00 18 9C 01 24 55 2D A0 B0 5A FE FF 24 57 .V....$U-..Z..$W
00004400 05 10 BF 60 10 00 67 02 9D 03 2D 92 B2 52 2A 00 ...`..g...-..R*.
00004410 13 08 B2 52 45 00 11 08 31 21 B2 52 5B 00 13 08 ...RE...1!.R[...
00004420 31 21 B2 52 67 00 13 08 31 21 B2 52 71 00 13 08 1!.Rg...1!.Rq...
00004430 31 21 B2 52 9A 02 13 08 31 21 01 50 0A 10 B1 5A 1!.R....1!.P...Z
00004440 C7 FF 21 33 B1 22 EF FF 01 52 11 08 01 52 1A 1D ..!3."...R...R..
00004450 08 56 00 18 3C 01 5D 9C 5F D1 25 52 00 18 32 01 .V..<.]._.%R..2.
00004460 15 52 00 18 38 01 1D 9F 5A 00 B0 5A FE FF 01 52 .R..8...Z..Z...R
00004470 19 1C 1D DC 0D 9F 28 00 70 53 AE 11 05 52 18 11 ......(.pS...R..
00004480 54 5B 2D AF 3C 00 5D 9F 42 00 95 32 55 5F 55 61 T[-.<.].B..2U_Ua
00004490 20 55 50 61 40 D0 00 C0 AE 96 5F 91 5D DF 56 00  UPa@....._.].V.
000044A0 00 54 0D EF 4C 00 5D DF 06 12 0D 9F 28 00 07 3B .T..L.].....(..;
000044B0 72 5F 28 61 07 5B 0F A2 10 92 1F D4 2F A2 32 A0 r_(a.[....../.2.
000044C0 3F E6 4F A2 74 D2 84 E0 D2 55 FF C0 29 EC 3D 9F ?.O.t....U..).=.
000044D0 5A 00 23 52 BF 13 39 5B 1D 9F 56 00 7D 9F 48 00 Z.#R..9[..V.}.H.
000044E0 ED AF 30 00 5D 9F 46 00 5F D0 AD AF 3C 00 CD AF ..0.].F._...<...
000044F0 38 00 6D 9F 2C 00 0D 9F 40 00 B2 5A FE FF 12 33 8.m.,...@..Z...3
00004500 29 33 78 5B 67 5B 22 5A 12 33 22 5F E2 61 22 B0 )3x[g["Z.3"_.a".
00004510 22 5D 80 45 20 2B 2F 90 20 23 0D DF 40 00 04 5F "].E +/. #..@.._
00004520 44 61 A4 61 64 90 72 5B 12 23 22 5F 22 61 C2 61 Da.ad.r[.#"_"a.a
00004530 62 D0 14 D0 11 32 91 53 17 1E 1D DF 56 00 2D C3 b....2.S....V.-.
00004540 5A 00 D2 55 FF C0 AF EB 9D 9F 5A 00 29 52 A5 1C Z..U......Z.)R..
00004550 93 5B 0D 9F 56 00 30 33 0D DF 56 00 00 5F 0D EF .[..V.03..V.._..
00004560 4C 00 3D DF 06 12 0D C3 5A 00 2D C3 5C 00 2D C3 L.=.....Z.-.\.-.
00004570 50 00 0D C3 54 00 0F A6 3F A2 03 E0 1F 94 13 D2 P...T...?.......
00004580 2F 91 2D DC 00 5A BF 60 10 00 67 02 9D 03 B0 5A /.-..Z.`..g....Z
00004590 FE FF BF 60 10 00 67 02 9D 03 B2 52 2A 00 18 1F ...`..g....R*...
000045A0 AD 9F 5A 00 0A 52 14 1F 0F A2 20 AF 30 00 76 5B ..Z..R.... .0.v[
000045B0 84 55 00 C0 3C 7B 2F A2 02 EF 30 00 AD DC 0D 9F .U..<{/...0.....
000045C0 28 00 07 53 40 18 F3 FE E0 18 E7 FE 1E 01 67 01 (..S@.........g.
000045D0 BC 54 12 00 FC 61 2A 55 46 5B 53 5B 8C A0 0A 56 .T...a*UF[S[...V
000045E0 0F 15 0A AF 20 00 00 56 0B 15 0A AF 24 00 00 56 .... ..V....$..V
000045F0 07 15 EA AF 1C 00 0E 56 03 15 4E A0 B0 5A FE FF .......V..N..Z..
00004600 4A 57 03 10 67 02 1E 03 2E 92 B2 52 2A 00 14 08 JW..g......R*...
00004610 B2 52 45 00 11 08 41 21 B2 52 5B 00 14 08 41 21 .RE...A!.R[...A!
00004620 B2 52 67 00 14 08 41 21 B2 52 71 00 14 08 41 21 .Rg...A!.Rq...A!
00004630 B2 52 9A 02 14 08 41 21 01 50 09 10 B2 32 C7 FF .R....A!.P...2..
00004640 B2 22 EF FF 02 52 11 08 01 52 1D 1D 0E 9F 56 00 ."...R...R....V.
00004650 4E 9F 5A 00 01 5B 41 33 7E 9F 28 00 17 53 B2 10 N.Z..[A3~.(..S..
00004660 17 5B 61 5B 31 27 01 52 11 08 01 52 03 11 07 52 .[a[1'.R...R...R
00004670 11 08 01 52 0F 10 7A 5F 00 5F 44 5F 40 61 14 00 ...R..z_._D_@a..
00004680 A0 C0 4E AF 30 00 04 61 1A 01 62 5B 00 C0 98 94 ..N.0..a..b[....
00004690 4F 60 08 56 09 10 78 D0 00 5A 67 02 1E 03 B0 5A O`.V..x..Zg....Z
000046A0 FE FF 67 02 1E 03 00 5A 67 02 1E 03             ..g....Zg...    

;; fn000046AC: 000046AC
;;   Called from:
;;     0000640E (in fn00006226)
fn000046AC proc
	push	$2,ra
	push	$4,r8
	movd	(r9,r8),(r3,r2)
	cmpd	$0,(r3,r2)
	beq	00004786

l000046B6:
	loadd	0x40(r3,r2),(r1,r0)
	cmpd	$0,(r1,r0)
	beq	00004786

l000046BE:
	loadd	0x48(r3,r2),(r1,r0)
	cmpd	$0,(r1,r0)
	beq	00004786

l000046C6:
	loadd	0x38(r3,r2),(r11,r10)
	cmpd	$0,(r11,r10)
	beq	00004786

l000046CE:
	loadd	(r11,r10),(r3,r2)
	movw	$FFFE,r0
	cmpd	(r9,r8),(r3,r2)
	beq	000046DC

l000046D8:
	pop	$4,r8
	popret	$2,ra

l000046DC:
	loadw	4(r11,r10),r2
	cmpw	$2A,r2
	sne	r3
	cmpw	$45,r2
	sne	r1
	andb	r3,r1
	cmpw	$5B,r2
	sne	r3
	andb	r3,r1
	cmpw	$67,r2
	sne	r3
	andb	r3,r1
	cmpw	$71,r2
	sne	r3
	andb	r3,r1
	cmpw	$29A,r2
	sne	r3
	andb	r3,r1
	cmpb	$0,r1
	beq	00004720

l00004710:
	addw	$FFC7,r2
	andw	$FFEF,r2
	cmpw	$0,r2
	sne	r1
	cmpw	$0,r1
	bne	000046D8

l00004720:
	movd	$0,(r1,r0)
	stord	(r1,r0),0x14(r9,r8)
	stord	(r1,r0),8(r9,r8)
	stord	(r1,r0),0x18(r9,r8)
	storw	$2,0x2C(r9,r8)
	stord	(r1,r0),0x14(r11,r10)
	loadd	8(r11,r10),(r1,r0)
	stord	(r1,r0),0x10(r11,r10)
	loadw	0x18(r11,r10),r0
	cmpw	$0,r0
	bgt	00004764

l00004738:
	cmpw	$2,r0
	beq	00004774

l0000473C:
	cmpw	$0,r0
	bne	0000478E

l00004740:
	movw	$71,r1

l00004744:
	storw	r1,4(r11,r10)
	movw	$0,r6
	movd	$0,(r5,r4)
	movd	(r3,r2),(r5,r4)
	bal	ra,fn0000C0EE

l00004750:
	stord	(r1,r0),0x60(r9,r8)
	storw	$0,0x26(r11,r10)
	movd	(r3,r2),(r11,r10)
	bal	ra,fn0000AF06
	movw	$0,r0
	pop	$4,r8
	popret	$2,ra

l00004764:
	movw	$0,r1
	subw	r0,r1
	storw	r1,0x18(r11,r10)
	movw	$2A,r1
	cmpw	$FFFE,r0
	bne	00004744

l00004774:
	movw	$39,r0
	storw	r0,4(r11,r10)
	movw	$0,r6
	movd	$0,(r5,r4)
	movd	(r3,r2),(r5,r4)
	bal	ra,fn0000CAF8
	br	00004750

l00004786:
	movw	$FFFE,r0
	pop	$4,r8
	popret	$2,ra

l0000478E:
	movw	$2A,r1
	br	00004744

;; fn00004794: 00004794
;;   Called from:
;;     00002F34 (in fn00002D76)
fn00004794 proc
	push	$2,ra
	push	$4,r8
	movd	(r9,r8),(r3,r2)
	cmpd	$0,(r3,r2)
	beq	000048EC

l000047A0:
	loadd	0x40(r3,r2),(r1,r0)
	cmpd	$0,(r1,r0)
	beq	000048EC

l000047AA:
	loadd	0x48(r3,r2),(r1,r0)
	cmpd	$0,(r1,r0)
	beq	000048EC

l000047B4:
	loadd	0x38(r3,r2),(r11,r10)
	cmpd	$0,(r11,r10)
	beq	000048EC

l000047BE:
	loadd	(r11,r10),(r3,r2)
	movw	$FFFE,r0
	cmpd	(r9,r8),(r3,r2)
	beq	000047CC

l000047C8:
	pop	$4,r8
	popret	$2,ra

l000047CC:
	loadw	4(r11,r10),r2
	cmpw	$2A,r2
	sne	r3
	cmpw	$45,r2
	sne	r1
	andb	r3,r1
	cmpw	$5B,r2
	sne	r3
	andb	r3,r1
	cmpw	$67,r2
	sne	r3
	andb	r3,r1
	cmpw	$71,r2
	sne	r3
	andb	r3,r1
	cmpw	$29A,r2
	sne	r3
	andb	r3,r1
	cmpb	$0,r1
	beq	00004810

l00004800:
	addw	$FFC7,r2
	andw	$FFEF,r2
	cmpw	$0,r2
	sne	r1
	cmpw	$0,r1
	bne	000047C8

l00004810:
	movd	$0,(r1,r0)
	stord	(r1,r0),0x14(r9,r8)
	stord	(r1,r0),8(r9,r8)
	stord	(r1,r0),0x18(r9,r8)
	storw	$2,0x2C(r9,r8)
	stord	(r1,r0),0x14(r11,r10)
	loadd	8(r11,r10),(r1,r0)
	stord	(r1,r0),0x10(r11,r10)
	loadw	0x18(r11,r10),r0
	cmpw	$0,r0
	bgt	000048CA

l00004828:
	cmpw	$2,r0
	beq	000048DA

l0000482C:
	cmpw	$0,r0
	bne	000048F4

l00004830:
	movw	$71,r1

l00004834:
	storw	r1,4(r11,r10)
	movw	$0,r6
	movd	$0,(r5,r4)
	movd	(r3,r2),(r5,r4)
	bal	ra,fn0000C0EE

l00004840:
	stord	(r1,r0),0x60(r9,r8)
	storw	$0,0x26(r11,r10)
	movd	(r3,r2),(r11,r10)
	bal	ra,fn0000AF06
	loadd	0x38(r9,r8),(r9,r8)
	loadw	0x50(r9,r8),r0
	movzw	r0,(r1,r0)
	addd	(r1,r0),(r1,r0)
	stord	(r1,r0),0x68(r9,r8)
	loadd	0x78(r9,r8),(r3,r2)
	loadw	0x84(r9,r8),r5
	addw	$FFFF,r5
	movzw	r5,(r6,r5)
	addd	(r6,r5),(r6,r5)
	movd	(r1,r0),(r3,r2)
	addd	(r6,r5),(r1,r0)
	storw	$0,(r1,r0)
	movw	$0,r4
	bal	ra,fn0000DB44
	loadw	0xC4(r9,r8),r2
	movxw	r2,(r3,r2)
	movd	(r1,r0),(r3,r2)
	addd	(r3,r2),(r1,r0)
	addd	(r1,r0),(r3,r2)
	ashud	$2,(r3,r2)
	movd	$E5A4,(r1,r0)
	addd	(r3,r2),(r1,r0)
	loadw	2(r1,r0),r2
	storw	r2,0xC0(r9,r8)
	loadw	(r1,r0),r2
	storw	r2,0xCC(r9,r8)
	loadw	4(r1,r0),r2
	storw	r2,0xD0(r9,r8)
	loadw	6(r1,r0),r0
	storw	r0,0xBC(r9,r8)
	storw	$0,0x56(r9,r8)
	movd	$0,(r1,r0)
	stord	(r1,r0),0x98(r9,r8)
	storw	$0,0x5A(r9,r8)
	storw	$0,0x1206(r9,r8)
	storw	$2,0x5C(r9,r8)
	storw	$2,0x50(r9,r8)
	storw	$0,0x54(r9,r8)
	storw	$0,0x40(r9,r8)
	pop	$4,r8
	popret	$2,ra

l000048CA:
	movw	$0,r1
	subw	r0,r1
	storw	r1,0x18(r11,r10)
	movw	$2A,r1
	cmpw	$FFFE,r0
	bne	00004834

l000048DA:
	movw	$39,r0
	storw	r0,4(r11,r10)
	movw	$0,r6
	movd	$0,(r5,r4)
	movd	(r3,r2),(r5,r4)
	bal	ra,fn0000CAF8
	br	00004840

l000048EC:
	movw	$FFFE,r0
	pop	$4,r8
	popret	$2,ra

l000048F4:
	movw	$2A,r1
	br	00004834
000048FA                               1E 01 07 01 02 56           .....V
00004900 0E 13 02 AF 20 00 00 56 0A 13 02 AF 24 00 00 56 .... ..V....$..V
00004910 06 13 E2 AF 1C 00 0E 56 02 13 6E A0 B0 5A FE FF .......V..n..Z..
00004920 62 57 03 10 07 02 1E 03 2E 92 B2 52 2A 00 13 08 bW.........R*...
00004930 B2 52 45 00 11 08 31 21 B2 52 5B 00 13 08 31 21 .RE...1!.R[...1!
00004940 B2 52 67 00 13 08 31 21 B2 52 71 00 13 08 31 21 .Rg...1!.Rq...1!
00004950 B2 52 9A 02 13 08 31 21 01 50 09 10 B2 32 C7 FF .R....1!.P...2..
00004960 B2 22 EF FF 02 52 11 08 01 52 1D 1D 0E 9C 20 52 ."...R...R.... R
00004970 16 10 4E EF 1C 00 00 5A 07 02 1E 03 B0 5A FE FF ..N....Z.....Z..
00004980 07 02 1E 03 00 00 1E 01 1C 01 27 01 EC 54 FC 61 ..........'..T.a
00004990 6C A0 02 56 04 14 02 AF 20 00 00 56 00 14 02 AF l..V.... ..V....
000049A0 24 00 00 56 0C 13 E2 AF 1C 00 0E 56 08 13 8E A0 $..V.......V....
000049B0 B0 5A FE FF 82 57 04 10 27 02 1C 02 1E 03 2E 92 .Z...W..'.......
000049C0 B2 52 2A 00 13 08 B2 52 45 00 11 08 31 21 B2 52 .R*....RE...1!.R
000049D0 5B 00 13 08 31 21 B2 52 67 00 13 08 31 21 B2 52 [...1!.Rg...1!.R
000049E0 71 00 13 08 31 21 B2 52 9A 02 13 08 31 21 01 50 q...1!.R....1!.P
000049F0 09 10 B2 32 C7 FF B2 22 EF FF 02 52 11 08 01 52 ...2..."...R...R
00004A00 1C 1D 04 56 03 10 0E 9A 04 D0 06 56 0D 10 0E 9F ...V.......V....
00004A10 0A 12 06 D0 00 5A 27 02 1C 02 1E 03 B0 5A FE FF .....Z'......Z..
00004A20 27 02 1C 02 1E 03 00 5A 27 02 1C 02 1E 03 1E 01 '......Z'.......
00004A30 67 01 4B 5B 58 5B 02 56 00 11 02 AF 20 00 00 56 g.K[X[.V.... ..V
00004A40 0C 10 02 AF 24 00 00 56 08 10 C2 AF 1C 00 0C 56 ....$..V.......V
00004A50 04 10 0C A0 02 57 06 10 BB 5A FE FF B0 5B 67 02 .....W...Z...[g.
00004A60 1E 03 1C 92 B1 52 2A 00 12 08 B1 52 45 00 10 08 .....R*....RE...
00004A70 20 21 B1 52 5B 00 12 08 20 21 B1 52 67 00 12 08  !.R[... !.Rg...
00004A80 20 21 B1 52 71 00 12 08 20 21 B1 52 9A 02 12 08  !.Rq... !.R....
00004A90 20 21 00 50 09 10 B1 32 C7 FF B1 22 EF FF 01 52  !.P...2..."...R
00004AA0 10 08 00 52 1A 1D 0C A8 20 60 2C AF F8 11 02 57 ...R.... `,....W
00004AB0 45 12 BA 5A 10 00 19 5A 1C 9F 0A 12 A0 5B 10 3B E..Z...Z.....[.;
00004AC0 B7 5B 0B 53 D2 10 07 5B 90 5B 70 45 90 32 80 23 .[.S...[.[pE.2.#
00004AD0 10 45 2C 9F 08 12 20 27 0C DF 08 12 71 33 1C DF .E,... '....q3..
00004AE0 0A 12 C2 55 00 C0 B8 65 00 58 70 39 08 45 7B 3B ...U...e.Xp9.E{;
00004AF0 0B 52 13 1E B0 5B 67 02 1E 03 BB 5A FB FF B0 5B .R...[g....Z...[
00004B00 67 02 1E 03 00 00 1E 01 1C 01 07 01 AC 54 FC 61 g............T.a
00004B10 7C 90 02 56 03 14 02 AF 20 00 00 56 0F 13 02 AF |..V.... ..V....
00004B20 24 00 00 56 0B 13 E2 AF 1C 00 0E 56 07 13 CE A0 $..V.......V....
00004B30 B0 5A FE FF C2 57 04 10 07 02 1C 02 1E 03 2E 92 .Z...W..........
00004B40 B2 52 2A 00 13 08 B2 52 45 00 11 08 31 21 B2 52 .R*....RE...1!.R
00004B50 5B 00 13 08 31 21 B2 52 67 00 13 08 31 21 B2 52 [...1!.Rg...1!.R
00004B60 71 00 13 08 31 21 B2 52 9A 02 13 08 31 21 01 50 q...1!.R....1!.P
00004B70 09 10 B2 32 C7 FF B2 22 EF FF 02 52 11 08 01 52 ...2..."...R...R
00004B80 1C 1D 4E DF 66 00 5E DF 60 00 6E DF 68 00 7E DF ..N.f.^.`.n.h.~.
00004B90 5E 00 00 5A 07 02 1C 02 1E 03 B0 5A FE FF 07 02 ^..Z.......Z....
00004BA0 1C 02 1E 03 1E 01 67 01 7E 54 4E 61 B0 54 3F 00 ......g.~TNa.T?.
00004BB0 40 61 A0 4B E6 55 D6 4B 60 61 40 61 02 56 00 11 @a.K.U.K`a@a.V..
00004BC0 62 AF 20 00 06 56 0C 10 62 AF 24 00 06 56 08 10 b. ..V..b.$..V..
00004BD0 82 AF 1C 00 08 56 04 10 68 A0 62 57 05 10 B0 60 .....V..h.bW...`
00004BE0 0B 00 67 02 1E 03 38 92 B3 52 2A 00 16 08 B3 52 ..g...8..R*....R
00004BF0 45 00 12 08 62 21 B3 52 5B 00 16 08 62 21 B3 52 E...b!.R[...b!.R
00004C00 67 00 16 08 62 21 B3 52 71 00 16 08 62 21 B3 52 g...b!.Rq...b!.R
00004C10 9A 02 16 08 62 21 02 50 09 10 B3 32 C7 FF B3 22 ....b!.P...2..."
00004C20 EF FF 03 52 12 08 02 52 1B 1D 28 9C 12 52 06 14 ...R...R..(..R..
00004C30 22 52 0D 11 02 52 09 11 66 54 28 9F 2A 00 F2 52 "R...R..fT(.*..R
00004C40 05 10 50 60 60 61 67 02 1E 03 28 9F 44 00 F2 52 ..P``ag...(.D..R
00004C50 19 1F 40 55 40 4B E0 61 4E 55 2E 4B E0 61 74 4A ..@U@K.aNU.K.atJ
00004C60 40 61 60 61 67 02 1E 03 06 54 E8 1E C8 AF 1C 00 @a`ag....T......
00004C70 0C 56 0A 12 2C A6 02 56 0A 12 6C 98 26 32 66 5F .V..,..V..l.&2f_
00004C80 B6 60 12 00 AC AA 0A 56 08 10 16 60 1A 60 92 54 .`.....V...`.`.T
00004C90 A2 61 22 B0 02 50 1A 1F AC AF 1C 00 0A 56 08 10 .a"..P.......V..
00004CA0 16 60 1A 60 92 54 A2 61 22 B0 02 50 1A 1F 2C 9F .`.`.T.a"..P..,.
00004CB0 22 00 02 52 03 1C 26 60 E1 1C 28 9F 56 00 02 52 "..R..&`..(.V..R
00004CC0 0C 1B A6 54 EB 1B B6 54 12 00 E8 1B B6 54 12 00 ...T...T.....T..
00004CD0 EA 1D 00 00                                     ....            

;; fn00004CD4: 00004CD4
;;   Called from:
;;     00001E28 (in fn00001DFA)
;;     00002024 (in fn00001F0C)
;;     0000206C (in fn00001F0C)
;;     00002DD0 (in fn00002D76)
fn00004CD4 proc
	push	$2,r13,ra
	push	$7,r7
	addd	$-12,sp
	movd	r12,(r3,r2)
	storw	r4,(sp)
	cmpd	$0,(r3,r2)
	beq	00005166

l00004CE6:
	loadd	0x40(r3,r2),(r1,r0)
	cmpd	$0,(r1,r0)
	beq	00005166

l00004CF0:
	loadd	0x48(r3,r2),(r1,r0)
	cmpd	$0,(r1,r0)
	beq	00005166

l00004CFA:
	loadd	0x38(r3,r2),r13
	cmpd	$0,r13
	beq	00005166

l00004D04:
	loadd	(r13),(r3,r2)
	movw	$FFFE,r0
	cmpd	r12,(r3,r2)
	beq	00004D14

l00004D0E:
	addd	$12,sp
	pop	$7,r7
	popret	$2,r13,ra

l00004D14:
	loadw	4(r13),r2
	cmpw	$2A,r2
	sne	r3
	cmpw	$45,r2
	sne	r1
	andb	r3,r1
	cmpw	$5B,r2
	sne	r3
	andb	r3,r1
	cmpw	$67,r2
	sne	r3
	andb	r3,r1
	cmpw	$71,r2
	sne	r3
	andb	r3,r1
	cmpw	$29A,r2
	sne	r3
	andb	r3,r1
	cmpb	$0,r1
	beq	00004D5A

l00004D48:
	movw	$FFC7,r1
	addw	r2,r1
	andw	$FFEF,r1
	cmpw	$0,r1
	sne	r1
	cmpw	$0,r1
	bne	00004D0E

l00004D5A:
	loadw	(sp),r0
	cmpw	$5,r0
	blo	00005166

l00004D62:
	loadd	0xC(r12),(r1,r0)
	cmpd	$0,(r1,r0)
	beq	00005D58

l00004D6A:
	loadw	4(r12),r3
	cmpw	$0,r3
	beq	00004D78

l00004D70:
	loadd	(r12),(r1,r0)
	cmpd	$0,(r1,r0)
	beq	00005D58

l00004D78:
	loadw	(sp),r1
	cmpw	$4,r1
	sne	r0
	movb	r0,r1
	cmpw	$29A,r2
	seq	r0
	cmpw	$0,r0
	beq	00004D90

l00004D8A:
	cmpb	$0,r1
	bne	00005D58

l00004D90:
	loadw	0x10(r12),r0
	cmpw	$0,r0
	beq	00005D2C

l00004D98:
	loadw	0x4C(r13),r0
	loadw	(sp),r4
	storw	r4,0x4C(r13)
	loadd	0x14(r13),(r5,r4)
	cmpd	$0,(r5,r4)
	bne	00005148

l00004DAA:
	cmpw	$0,r3
	bne	00004F82

l00004DB0:
	loadw	(sp),r4
	addw	r4,r4
	loadw	(sp),r3
	cmpw	$5,r3
	bne	00004DBC

l00004DBA:
	movw	$1,r4

l00004DBC:
	movw	r0,r3
	addw	r0,r3
	cmpw	$4,r0
	bge	00004DC8

l00004DC4:
	addw	$FFF7,r3

l00004DC8:
	cmpw	r4,r3
	sge	r0
	cmpw	$0,r0
	beq	00004DD6

l00004DD0:
	cmpb	$0,r1
	bne	00005D2C

l00004DD6:
	cmpw	$29A,r2
	bne	00004F8A

l00004DDE:
	loadw	4(r12),r3
	cmpw	$0,r3
	bne	00005D2C

l00004DE6:
	loadw	0xB4(r13),r0
	cmpw	$0,r0
	beq	0000561A

l00004DF0:
	loadw	0xC4(r13),r0
	cmpw	$0,r0
	beq	000055CA

l00004DFA:
	loadw	0xC8(r13),r1
	cmpw	$2,r1
	beq	0000574C

l00004E04:
	cmpw	$3,r1
	beq	000059C2

l00004E0A:
	movxw	r0,(r1,r0)
	movd	(r3,r2),(r1,r0)
	addd	(r1,r0),(r3,r2)
	addd	(r3,r2),(r1,r0)
	ashud	$2,(r1,r0)
	movd	$E5A4,(r3,r2)
	addd	(r3,r2),(r1,r0)
	loadd	8(r1,r0),(r1,r0)
	loadw	(sp),r4
	movd	(r3,r2),r13
	jal	ra,(r1,r0)

l00004E22:
	movw	$FFFE,r1
	addw	r0,r1
	cmpw	$1,r1
	bhs	00005B7C

l00004E2E:
	movw	$FFFD,r1
	andw	r0,r1
	cmpw	$0,r1
	beq	0000520A

l00004E3A:
	cmpw	$1,r0
	bne	00004EB6

l00004E3E:
	loadw	(sp),r3
	cmpw	$1,r3
	beq	00005D22

l00004E46:
	cmpw	$5,r3
	beq	00004E62

l00004E4A:
	movd	$0,(r9,r8)
	push	$2,r8
	movw	$0,r6
	movd	(r5,r4),(r9,r8)
	movd	(r3,r2),r13
	bal	ra,fn0000AF94
	addd	$4,sp
	loadw	(sp),r4
	cmpw	$3,r4
	beq	00005EEA

l00004E62:
	loadd	0x38(r12),(r9,r8)
	movd	(r3,r2),(r9,r8)
	bal	ra,fn0000B09C
	loadw	0x10(r12),r0
	loadw	0x14(r9,r8),r7
	cmpw	r7,r0
	bhs	00004E76

l00004E74:
	movw	r0,r7

l00004E76:
	cmpw	$0,r7
	beq	00004EB0

l00004E7A:
	movzw	r7,(r11,r10)
	loadd	0xC(r12),(r3,r2)
	loadd	0x10(r9,r8),(r5,r4)
	push	$2,r10
	bal	ra,fn0000DB24
	loadd	0xC(r12),(r1,r0)
	addd	(r11,r10),(r1,r0)
	stord	(r1,r0),0xC(r12)
	loadd	0x10(r9,r8),(r1,r0)
	addd	(r11,r10),(r1,r0)
	stord	(r1,r0),0x10(r9,r8)
	loadd	0x14(r12),(r1,r0)
	addd	(r11,r10),(r1,r0)
	stord	(r1,r0),0x14(r12)
	loadw	0x10(r12),r0
	subw	r7,r0
	storw	r0,0x10(r12)
	loadd	0x14(r9,r8),(r3,r2)
	subd	(r3,r2),(r11,r10)
	stord	(r3,r2),0x14(r9,r8)
	addd	$4,sp
	cmpd	$0,(r3,r2)
	bne	00004EB0

l00004EAC:
	loadd	8(r9,r8),(r3,r2)
	stord	(r3,r2),0x10(r9,r8)

l00004EB0:
	cmpw	$0,r0
	beq	00005212

l00004EB6:
	loadw	(sp),r0
	cmpw	$4,r0
	bne	0000581E

l00004EBE:
	loadw	0x18(r13),r3
	cmpw	$0,r3
	bge	00005D18

l00004EC6:
	loadw	0x60(r12),r8
	loadw	0x64(r12),r2
	loadd	0x14(r13),(r1,r0)
	movd	$1,(r5,r4)
	addd	(r1,r0),(r5,r4)
	loadd	8(r13),(r7,r6)
	addd	(r7,r6),(r1,r0)
	stord	(r5,r4),0x14(r13)
	cmpw	$2,r3
	beq	00005DFA

l00004EE0:
	movw	r2,r3
	lshw	$-8,r3
	storb	r3,(r1,r0)
	loadd	8(r13),(r1,r0)
	loadd	0x14(r13),(r5,r4)
	movd	$1,(r7,r6)
	addd	(r5,r4),(r7,r6)
	stord	(r7,r6),0x14(r13)
	addd	(r5,r4),(r1,r0)
	storb	r2,(r1,r0)
	loadw	0x60(r12),r2
	loadd	8(r13),(r1,r0)
	loadd	0x14(r13),(r5,r4)
	movd	$1,(r7,r6)
	addd	(r5,r4),(r7,r6)
	stord	(r7,r6),0x14(r13)
	addd	(r5,r4),(r1,r0)
	movw	r2,r3
	lshw	$-8,r3
	storb	r3,(r1,r0)
	loadd	8(r13),(r1,r0)
	loadd	0x14(r13),(r5,r4)
	movd	$1,(r7,r6)
	addd	(r5,r4),(r7,r6)
	stord	(r7,r6),0x14(r13)
	addd	(r5,r4),(r1,r0)
	storb	r2,(r1,r0)

l00004F18:
	loadd	0x38(r12),(r9,r8)
	movd	(r3,r2),(r9,r8)
	bal	ra,fn0000B09C
	loadw	0x14(r9,r8),r0
	loadw	0x10(r12),r7
	cmpw	r7,r0
	bhs	00004F2C

l00004F2A:
	movw	r0,r7

l00004F2C:
	cmpw	$0,r7
	beq	00004F66

l00004F30:
	movzw	r7,(r11,r10)
	loadd	0xC(r12),(r3,r2)
	loadd	0x10(r9,r8),(r5,r4)
	push	$2,r10
	bal	ra,fn0000DB24
	loadd	0xC(r12),(r1,r0)
	addd	(r11,r10),(r1,r0)
	stord	(r1,r0),0xC(r12)
	loadd	0x10(r9,r8),(r1,r0)
	addd	(r11,r10),(r1,r0)
	stord	(r1,r0),0x10(r9,r8)
	loadd	0x14(r12),(r1,r0)
	addd	(r11,r10),(r1,r0)
	stord	(r1,r0),0x14(r12)
	loadw	0x10(r12),r0
	subw	r7,r0
	storw	r0,0x10(r12)
	loadd	0x14(r9,r8),(r1,r0)
	subd	(r1,r0),(r11,r10)
	stord	(r1,r0),0x14(r9,r8)
	addd	$4,sp
	cmpd	$0,(r1,r0)
	bne	00004F66

l00004F62:
	loadd	8(r9,r8),(r1,r0)
	stord	(r1,r0),0x10(r9,r8)

l00004F66:
	loadw	0x18(r13),r0
	cmpw	$0,r0
	bge	00004F72

l00004F6C:
	movw	$0,r1
	subw	r0,r1
	storw	r1,0x18(r13)

l00004F72:
	loadw	0x14(r13),r0
	loadw	0x16(r13),r1
	orw	r1,r0
	cmpw	$0,r0
	seq	r0
	addd	$12,sp
	pop	$7,r7
	popret	$2,r13,ra

l00004F82:
	cmpw	$29A,r2
	beq	00005D2C

l00004F8A:
	cmpw	$2A,r2
	bne	00005068

l00004F90:
	loadw	0x54(r13),r7
	ashuw	$12,r7
	addw	$8800,r7
	loadw	0xC8(r13),r0
	cmpw	$1,r0
	bge	00005630

l00004FA4:
	loadw	0xAC(r13),r0
	cmpw	$0,r0
	beq	00004FB0

l00004FAC:
	orw	$20,r7

l00004FB0:
	movw	$1F,r3
	movw	r7,r2
	bal	ra,fn0000D4A4
	movw	$1F,r2
	addw	r7,r2
	subw	r0,r2
	loadd	8(r13),(r1,r0)
	loadd	0x14(r13),(r5,r4)
	movd	$1,(r7,r6)
	addd	(r5,r4),(r7,r6)
	stord	(r7,r6),0x14(r13)
	addd	(r5,r4),(r1,r0)
	movw	r2,r3
	lshw	$-8,r3
	storb	r3,(r1,r0)
	loadd	8(r13),(r1,r0)
	loadd	0x14(r13),(r5,r4)
	movd	$1,(r7,r6)
	addd	(r5,r4),(r7,r6)
	stord	(r7,r6),0x14(r13)
	addd	(r5,r4),(r1,r0)
	storb	r2,(r1,r0)
	loadw	0xAC(r13),r0
	cmpw	$0,r0
	beq	00005032

l00004FEA:
	loadw	0x64(r12),r2
	loadd	8(r13),(r1,r0)
	loadd	0x14(r13),(r5,r4)
	movd	$1,(r7,r6)
	addd	(r5,r4),(r7,r6)
	stord	(r7,r6),0x14(r13)
	addd	(r5,r4),(r1,r0)
	movw	r2,r3
	lshw	$-8,r3
	storb	r3,(r1,r0)
	loadd	8(r13),(r1,r0)
	loadd	0x14(r13),(r5,r4)
	movd	$1,(r7,r6)
	addd	(r5,r4),(r7,r6)
	stord	(r7,r6),0x14(r13)
	addd	(r5,r4),(r1,r0)
	storb	r2,(r1,r0)
	loadw	0x60(r12),r2
	loadd	8(r13),(r1,r0)
	loadd	0x14(r13),(r5,r4)
	movd	$1,(r7,r6)
	addd	(r5,r4),(r7,r6)
	stord	(r7,r6),0x14(r13)
	addd	(r5,r4),(r1,r0)
	movw	r2,r3
	lshw	$-8,r3
	storb	r3,(r1,r0)
	loadd	8(r13),(r1,r0)
	loadd	0x14(r13),(r5,r4)
	movd	$1,(r7,r6)
	addd	(r5,r4),(r7,r6)
	stord	(r7,r6),0x14(r13)
	addd	(r5,r4),(r1,r0)
	storb	r2,(r1,r0)

l00005032:
	movw	$0,r6
	movd	$0,(r5,r4)
	movd	(r3,r2),(r5,r4)
	bal	ra,fn0000C0EE
	stord	(r1,r0),0x60(r12)
	movw	$71,r0
	storw	r0,4(r13)
	loadd	0x38(r12),(r9,r8)
	movd	(r3,r2),(r9,r8)
	bal	ra,fn0000B09C
	loadw	0x14(r9,r8),r0
	loadw	0x10(r12),r7
	cmpw	r7,r0
	blo	000055D6

l0000505A:
	cmpw	$0,r7
	bne	000055DE

l00005060:
	loadd	0x14(r13),(r1,r0)
	cmpd	$0,(r1,r0)
	bne	0000513A

l00005066:
	loadw	4(r13),r2

l00005068:
	cmpw	$39,r2
	beq	00005256

l00005070:
	cmpw	$45,r2
	beq	00005816

l00005078:
	cmpw	$49,r2
	beq	00005D3C

l00005080:
	cmpw	$5B,r2
	beq	00005DDE

l00005088:
	cmpw	$67,r2
	beq	00005DE6

l00005090:
	loadw	4(r12),r3
	cmpw	$0,r3
	bne	00004DF0

l00005098:
	br	00004DE6

l0000509C:
	loadd	0x38(r13),(r1,r0)
	loadw	0x44(r1,r0),r0
	cmpw	$0,r0
	beq	00005BC2

l000050AA:
	loadd	0x14(r13),(r7,r6)
	cmpd	(r7,r6),(r5,r4)
	bhs	000050CA

l000050B0:
	subw	r4,r6
	loadd	8(r13),(r1,r0)
	addd	(r1,r0),(r5,r4)
	loadd	0x60(r12),(r3,r2)
	bal	ra,fn0000CAF8
	stord	(r1,r0),0x60(r12)
	loadd	0x38(r13),(r1,r0)

l000050C6:
	loadw	0x44(r1,r0),r0

l000050CA:
	movw	$67,r1
	storw	r1,4(r13)

l000050D0:
	cmpw	$0,r0
	beq	00005BC2

l000050D6:
	loadd	0x14(r13),(r3,r2)
	movd	$2,(r5,r4)
	addd	(r3,r2),(r5,r4)
	loadd	0xC(r13),(r1,r0)
	cmpd	(r5,r4),(r1,r0)
	bhs	00005B90

l000050E4:
	loadd	0x38(r12),(r9,r8)
	movd	(r3,r2),(r9,r8)
	bal	ra,fn0000B09C
	loadw	0x14(r9,r8),r0
	loadw	0x10(r12),r7
	cmpw	r7,r0
	bhs	000050F8

l000050F6:
	movw	r0,r7

l000050F8:
	cmpw	$0,r7
	beq	00005132

l000050FC:
	movzw	r7,(r11,r10)
	loadd	0xC(r12),(r3,r2)
	loadd	0x10(r9,r8),(r5,r4)
	push	$2,r10
	bal	ra,fn0000DB24
	loadd	0xC(r12),(r1,r0)
	addd	(r11,r10),(r1,r0)
	stord	(r1,r0),0xC(r12)
	loadd	0x10(r9,r8),(r1,r0)
	addd	(r11,r10),(r1,r0)
	stord	(r1,r0),0x10(r9,r8)
	loadd	0x14(r12),(r1,r0)
	addd	(r11,r10),(r1,r0)
	stord	(r1,r0),0x14(r12)
	loadw	0x10(r12),r0
	subw	r7,r0
	storw	r0,0x10(r12)
	loadd	0x14(r9,r8),(r1,r0)
	subd	(r1,r0),(r11,r10)
	stord	(r1,r0),0x14(r9,r8)
	addd	$4,sp
	cmpd	$0,(r1,r0)
	bne	00005132

l0000512E:
	loadd	8(r9,r8),(r1,r0)
	stord	(r1,r0),0x10(r9,r8)

l00005132:
	loadd	0x14(r13),(r3,r2)
	cmpd	$0,(r3,r2)
	beq	00005B90

l0000513A:
	movw	$FFFF,r0
	storw	r0,0x4C(r13)
	movw	$0,r0
	addd	$12,sp
	pop	$7,r7
	popret	$2,r13,ra

l00005148:
	movd	(r3,r2),r13
	bal	ra,fn0000B09C
	loadw	0x10(r12),r0
	loadw	0x14(r13),r7
	cmpw	r7,r0
	bhs	00005158

l00005156:
	movw	r0,r7

l00005158:
	cmpw	$0,r7
	bne	0000521E

l0000515C:
	cmpw	$0,r0
	beq	00005212

l00005160:
	loadw	4(r13),r2
	br	00004DD6

l00005166:
	movw	$FFFE,r0
	addd	$12,sp
	pop	$7,r7
	popret	$2,r13,ra

l00005170:
	loadd	0x98(r13),(r5,r4)
	loadw	0xAC(r13),r0
	movzw	r0,(r1,r0)
	subd	(r1,r0),(r5,r4)
	cmpd	$0,(r5,r4)
	bgt	00005F24

l00005184:
	andd	$FFFF,(r5,r4)
	loadd	0x60(r13),(r3,r2)
	addd	(r3,r2),(r5,r4)

l00005190:
	push	$2,r0
	movw	$1,r6
	movd	(r3,r2),r13
	bal	ra,fn0000B218
	loadw	0xAC(r13),r0
	movzw	r0,(r1,r0)
	stord	(r1,r0),0x98(r13)
	loadd	(r13),(r9,r8)
	loadd	0x38(r9,r8),(r11,r10)
	movd	(r3,r2),(r11,r10)
	bal	ra,fn0000B09C
	loadw	0x14(r11,r10),r0
	loadw	0x10(r9,r8),r7
	addd	$4,sp
	cmpw	r7,r0
	bhs	000051BC

l000051BA:
	movw	r0,r7

l000051BC:
	cmpw	$0,r7
	beq	000051FA

l000051C0:
	movzw	r7,(r1,r0)
	stord	(r1,r0),(sp)
	loadd	0xC(r9,r8),(r3,r2)
	loadd	0x10(r11,r10),(r5,r4)
	push	$2,r0
	bal	ra,fn0000DB24
	loadd	0xC(r9,r8),(r1,r0)
	loadd	4(sp),(r3,r2)
	addd	(r3,r2),(r1,r0)
	stord	(r1,r0),0xC(r9,r8)
	loadd	0x10(r11,r10),(r1,r0)
	addd	(r3,r2),(r1,r0)
	stord	(r1,r0),0x10(r11,r10)
	loadd	0x14(r9,r8),(r1,r0)
	addd	(r3,r2),(r1,r0)
	stord	(r1,r0),0x14(r9,r8)
	loadw	0x10(r9,r8),r0
	subw	r7,r0
	storw	r0,0x10(r9,r8)
	loadd	0x14(r11,r10),(r1,r0)
	subd	(r1,r0),(r3,r2)
	stord	(r1,r0),0x14(r11,r10)
	addd	$4,sp
	cmpd	$0,(r1,r0)
	bne	000051FA

l000051F6:
	loadd	8(r11,r10),(r1,r0)
	stord	(r1,r0),0x10(r11,r10)

l000051FA:
	loadd	(r13),(r1,r0)
	loadw	0x10(r1,r0),r0
	cmpw	$0,r0
	bne	00005E8C

l00005204:
	movw	$29A,r0
	storw	r0,4(r13)

l0000520A:
	loadw	0x10(r12),r0
	cmpw	$0,r0
	bne	0000581E

l00005212:
	movw	$FFFF,r1
	storw	r1,0x4C(r13)
	addd	$12,sp
	pop	$7,r7
	popret	$2,r13,ra

l0000521E:
	movzw	r7,(r9,r8)
	loadd	0xC(r12),(r3,r2)
	loadd	0x10(r13),(r5,r4)
	push	$2,r8
	bal	ra,fn0000DB24
	loadd	0xC(r12),(r1,r0)
	addd	(r9,r8),(r1,r0)
	stord	(r1,r0),0xC(r12)
	loadd	0x10(r13),(r1,r0)
	addd	(r9,r8),(r1,r0)
	stord	(r1,r0),0x10(r13)
	loadd	0x14(r12),(r1,r0)
	addd	(r9,r8),(r1,r0)
	stord	(r1,r0),0x14(r12)
	loadw	0x10(r12),r0
	subw	r7,r0
	storw	r0,0x10(r12)
	loadd	0x14(r13),(r3,r2)
	subd	(r3,r2),(r9,r8)
	stord	(r3,r2),0x14(r13)
	addd	$4,sp
	cmpd	$0,(r3,r2)
	bne	0000515C

l00005250:
	loadd	8(r13),(r3,r2)
	stord	(r3,r2),0x10(r13)
	br	0000515C

l00005256:
	movw	$0,r6
	movd	$0,(r5,r4)
	movd	(r3,r2),(r5,r4)
	bal	ra,fn0000CAF8
	stord	(r1,r0),0x60(r12)
	loadd	8(r13),(r1,r0)
	loadd	0x14(r13),(r3,r2)
	movd	$1,(r5,r4)
	addd	(r3,r2),(r5,r4)
	stord	(r5,r4),0x14(r13)
	addd	(r3,r2),(r1,r0)
	movb	$1F,r2
	storb	r2,(r1,r0)
	loadd	8(r13),(r1,r0)
	loadd	0x14(r13),(r3,r2)
	movd	$1,(r5,r4)
	addd	(r3,r2),(r5,r4)
	stord	(r5,r4),0x14(r13)
	addd	(r3,r2),(r1,r0)
	movb	$8B,r2
	storb	r2,(r1,r0)
	loadd	8(r13),(r1,r0)
	loadd	0x14(r13),(r3,r2)
	movd	$1,(r5,r4)
	addd	(r3,r2),(r5,r4)
	stord	(r5,r4),0x14(r13)
	addd	(r3,r2),(r1,r0)
	storb	$8,(r1,r0)
	loadd	0x38(r13),(r1,r0)
	cmpd	$0,(r1,r0)
	beq	00005C22

l000052A0:
	loadw	(r1,r0),r2
	cmpw	$0,r2
	sne	r2
	movb	r2,r6
	loadw	0x44(r1,r0),r3
	cmpw	$0,r3
	beq	000052B4

l000052B0:
	movb	$2,r6
	addb	r2,r6

l000052B4:
	loadd	0xC(r1,r0),(r3,r2)
	cmpd	$0,(r3,r2)
	beq	000052BC

l000052BA:
	addb	$4,r6

l000052BC:
	loadd	0x14(r1,r0),(r3,r2)
	cmpd	$0,(r3,r2)
	beq	000052C4

l000052C2:
	addb	$8,r6

l000052C4:
	loadd	0x38(r1,r0),(r1,r0)
	cmpd	$0,(r1,r0)
	beq	000052D2

l000052CC:
	movb	$10,r0
	addb	r0,r6

l000052D2:
	loadd	8(r13),(r1,r0)
	loadd	0x14(r13),(r3,r2)
	movd	$1,(r5,r4)
	addd	(r3,r2),(r5,r4)
	stord	(r5,r4),0x14(r13)
	addd	(r3,r2),(r1,r0)
	storb	r6,(r1,r0)
	loadd	0x38(r13),(r1,r0)
	loadw	4(r1,r0),r6
	loadd	8(r13),(r1,r0)
	loadd	0x14(r13),(r3,r2)
	movd	$1,(r5,r4)
	addd	(r3,r2),(r5,r4)
	stord	(r5,r4),0x14(r13)
	addd	(r3,r2),(r1,r0)
	storb	r6,(r1,r0)
	loadd	0x38(r13),(r1,r0)
	loadd	4(r1,r0),(r7,r6)
	lshd	$-24,(r7,r6)
	loadd	8(r13),(r1,r0)
	loadd	0x14(r13),(r3,r2)
	movd	$1,(r5,r4)
	addd	(r3,r2),(r5,r4)
	stord	(r5,r4),0x14(r13)
	addd	(r3,r2),(r1,r0)
	storb	r6,(r1,r0)
	loadd	0x38(r13),(r1,r0)
	loadw	6(r1,r0),r6
	loadd	8(r13),(r1,r0)
	loadd	0x14(r13),(r3,r2)
	movd	$1,(r5,r4)
	addd	(r3,r2),(r5,r4)
	stord	(r5,r4),0x14(r13)
	addd	(r3,r2),(r1,r0)
	storb	r6,(r1,r0)
	loadd	0x38(r13),(r1,r0)
	loadw	6(r1,r0),r6
	lshw	$-8,r6
	loadd	8(r13),(r1,r0)
	loadd	0x14(r13),(r3,r2)
	movd	$1,(r5,r4)
	addd	(r3,r2),(r5,r4)
	stord	(r5,r4),0x14(r13)
	addd	(r3,r2),(r1,r0)
	storb	r6,(r1,r0)
	loadw	0xC4(r13),r0
	cmpw	$9,r0
	beq	00005D44

l00005340:
	loadw	0xC8(r13),r1
	cmpw	$1,r1
	slt	r1
	cmpw	$0,r1
	bne	00005D52

l0000534E:
	cmpw	$1,r0
	sge	r6
	cmpb	$0,r6
	bne	00005D52

l00005358:
	loadd	8(r13),(r1,r0)
	loadd	0x14(r13),(r3,r2)
	movd	$1,(r5,r4)
	addd	(r3,r2),(r5,r4)
	stord	(r5,r4),0x14(r13)
	addd	(r3,r2),(r1,r0)
	storb	r6,(r1,r0)
	loadd	0x38(r13),(r1,r0)
	loadw	0xA(r1,r0),r6
	loadd	8(r13),(r1,r0)
	loadd	0x14(r13),(r3,r2)
	movd	$1,(r5,r4)
	addd	(r3,r2),(r5,r4)
	stord	(r5,r4),0x14(r13)
	addd	(r3,r2),(r1,r0)
	storb	r6,(r1,r0)
	loadd	0x38(r13),(r1,r0)
	loadd	0xC(r1,r0),(r3,r2)
	cmpd	$0,(r3,r2)
	beq	000053AE

l00005384:
	loadw	0x10(r1,r0),r6
	loadd	8(r13),(r1,r0)
	loadd	0x14(r13),(r3,r2)
	movd	$1,(r5,r4)
	addd	(r3,r2),(r5,r4)
	stord	(r5,r4),0x14(r13)
	addd	(r3,r2),(r1,r0)
	storb	r6,(r1,r0)
	loadd	0x38(r13),(r1,r0)
	loadw	0x10(r1,r0),r6
	lshw	$-8,r6
	loadd	8(r13),(r1,r0)
	loadd	0x14(r13),(r3,r2)
	movd	$1,(r5,r4)
	addd	(r3,r2),(r5,r4)
	stord	(r5,r4),0x14(r13)
	addd	(r3,r2),(r1,r0)
	storb	r6,(r1,r0)
	loadd	0x38(r13),(r1,r0)

l000053AE:
	loadw	0x44(r1,r0),r2
	cmpw	$0,r2
	beq	000053CA

l000053B6:
	loadw	0x14(r13),r6
	loadd	8(r13),(r5,r4)
	loadd	0x60(r12),(r3,r2)
	bal	ra,fn0000CAF8
	stord	(r1,r0),0x60(r12)
	loadd	0x38(r13),(r1,r0)

l000053CA:
	movd	$0,(r3,r2)
	stord	(r3,r2),0x40(r13)
	movw	$45,r2
	storw	r2,4(r13)

l000053D6:
	loadd	0xC(r1,r0),(r5,r4)
	cmpd	$0,(r5,r4)
	beq	00005500

l000053DE:
	loadd	0x14(r13),(r11,r10)
	loadd	0x40(r13),ra
	loadw	0x10(r1,r0),r7
	movd	(r1,r0),ra
	subw	r0,r7
	storw	r7,4(sp)
	movzw	r7,(r9,r8)
	loadd	0xC(r13),(r1,r0)
	movd	(r3,r2),(r11,r10)
	addd	(r9,r8),(r3,r2)
	cmpd	(r1,r0),(r3,r2)
	bls	000054B8

l000053F8:
	movw	r0,r2
	subw	r10,r2
	storw	r2,8(sp)
	movzw	r2,(r9,r8)
	loadd	8(r13),(r3,r2)
	addd	(r11,r10),(r3,r2)
	addd	ra,(r5,r4)
	push	$2,r8
	bal	ra,fn0000DB24
	loadd	0xC(r13),(r1,r0)
	stord	(r1,r0),0x14(r13)
	loadd	0x38(r13),(r3,r2)
	addd	$4,sp
	loadw	0x44(r3,r2),r2
	cmpw	$0,r2
	sne	r2
	cmpw	$0,r2
	beq	0000543E

l00005422:
	cmpd	(r1,r0),(r11,r10)
	slo	r2
	cmpw	$0,r2
	beq	0000543E

l0000542A:
	movw	r0,r6
	subw	r10,r6
	loadd	8(r13),(r5,r4)
	addd	(r11,r10),(r5,r4)
	loadd	0x60(r12),(r3,r2)
	bal	ra,fn0000CAF8
	stord	(r1,r0),0x60(r12)

l0000543E:
	loadd	0x40(r13),(r1,r0)
	addd	(r1,r0),(r9,r8)
	stord	(r9,r8),0x40(r13)
	loadd	0x38(r12),(r9,r8)
	movd	(r3,r2),(r9,r8)
	bal	ra,fn0000B09C
	loadw	0x14(r9,r8),r0
	loadw	0x10(r12),r7
	cmpw	r7,r0
	bhs	0000545C

l0000545A:
	movw	r0,r7

l0000545C:
	cmpw	$0,r7
	beq	00005496

l00005460:
	movzw	r7,(r11,r10)
	loadd	0xC(r12),(r3,r2)
	loadd	0x10(r9,r8),(r5,r4)
	push	$2,r10
	bal	ra,fn0000DB24
	loadd	0xC(r12),(r1,r0)
	addd	(r11,r10),(r1,r0)
	stord	(r1,r0),0xC(r12)
	loadd	0x10(r9,r8),(r1,r0)
	addd	(r11,r10),(r1,r0)
	stord	(r1,r0),0x10(r9,r8)
	loadd	0x14(r12),(r1,r0)
	addd	(r11,r10),(r1,r0)
	stord	(r1,r0),0x14(r12)
	loadw	0x10(r12),r0
	subw	r7,r0
	storw	r0,0x10(r12)
	loadd	0x14(r9,r8),(r1,r0)
	subd	(r1,r0),(r11,r10)
	stord	(r1,r0),0x14(r9,r8)
	addd	$4,sp
	cmpd	$0,(r1,r0)
	bne	00005496

l00005492:
	loadd	8(r9,r8),(r1,r0)
	stord	(r1,r0),0x10(r9,r8)

l00005496:
	loadd	0x14(r13),(r11,r10)
	cmpd	$0,(r11,r10)
	bne	0000513A

l0000549E:
	loadw	4(sp),r3
	loadw	8(sp),r4
	subw	r4,r3
	storw	r3,4(sp)
	movzw	r3,(r9,r8)
	loadd	0xC(r13),(r1,r0)
	loadd	0x38(r13),(r3,r2)
	loadd	0xC(r3,r2),(r5,r4)
	loadd	0x40(r13),ra
	cmpd	(r9,r8),(r1,r0)
	blo	000053F8

l000054B8:
	loadd	8(r13),(r3,r2)
	addd	(r11,r10),(r3,r2)
	addd	ra,(r5,r4)
	push	$2,r8
	bal	ra,fn0000DB24
	loadd	0x14(r13),(r7,r6)
	addd	(r9,r8),(r7,r6)
	stord	(r7,r6),0x14(r13)
	loadd	0x38(r13),(r1,r0)
	addd	$4,sp
	loadw	0x44(r1,r0),r2
	cmpw	$0,r2
	sne	r2
	cmpw	$0,r2
	beq	000054FA

l000054DC:
	cmpd	(r7,r6),(r11,r10)
	slo	r2
	cmpw	$0,r2
	beq	000054FA

l000054E4:
	subw	r10,r6
	loadd	8(r13),(r5,r4)
	addd	(r11,r10),(r5,r4)
	loadd	0x60(r12),(r3,r2)
	bal	ra,fn0000CAF8
	stord	(r1,r0),0x60(r12)
	loadd	0x38(r13),(r1,r0)

l000054FA:
	movd	$0,(r3,r2)
	stord	(r3,r2),0x40(r13)

l00005500:
	movw	$49,r2
	storw	r2,4(r13)

l00005506:
	loadd	0x14(r1,r0),(r3,r2)
	cmpd	$0,(r3,r2)
	beq	00005AAE

l0000550E:
	loadd	0x14(r13),(r5,r4)
	movd	(r7,r6),(r5,r4)
	br	0000553E

l00005514:
	loadd	0x14(r1,r0),(r1,r0)
	loadd	0x40(r13),(r3,r2)
	movd	$1,(r9,r8)
	addd	(r3,r2),(r9,r8)
	stord	(r9,r8),0x40(r13)
	addd	(r3,r2),(r1,r0)
	loadb	(r1,r0),r2
	loadd	8(r13),(r1,r0)
	movd	$1,(r9,r8)
	addd	(r7,r6),(r9,r8)
	stord	(r9,r8),0x14(r13)
	addd	(r7,r6),(r1,r0)
	storb	r2,(r1,r0)
	cmpb	$0,r2
	beq	00005A80

l00005538:
	loadd	0x14(r13),(r7,r6)
	loadd	0x38(r13),(r1,r0)

l0000553E:
	loadd	0xC(r13),(r3,r2)
	cmpd	(r3,r2),(r7,r6)
	bne	00005514

l00005544:
	loadw	0x44(r1,r0),r0
	cmpw	$0,r0
	sne	r0
	cmpw	$0,r0
	beq	0000556A

l00005550:
	cmpd	(r5,r4),(r7,r6)
	shi	r0
	cmpw	$0,r0
	beq	0000556A

l00005558:
	subw	r4,r6
	loadd	8(r13),(r1,r0)
	addd	(r1,r0),(r5,r4)
	loadd	0x60(r12),(r3,r2)
	bal	ra,fn0000CAF8
	stord	(r1,r0),0x60(r12)

l0000556A:
	loadd	0x38(r12),(r9,r8)
	movd	(r3,r2),(r9,r8)
	bal	ra,fn0000B09C
	loadw	0x14(r9,r8),r0
	loadw	0x10(r12),r7
	cmpw	r7,r0
	bhs	0000557E

l0000557C:
	movw	r0,r7

l0000557E:
	cmpw	$0,r7
	beq	000055B8

l00005582:
	movzw	r7,(r11,r10)
	loadd	0xC(r12),(r3,r2)
	loadd	0x10(r9,r8),(r5,r4)
	push	$2,r10
	bal	ra,fn0000DB24
	loadd	0xC(r12),(r1,r0)
	addd	(r11,r10),(r1,r0)
	stord	(r1,r0),0xC(r12)
	loadd	0x10(r9,r8),(r1,r0)
	addd	(r11,r10),(r1,r0)
	stord	(r1,r0),0x10(r9,r8)
	loadd	0x14(r12),(r1,r0)
	addd	(r11,r10),(r1,r0)
	stord	(r1,r0),0x14(r12)
	loadw	0x10(r12),r0
	subw	r7,r0
	storw	r0,0x10(r12)
	loadd	0x14(r9,r8),(r1,r0)
	subd	(r1,r0),(r11,r10)
	stord	(r1,r0),0x14(r9,r8)
	addd	$4,sp
	cmpd	$0,(r1,r0)
	bne	000055B8

l000055B4:
	loadd	8(r9,r8),(r1,r0)
	stord	(r1,r0),0x10(r9,r8)

l000055B8:
	loadd	0x14(r13),(r7,r6)
	cmpd	$0,(r7,r6)
	bne	0000513A

l000055C0:
	loadd	0x38(r13),(r1,r0)
	movw	$0,r4
	movw	r4,r5
	br	00005514

l000055CA:
	loadw	(sp),r4
	movd	(r3,r2),r13
	bal	ra,fn000033F8
	br	00004E22

l000055D6:
	movw	r0,r7
	cmpw	$0,r7
	beq	00005060

l000055DE:
	movzw	r7,(r11,r10)
	loadd	0xC(r12),(r3,r2)
	loadd	0x10(r9,r8),(r5,r4)
	push	$2,r10
	bal	ra,fn0000DB24
	loadd	0xC(r12),(r1,r0)
	addd	(r11,r10),(r1,r0)
	stord	(r1,r0),0xC(r12)
	loadd	0x10(r9,r8),(r1,r0)
	addd	(r11,r10),(r1,r0)
	stord	(r1,r0),0x10(r9,r8)
	loadd	0x14(r12),(r1,r0)
	addd	(r11,r10),(r1,r0)
	stord	(r1,r0),0x14(r12)
	loadw	0x10(r12),r0
	subw	r7,r0
	storw	r0,0x10(r12)
	loadd	0x14(r9,r8),(r1,r0)
	subd	(r1,r0),(r11,r10)
	stord	(r1,r0),0x14(r9,r8)
	addd	$4,sp
	cmpd	$0,(r1,r0)
	bne	00005060

l00005612:
	loadd	8(r9,r8),(r1,r0)
	stord	(r1,r0),0x10(r9,r8)
	br	00005060

l0000561A:
	loadw	(sp),r0
	cmpw	$0,r0
	beq	0000581E

l00005622:
	loadw	4(r13),r0
	cmpw	$29A,r0
	bne	00004DF0

l0000562C:
	br	00004EB6

l00005630:
	loadw	0xC4(r13),r0
	cmpw	$1,r0
	bge	00004FA4

l0000563A:
	cmpw	$5,r0
	bge	00005D10

l00005640:
	cmpw	$6,r0
	beq	00005E84

l00005646:
	orw	$C0,r7
	br	00004FA4

l0000564E:
	cmpw	$0,r7
	beq	00005754

l00005654:
	storw	$0,0x50(r13)
	loadw	0xAC(r13),r0
	movzw	r0,(r3,r2)
	loadd	0x60(r13),(r1,r0)
	addd	(r3,r2),(r1,r0)
	loadb	(r1,r0),r0
	loadw	0x23EC(r13),r1
	movzw	r1,(r5,r4)
	loadd	0x23F0(r13),(r3,r2)
	movd	(r7,r6),(r5,r4)
	addd	(r5,r4),(r7,r6)
	addd	(r7,r6),(r3,r2)
	storw	$0,(r3,r2)
	loadd	0x23E0(r13),(r3,r2)
	addw	$1,r1
	storw	r1,0x23EC(r13)
	addd	(r5,r4),(r3,r2)
	storb	r0,(r3,r2)
	movzb	r0,(r1,r0)
	movzw	r0,(r1,r0)
	ashud	$2,(r1,r0)
	addd	r13,(r1,r0)
	loadw	0xD4(r1,r0),r2
	addw	$1,r2
	storw	r2,0xD4(r1,r0)
	loadw	0x23EC(r13),r2
	loadw	0x23E8(r13),r1
	addw	$FFFF,r1
	loadw	0xB4(r13),r7
	addw	$FFFF,r7
	storw	r7,0xB4(r13)
	loadw	0xAC(r13),r0
	addw	$1,r0
	storw	r0,0xAC(r13)
	cmpw	r2,r1
	bne	0000564E

l000056BA:
	loadd	0x98(r13),(r5,r4)
	movzw	r0,(r1,r0)
	subd	(r1,r0),(r5,r4)
	cmpd	$0,(r5,r4)
	bgt	00005D4A

l000056CA:
	andd	$FFFF,(r5,r4)
	loadd	0x60(r13),(r3,r2)
	addd	(r3,r2),(r5,r4)

l000056D6:
	push	$2,r0
	movw	$0,r6
	movd	(r3,r2),r13
	bal	ra,fn0000B218
	loadw	0xAC(r13),r0
	movzw	r0,(r1,r0)
	stord	(r1,r0),0x98(r13)
	loadd	(r13),(r9,r8)
	loadd	0x38(r9,r8),(r11,r10)
	movd	(r3,r2),(r11,r10)
	bal	ra,fn0000B09C
	loadw	0x14(r11,r10),r0
	loadw	0x10(r9,r8),r7
	addd	$4,sp
	cmpw	r7,r0
	bhs	00005702

l00005700:
	movw	r0,r7

l00005702:
	cmpw	$0,r7
	beq	00005742

l00005706:
	movzw	r7,(r3,r2)
	stord	(r3,r2),4(sp)
	loadd	0xC(r9,r8),(r3,r2)
	loadd	0x10(r11,r10),(r5,r4)
	loadd	4(sp),(r1,r0)
	push	$2,r0
	bal	ra,fn0000DB24
	loadd	0xC(r9,r8),(r1,r0)
	loadd	8(sp),(r3,r2)
	addd	(r3,r2),(r1,r0)
	stord	(r1,r0),0xC(r9,r8)
	loadd	0x10(r11,r10),(r1,r0)
	addd	(r3,r2),(r1,r0)
	stord	(r1,r0),0x10(r11,r10)
	loadd	0x14(r9,r8),(r1,r0)
	addd	(r3,r2),(r1,r0)
	stord	(r1,r0),0x14(r9,r8)
	loadw	0x10(r9,r8),r0
	subw	r7,r0
	storw	r0,0x10(r9,r8)
	loadd	0x14(r11,r10),(r1,r0)
	subd	(r1,r0),(r3,r2)
	stord	(r1,r0),0x14(r11,r10)
	addd	$4,sp
	cmpd	$0,(r1,r0)
	bne	00005742

l0000573E:
	loadd	8(r11,r10),(r1,r0)
	stord	(r1,r0),0x10(r11,r10)

l00005742:
	loadd	(r13),(r1,r0)
	loadw	0x10(r1,r0),r0
	cmpw	$0,r0
	beq	0000520A

l0000574C:
	loadw	0xB4(r13),r7
	cmpw	$0,r7
	bne	00005654

l00005754:
	movd	(r3,r2),r13
	bal	ra,fn000030F2
	loadw	0xB4(r13),r0
	cmpw	$0,r0
	bne	00005654

l00005764:
	loadw	(sp),r1
	cmpw	$0,r1
	beq	0000520A

l0000576C:
	storw	r7,0x240C(r13)
	cmpw	$4,r1
	beq	00005170

l00005776:
	loadw	0x23EC(r13),r0
	cmpw	$0,r0
	beq	00004E3E

l00005780:
	loadd	0x98(r13),(r5,r4)
	loadw	0xAC(r13),r0
	movzw	r0,(r1,r0)
	subd	(r1,r0),(r5,r4)
	cmpd	$0,(r5,r4)
	bgt	00005F1E

l00005794:
	andd	$FFFF,(r5,r4)
	loadd	0x60(r13),(r3,r2)
	addd	(r3,r2),(r5,r4)

l000057A0:
	push	$2,r0
	movw	$0,r6
	movd	(r3,r2),r13
	bal	ra,fn0000B218
	loadw	0xAC(r13),r0
	movzw	r0,(r1,r0)
	stord	(r1,r0),0x98(r13)
	loadd	(r13),(r9,r8)
	loadd	0x38(r9,r8),(r11,r10)
	movd	(r3,r2),(r11,r10)
	bal	ra,fn0000B09C
	loadw	0x14(r11,r10),r0
	loadw	0x10(r9,r8),r7
	addd	$4,sp
	cmpw	r7,r0
	bhs	000057CC

l000057CA:
	movw	r0,r7

l000057CC:
	cmpw	$0,r7
	beq	0000580A

l000057D0:
	movzw	r7,(r1,r0)
	stord	(r1,r0),4(sp)
	loadd	0xC(r9,r8),(r3,r2)
	loadd	0x10(r11,r10),(r5,r4)

l000057D8:
	push	$2,r0
	bal	ra,fn0000DB24
	loadd	0xC(r9,r8),(r1,r0)
	loadd	8(sp),(r3,r2)
	addd	(r3,r2),(r1,r0)
	stord	(r1,r0),0xC(r9,r8)
	loadd	0x10(r11,r10),(r1,r0)
	addd	(r3,r2),(r1,r0)
	stord	(r1,r0),0x10(r11,r10)
	loadd	0x14(r9,r8),(r1,r0)
	addd	(r3,r2),(r1,r0)
	stord	(r1,r0),0x14(r9,r8)
	loadw	0x10(r9,r8),r0
	subw	r7,r0
	storw	r0,0x10(r9,r8)
	loadd	0x14(r11,r10),(r1,r0)
	subd	(r1,r0),(r3,r2)
	stord	(r1,r0),0x14(r11,r10)
	addd	$4,sp
	cmpd	$0,(r1,r0)
	bne	0000580A

l00005806:
	loadd	8(r11,r10),(r1,r0)
	stord	(r1,r0),0x10(r11,r10)

l0000580A:
	loadd	(r13),(r1,r0)
	loadw	0x10(r1,r0),r0
	cmpw	$0,r0
	sne	r0
	br	00004E2E

l00005816:
	loadd	0x38(r13),(r1,r0)
	br	000053D6

l0000581E:
	movw	$0,r0
	addd	$12,sp
	pop	$7,r7
	popret	$2,r13,ra

l00005826:
	loadb	2(r1,r0),r6
	cmpb	r8,r6
	bne	000059F0

l0000582E:
	loadb	3(r1,r0),r6
	cmpb	r8,r6
	bne	000059F0

l00005836:
	addd	$3,(r1,r0)
	movd	$102,(r7,r6)
	addd	(r3,r2),(r7,r6)
	addd	(r5,r4),(r7,r6)
	movd	ra,(r3,r2)
	br	00005888

l00005844:
	loadb	2(r1,r0),r10
	cmpb	r8,r10
	bne	00005F3E

l0000584C:
	loadb	3(r1,r0),r10
	cmpb	r8,r10
	bne	00005F4E

l00005854:
	loadb	4(r1,r0),r10
	cmpb	r8,r10
	bne	00005F46

l0000585C:
	loadb	5(r1,r0),r10
	cmpb	r8,r10
	bne	00005F6C

l00005864:
	loadb	6(r1,r0),r10
	cmpb	r8,r10
	bne	00005F64

l0000586C:
	loadb	7(r1,r0),r10
	cmpb	r8,r10
	bne	00005F5C

l00005874:
	addd	$8,(r1,r0)
	loadb	(r1,r0),r10
	cmpb	r10,r8
	seq	r3
	cmpd	(r7,r6),(r1,r0)
	slo	r10
	andb	r3,r10
	cmpb	$0,r10
	beq	00005F56

l00005888:
	loadb	1(r1,r0),r10
	cmpb	r8,r10
	beq	00005844

l0000588E:
	movd	(r3,r2),ra
	addd	$1,(r1,r0)

l00005892:
	subw	r6,r0
	movw	$102,r1
	addw	r0,r1
	storw	r1,0xA0(r13)
	cmpw	r1,r11
	bhs	00005F2A

l000058A4:
	storw	r11,0xA0(r13)
	movw	r11,r1

l000058AA:
	movb	$FD,r0
	addb	r1,r0
	loadw	0x23EC(r13),r1
	movzw	r1,(r3,r2)
	loadd	0x23F0(r13),(r5,r4)
	movd	(r7,r6),(r3,r2)
	addd	(r3,r2),(r7,r6)
	addd	(r7,r6),(r5,r4)
	storw	$1,(r5,r4)
	loadd	0x23E0(r13),(r5,r4)
	addw	$1,r1
	storw	r1,0x23EC(r13)
	addd	(r5,r4),(r3,r2)
	storb	r0,(r3,r2)
	movzb	r0,(r1,r0)
	movxw	r0,(r1,r0)
	addd	$62254,(r1,r0)
	loadb	(r1,r0),r0
	movzb	r0,(r1,r0)
	movzw	r0,(r1,r0)
	ashud	$2,(r1,r0)
	addd	r13,(r1,r0)
	loadw	0x8DC(r1,r0),r2
	addw	$1,r2
	storw	r2,0x8DC(r1,r0)
	movd	$F42E,(r4,r3)
	loadb	(r4,r3),r0
	movzb	r0,(r1,r0)
	movzw	r0,(r1,r0)
	ashud	$2,(r1,r0)
	addd	r13,(r1,r0)
	loadw	0x12BC(r1,r0),r2
	addw	$1,r2
	storw	r2,0x12BC(r1,r0)
	loadw	0x23E8(r13),r0
	addw	$FFFF,r0
	loadw	0x23EC(r13),r1
	cmpw	r0,r1
	seq	r1
	loadw	0xA0(r13),r0
	loadw	0xB4(r13),r11
	subw	r0,r11
	storw	r11,0xB4(r13)
	loadw	0xAC(r13),r2
	addw	r2,r0
	storw	r0,0xAC(r13)
	storw	$0,0x50(r13)
	cmpw	$0,r1
	beq	000059C8

l00005932:
	loadd	0x98(r13),(r5,r4)
	movzw	r0,(r1,r0)
	subd	(r1,r0),(r5,r4)
	cmpd	$0,(r5,r4)
	bgt	00005DF2

l00005942:
	andd	$FFFF,(r5,r4)
	loadd	0x60(r13),(r3,r2)
	addd	(r3,r2),(r5,r4)

l0000594E:
	push	$2,r0
	movw	$0,r6
	movd	(r3,r2),r13
	bal	ra,fn0000B218
	loadw	0xAC(r13),r0
	movzw	r0,(r1,r0)
	stord	(r1,r0),0x98(r13)
	loadd	(r13),(r9,r8)
	loadd	0x38(r9,r8),(r11,r10)
	movd	(r3,r2),(r11,r10)
	bal	ra,fn0000B09C
	loadw	0x14(r11,r10),r0
	loadw	0x10(r9,r8),r7
	addd	$4,sp
	cmpw	r7,r0
	bhs	0000597A

l00005978:
	movw	r0,r7

l0000597A:
	cmpw	$0,r7
	beq	000059B8

l0000597E:
	movzw	r7,(r1,r0)
	stord	(r1,r0),4(sp)
	loadd	0xC(r9,r8),(r3,r2)
	loadd	0x10(r11,r10),(r5,r4)
	push	$2,r0
	bal	ra,fn0000DB24
	loadd	0xC(r9,r8),(r1,r0)
	loadd	8(sp),(r3,r2)
	addd	(r3,r2),(r1,r0)
	stord	(r1,r0),0xC(r9,r8)
	loadd	0x10(r11,r10),(r1,r0)
	addd	(r3,r2),(r1,r0)
	stord	(r1,r0),0x10(r11,r10)
	loadd	0x14(r9,r8),(r1,r0)
	addd	(r3,r2),(r1,r0)
	stord	(r1,r0),0x14(r9,r8)
	loadw	0x10(r9,r8),r0
	subw	r7,r0
	storw	r0,0x10(r9,r8)
	loadd	0x14(r11,r10),(r1,r0)
	subd	(r1,r0),(r3,r2)
	stord	(r1,r0),0x14(r11,r10)
	addd	$4,sp
	cmpd	$0,(r1,r0)
	bne	000059B8

l000059B4:
	loadd	8(r11,r10),(r1,r0)
	stord	(r1,r0),0x10(r11,r10)

l000059B8:
	loadd	(r13),(r1,r0)
	loadw	0x10(r1,r0),r0
	cmpw	$0,r0
	beq	0000520A

l000059C2:
	loadw	0xB4(r13),r11
	loadw	(sp),r9

l000059C8:
	cmpw	$102,r11
	bhs	00005A50

l000059CE:
	storw	$0,0x50(r13)
	loadw	0xAC(r13),r0
	loadd	0x60(r13),(r5,r4)
	movzw	r0,(r3,r2)

l000059DC:
	cmpw	$0,r0
	beq	000059F0

l000059E0:
	movd	$FFFFFFFF,(r1,r0)
	addd	(r3,r2),(r1,r0)
	addd	(r5,r4),(r1,r0)
	loadb	(r1,r0),r8
	loadb	1(r1,r0),r6
	cmpb	r8,r6
	beq	00005826

l000059F0:
	addd	(r5,r4),(r3,r2)
	loadb	(r3,r2),r0
	loadw	0x23EC(r13),r1
	movzw	r1,(r3,r2)
	loadd	0x23F0(r13),(r5,r4)
	movd	(r7,r6),(r3,r2)
	addd	(r3,r2),(r7,r6)
	addd	(r7,r6),(r5,r4)
	storw	$0,(r5,r4)
	loadd	0x23E0(r13),(r5,r4)
	addw	$1,r1
	storw	r1,0x23EC(r13)
	addd	(r5,r4),(r3,r2)
	storb	r0,(r3,r2)
	movzb	r0,(r1,r0)
	movzw	r0,(r1,r0)
	ashud	$2,(r1,r0)
	addd	r13,(r1,r0)
	loadw	0xD4(r1,r0),r2
	addw	$1,r2
	storw	r2,0xD4(r1,r0)
	loadw	0x23E8(r13),r0
	addw	$FFFF,r0
	loadw	0x23EC(r13),r1
	cmpw	r0,r1
	seq	r1
	loadw	0xB4(r13),r11
	addw	$FFFF,r11
	storw	r11,0xB4(r13)
	loadw	0xAC(r13),r0
	addw	$1,r0
	storw	r0,0xAC(r13)
	cmpw	$0,r1
	beq	000059C8

l00005A4C:
	br	00005932

l00005A50:
	movd	(r3,r2),r13
	bal	ra,fn000030F2
	loadw	0xB4(r13),r11
	cmpw	$102,r11
	blo	000059CE

l00005A60:
	cmpw	$0,r9
	beq	0000520A

l00005A66:
	cmpw	$0,r11
	beq	00005D68

l00005A6C:
	storw	$0,0x50(r13)
	loadw	0xAC(r13),r0
	loadd	0x60(r13),(r5,r4)
	movzw	r0,(r3,r2)
	cmpw	$2,r11
	bhs	000059F0

l00005A7E:
	br	000059DC

l00005A80:
	loadd	0x38(r13),(r1,r0)
	loadw	0x44(r1,r0),r2
	cmpw	$0,r2
	beq	00005AA8

l00005A8C:
	loadd	0x14(r13),(r7,r6)
	cmpd	(r7,r6),(r5,r4)
	bhs	00005AA8

l00005A92:
	subw	r4,r6
	loadd	8(r13),(r1,r0)
	addd	(r1,r0),(r5,r4)
	loadd	0x60(r12),(r3,r2)
	bal	ra,fn0000CAF8
	stord	(r1,r0),0x60(r12)
	loadd	0x38(r13),(r1,r0)

l00005AA8:
	movd	$0,(r3,r2)
	stord	(r3,r2),0x40(r13)

l00005AAE:
	movw	$5B,r2
	storw	r2,4(r13)

l00005AB4:
	loadd	0x38(r1,r0),(r3,r2)
	cmpd	$0,(r3,r2)
	beq	000050C6

l00005ABE:
	loadd	0x14(r13),(r5,r4)
	movd	(r7,r6),(r5,r4)
	br	00005AF0

l00005AC4:
	loadd	0x38(r1,r0),(r1,r0)
	loadd	0x40(r13),(r3,r2)
	movd	$1,(r9,r8)
	addd	(r3,r2),(r9,r8)
	stord	(r9,r8),0x40(r13)
	addd	(r3,r2),(r1,r0)
	loadb	(r1,r0),r2
	loadd	8(r13),(r1,r0)
	movd	$1,(r9,r8)
	addd	(r7,r6),(r9,r8)
	stord	(r9,r8),0x14(r13)
	addd	(r7,r6),(r1,r0)
	storb	r2,(r1,r0)
	cmpb	$0,r2
	beq	0000509C

l00005AEA:
	loadd	0x14(r13),(r7,r6)
	loadd	0x38(r13),(r1,r0)

l00005AF0:
	loadd	0xC(r13),(r3,r2)
	cmpd	(r3,r2),(r7,r6)
	bne	00005AC4

l00005AF6:
	loadw	0x44(r1,r0),r0
	cmpw	$0,r0
	sne	r0
	cmpw	$0,r0
	beq	00005B1C

l00005B02:
	cmpd	(r5,r4),(r7,r6)
	shi	r0
	cmpw	$0,r0
	beq	00005B1C

l00005B0A:
	subw	r4,r6
	loadd	8(r13),(r1,r0)
	addd	(r1,r0),(r5,r4)
	loadd	0x60(r12),(r3,r2)
	bal	ra,fn0000CAF8
	stord	(r1,r0),0x60(r12)

l00005B1C:
	loadd	0x38(r12),(r9,r8)
	movd	(r3,r2),(r9,r8)
	bal	ra,fn0000B09C
	loadw	0x14(r9,r8),r0
	loadw	0x10(r12),r7
	cmpw	r7,r0
	bhs	00005B30

l00005B2E:
	movw	r0,r7

l00005B30:
	cmpw	$0,r7
	beq	00005B6A

l00005B34:
	movzw	r7,(r11,r10)
	loadd	0xC(r12),(r3,r2)
	loadd	0x10(r9,r8),(r5,r4)
	push	$2,r10
	bal	ra,fn0000DB24
	loadd	0xC(r12),(r1,r0)
	addd	(r11,r10),(r1,r0)
	stord	(r1,r0),0xC(r12)
	loadd	0x10(r9,r8),(r1,r0)
	addd	(r11,r10),(r1,r0)
	stord	(r1,r0),0x10(r9,r8)
	loadd	0x14(r12),(r1,r0)
	addd	(r11,r10),(r1,r0)
	stord	(r1,r0),0x14(r12)
	loadw	0x10(r12),r0
	subw	r7,r0
	storw	r0,0x10(r12)
	loadd	0x14(r9,r8),(r1,r0)
	subd	(r1,r0),(r11,r10)
	stord	(r1,r0),0x14(r9,r8)
	addd	$4,sp
	cmpd	$0,(r1,r0)
	bne	00005B6A

l00005B66:
	loadd	8(r9,r8),(r1,r0)
	stord	(r1,r0),0x10(r9,r8)

l00005B6A:
	loadd	0x14(r13),(r7,r6)
	cmpd	$0,(r7,r6)
	bne	0000513A

l00005B72:
	loadd	0x38(r13),(r1,r0)
	movw	$0,r4
	movw	r4,r5
	br	00005AC4

l00005B7C:
	movw	$29A,r1
	storw	r1,4(r13)
	andw	$FFFD,r0
	cmpw	$0,r0
	bne	00004EB6

l00005B8C:
	br	0000520A

l00005B90:
	loadw	0x60(r12),r6
	loadd	8(r13),(r1,r0)
	movd	$1,(r5,r4)
	addd	(r3,r2),(r5,r4)
	stord	(r5,r4),0x14(r13)
	addd	(r3,r2),(r1,r0)
	storb	r6,(r1,r0)
	loadd	0x60(r12),(r7,r6)
	lshd	$-24,(r7,r6)
	loadd	8(r13),(r1,r0)
	loadd	0x14(r13),(r3,r2)
	movd	$1,(r5,r4)
	addd	(r3,r2),(r5,r4)
	stord	(r5,r4),0x14(r13)
	addd	(r3,r2),(r1,r0)
	storb	r6,(r1,r0)
	movw	$0,r6
	movd	$0,(r5,r4)
	movd	(r3,r2),(r5,r4)
	bal	ra,fn0000CAF8
	stord	(r1,r0),0x60(r12)

l00005BC2:
	movw	$71,r0
	storw	r0,4(r13)
	loadd	0x38(r12),(r9,r8)
	movd	(r3,r2),(r9,r8)
	bal	ra,fn0000B09C
	loadw	0x14(r9,r8),r0
	loadw	0x10(r12),r7
	cmpw	r7,r0
	bhs	00005BDC

l00005BDA:
	movw	r0,r7

l00005BDC:
	cmpw	$0,r7
	beq	00005C16

l00005BE0:
	movzw	r7,(r11,r10)
	loadd	0xC(r12),(r3,r2)
	loadd	0x10(r9,r8),(r5,r4)
	push	$2,r10
	bal	ra,fn0000DB24
	loadd	0xC(r12),(r1,r0)
	addd	(r11,r10),(r1,r0)
	stord	(r1,r0),0xC(r12)
	loadd	0x10(r9,r8),(r1,r0)
	addd	(r11,r10),(r1,r0)
	stord	(r1,r0),0x10(r9,r8)
	loadd	0x14(r12),(r1,r0)
	addd	(r11,r10),(r1,r0)
	stord	(r1,r0),0x14(r12)
	loadw	0x10(r12),r0
	subw	r7,r0
	storw	r0,0x10(r12)
	loadd	0x14(r9,r8),(r1,r0)
	subd	(r1,r0),(r11,r10)
	stord	(r1,r0),0x14(r9,r8)
	addd	$4,sp
	cmpd	$0,(r1,r0)
	bne	00005C16

l00005C12:
	loadd	8(r9,r8),(r1,r0)
	stord	(r1,r0),0x10(r9,r8)

l00005C16:
	loadd	0x14(r13),(r1,r0)
	cmpd	$0,(r1,r0)
	beq	00005090

l00005C1E:
	br	0000513A

l00005C22:
	loadd	8(r13),(r1,r0)
	loadd	0x14(r13),(r3,r2)
	movd	$1,(r5,r4)
	addd	(r3,r2),(r5,r4)
	stord	(r5,r4),0x14(r13)
	addd	(r3,r2),(r1,r0)
	storb	$0,(r1,r0)
	loadd	8(r13),(r1,r0)
	loadd	0x14(r13),(r3,r2)
	movd	$1,(r5,r4)
	addd	(r3,r2),(r5,r4)
	stord	(r5,r4),0x14(r13)
	addd	(r3,r2),(r1,r0)
	storb	$0,(r1,r0)
	loadd	8(r13),(r1,r0)
	loadd	0x14(r13),(r3,r2)
	movd	$1,(r5,r4)
	addd	(r3,r2),(r5,r4)
	stord	(r5,r4),0x14(r13)
	addd	(r3,r2),(r1,r0)
	storb	$0,(r1,r0)
	loadd	8(r13),(r1,r0)
	loadd	0x14(r13),(r3,r2)
	movd	$1,(r5,r4)
	addd	(r3,r2),(r5,r4)
	stord	(r5,r4),0x14(r13)
	addd	(r3,r2),(r1,r0)
	storb	$0,(r1,r0)
	loadd	8(r13),(r1,r0)
	loadd	0x14(r13),(r3,r2)
	movd	$1,(r5,r4)
	addd	(r3,r2),(r5,r4)
	stord	(r5,r4),0x14(r13)
	addd	(r3,r2),(r1,r0)
	storb	$0,(r1,r0)
	loadw	0xC4(r13),r0
	cmpw	$9,r0
	beq	00005D1E

l00005C72:
	loadw	0xC8(r13),r1
	cmpw	$1,r1
	slt	r1
	cmpw	$0,r1
	bne	00005E7E

l00005C80:
	cmpw	$1,r0
	sge	r6
	cmpb	$0,r6
	bne	00005E7E

l00005C8A:
	loadd	8(r13),(r1,r0)
	loadd	0x14(r13),(r3,r2)
	movd	$1,(r5,r4)
	addd	(r3,r2),(r5,r4)
	stord	(r5,r4),0x14(r13)
	addd	(r3,r2),(r1,r0)
	storb	r6,(r1,r0)
	loadd	8(r13),(r1,r0)
	loadd	0x14(r13),(r3,r2)
	movd	$1,(r5,r4)
	addd	(r3,r2),(r5,r4)
	stord	(r5,r4),0x14(r13)
	addd	(r3,r2),(r1,r0)
	storb	$3,(r1,r0)
	movw	$71,r0
	storw	r0,4(r13)
	loadd	0x38(r12),(r9,r8)
	movd	(r3,r2),(r9,r8)
	bal	ra,fn0000B09C
	loadw	0x14(r9,r8),r0
	loadw	0x10(r12),r7
	cmpw	r7,r0
	bhs	00005CC0

l00005CBE:
	movw	r0,r7

l00005CC0:
	cmpw	$0,r7
	beq	00005CFA

l00005CC4:
	movzw	r7,(r11,r10)
	loadd	0xC(r12),(r3,r2)
	loadd	0x10(r9,r8),(r5,r4)
	push	$2,r10
	bal	ra,fn0000DB24
	loadd	0xC(r12),(r1,r0)
	addd	(r11,r10),(r1,r0)
	stord	(r1,r0),0xC(r12)
	loadd	0x10(r9,r8),(r1,r0)
	addd	(r11,r10),(r1,r0)
	stord	(r1,r0),0x10(r9,r8)
	loadd	0x14(r12),(r1,r0)
	addd	(r11,r10),(r1,r0)
	stord	(r1,r0),0x14(r12)
	loadw	0x10(r12),r0
	subw	r7,r0
	storw	r0,0x10(r12)
	loadd	0x14(r9,r8),(r1,r0)
	subd	(r1,r0),(r11,r10)
	stord	(r1,r0),0x14(r9,r8)
	addd	$4,sp
	cmpd	$0,(r1,r0)
	bne	00005CFA

l00005CF6:
	loadd	8(r9,r8),(r1,r0)
	stord	(r1,r0),0x10(r9,r8)

l00005CFA:
	loadd	0x14(r13),(r1,r0)
	cmpd	$0,(r1,r0)
	bne	0000513A

l00005D02:
	loadw	4(r13),r2
	cmpw	$45,r2
	bne	00005078

l00005D0C:
	br	00005816

l00005D10:
	orw	$40,r7
	br	00004FA4

l00005D18:
	movw	$1,r0
	br	00004D0E

l00005D1E:
	movb	$2,r6
	br	00005C8A

l00005D22:
	movd	(r3,r2),r13
	bal	ra,fn0000B10C
	br	00004E62

l00005D2C:
	loadd	(0x00FC6C),r0
	stord	(r1,r0),0x18(r12)
	movw	$FFFB,r0
	br	00004D0E

l00005D3C:
	loadd	0x38(r13),(r1,r0)
	br	00005506

l00005D44:
	movb	$2,r6
	br	00005358

l00005D4A:
	movw	$0,r4
	movw	r4,r5
	br	000056D6

l00005D52:
	movb	$4,r6
	br	00005358

l00005D58:
	loadd	(0x00FC60),r0
	stord	(r1,r0),0x18(r12)
	movw	$FFFE,r0
	br	00004D0E

l00005D68:
	storw	r11,0x240C(r13)
	loadw	(sp),r3
	cmpw	$4,r3
	beq	00005E96

l00005D74:
	loadw	0x23EC(r13),r0
	cmpw	$0,r0
	beq	00004E3E

l00005D7E:
	loadd	0x98(r13),(r5,r4)
	loadw	0xAC(r13),r0
	movzw	r0,(r1,r0)
	subd	(r1,r0),(r5,r4)
	cmpd	$0,(r5,r4)
	bgt	00005F34

l00005D92:
	andd	$FFFF,(r5,r4)
	loadd	0x60(r13),(r3,r2)
	addd	(r3,r2),(r5,r4)

l00005D9E:
	push	$2,r0
	movw	$0,r6
	movd	(r3,r2),r13
	bal	ra,fn0000B218
	loadw	0xAC(r13),r0
	movzw	r0,(r1,r0)
	stord	(r1,r0),0x98(r13)
	loadd	(r13),(r9,r8)
	loadd	0x38(r9,r8),(r11,r10)
	movd	(r3,r2),(r11,r10)
	bal	ra,fn0000B09C
	loadw	0x14(r11,r10),r0
	loadw	0x10(r9,r8),r7
	addd	$4,sp
	cmpw	r7,r0
	bhs	00005DCA

l00005DC8:
	movw	r0,r7

l00005DCA:
	cmpw	$0,r7
	beq	0000580A

l00005DD0:
	movzw	r7,(r4,r3)
	stord	(r4,r3),4(sp)
	loadd	0xC(r9,r8),(r3,r2)
	loadd	0x10(r11,r10),(r5,r4)
	loadd	4(sp),(r1,r0)
	br	000057D8

l00005DDE:
	loadd	0x38(r13),(r1,r0)
	br	00005AB4

l00005DE6:
	loadd	0x38(r13),(r1,r0)
	loadw	0x44(r1,r0),r0
	br	000050D0

l00005DF2:
	movw	$0,r4
	movw	r4,r5
	br	0000594E

l00005DFA:
	storb	r8,(r1,r0)
	loadd	0x60(r12),(r7,r6)
	lshd	$-24,(r7,r6)
	loadd	8(r13),(r1,r0)
	loadd	0x14(r13),(r3,r2)
	movd	$1,(r5,r4)
	addd	(r3,r2),(r5,r4)
	stord	(r5,r4),0x14(r13)
	addd	(r3,r2),(r1,r0)
	storb	r6,(r1,r0)
	loadw	0x64(r12),r6
	loadd	8(r13),(r1,r0)
	loadd	0x14(r13),(r3,r2)
	movd	$1,(r5,r4)
	addd	(r3,r2),(r5,r4)
	stord	(r5,r4),0x14(r13)
	addd	(r3,r2),(r1,r0)
	storb	r6,(r1,r0)
	loadw	0x64(r12),r6
	lshw	$-8,r6
	loadd	8(r13),(r1,r0)
	loadd	0x14(r13),(r3,r2)
	movd	$1,(r5,r4)
	addd	(r3,r2),(r5,r4)
	stord	(r5,r4),0x14(r13)
	addd	(r3,r2),(r1,r0)
	storb	r6,(r1,r0)
	loadw	8(r12),r6
	loadd	8(r13),(r1,r0)
	loadd	0x14(r13),(r3,r2)
	movd	$1,(r5,r4)
	addd	(r3,r2),(r5,r4)
	stord	(r5,r4),0x14(r13)
	addd	(r3,r2),(r1,r0)
	storb	r6,(r1,r0)
	loadd	8(r12),(r7,r6)
	lshd	$-24,(r7,r6)
	loadd	8(r13),(r1,r0)
	loadd	0x14(r13),(r3,r2)
	movd	$1,(r5,r4)
	addd	(r3,r2),(r5,r4)
	stord	(r5,r4),0x14(r13)
	addd	(r3,r2),(r1,r0)
	storb	r6,(r1,r0)
	loadw	0xA(r12),r6
	loadd	8(r13),(r1,r0)
	loadd	0x14(r13),(r3,r2)
	movd	$1,(r5,r4)
	addd	(r3,r2),(r5,r4)
	stord	(r5,r4),0x14(r13)
	addd	(r3,r2),(r1,r0)
	storb	r6,(r1,r0)
	loadw	0xA(r12),r6
	lshw	$-8,r6
	loadd	8(r13),(r1,r0)
	loadd	0x14(r13),(r3,r2)
	movd	$1,(r5,r4)
	addd	(r3,r2),(r5,r4)
	stord	(r5,r4),0x14(r13)
	addd	(r3,r2),(r1,r0)
	storb	r6,(r1,r0)
	br	00004F18

l00005E7E:
	movb	$4,r6
	br	00005C8A

l00005E84:
	orw	$80,r7
	br	00004FA4

l00005E8C:
	movw	$29A,r0
	storw	r0,4(r13)
	br	00004EBE

l00005E96:
	loadd	0x98(r13),(r5,r4)
	loadw	0xAC(r13),r0
	movzw	r0,(r1,r0)
	subd	(r1,r0),(r5,r4)
	cmpd	$0,(r5,r4)
	bgt	00005F3A

l00005EA8:
	andd	$FFFF,(r5,r4)
	loadd	0x60(r13),(r3,r2)
	addd	(r3,r2),(r5,r4)

l00005EB4:
	push	$2,r0
	movw	$1,r6
	movd	(r3,r2),r13
	bal	ra,fn0000B218
	loadw	0xAC(r13),r0
	movzw	r0,(r1,r0)
	stord	(r1,r0),0x98(r13)
	loadd	(r13),(r9,r8)
	loadd	0x38(r9,r8),(r11,r10)
	movd	(r3,r2),(r11,r10)
	bal	ra,fn0000B09C
	loadw	0x14(r11,r10),r0
	loadw	0x10(r9,r8),r7
	addd	$4,sp
	cmpw	r7,r0
	bhs	00005EE0

l00005EDE:
	movw	r0,r7

l00005EE0:
	cmpw	$0,r7
	beq	000051FA

l00005EE6:
	br	000051C0

l00005EEA:
	loadd	0x78(r13),(r3,r2)
	loadw	0x84(r13),r5
	addw	$FFFF,r5
	movzw	r5,(r6,r5)
	addd	(r6,r5),(r6,r5)
	movd	(r1,r0),(r3,r2)
	addd	(r6,r5),(r1,r0)
	storw	$0,(r1,r0)
	movw	$0,r4
	bal	ra,fn0000DB44
	loadw	0xB4(r13),r0
	cmpw	$0,r0
	bne	00004E62

l00005F0E:
	storw	r0,0xAC(r13)
	stord	(r9,r8),0x98(r13)
	storw	r0,0x240C(r13)
	br	00004E62

l00005F1E:
	movd	$0,(r5,r4)
	br	000057A0

l00005F24:
	movd	$0,(r5,r4)
	br	00005190

l00005F2A:
	cmpw	$2,r1
	blo	000058AA

l00005F30:
	br	000059F0

l00005F34:
	movd	$0,(r5,r4)
	br	00005D9E

l00005F3A:
	movd	$0,(r5,r4)
	br	00005EB4

l00005F3E:
	movd	(r3,r2),ra
	addd	$2,(r1,r0)
	br	00005892

l00005F46:
	movd	(r3,r2),ra
	addd	$4,(r1,r0)
	br	00005892

l00005F4E:
	movd	(r3,r2),ra
	addd	$3,(r1,r0)
	br	00005892

l00005F56:
	movd	(r3,r2),ra
	br	00005892

l00005F5C:
	movd	(r3,r2),ra
	addd	$7,(r1,r0)
	br	00005892

l00005F64:
	movd	(r3,r2),ra
	addd	$6,(r1,r0)
	br	00005892

l00005F6C:
	movd	(r3,r2),ra
	addd	$5,(r1,r0)
	br	00005892
00005F74             9D 01 67 01 2A 55 47 5B 5C 5B 02 56     ..g.*UG[\[.V
00005F80 00 11 02 AF 20 00 00 56 0C 10 02 AF 24 00 00 56 .... ..V....$..V
00005F90 08 10 82 AF 1C 00 08 56 04 10 08 A0 02 57 05 10 .......V.....W..
00005FA0 B0 5A FE FF 67 02 9D 03 18 92 B1 52 2A 00 12 08 .Z..g......R*...
00005FB0 B1 52 45 00 10 08 20 21 B1 52 5B 00 12 08 20 21 .RE... !.R[... !
00005FC0 B1 52 67 00 12 08 20 21 B1 52 71 00 12 08 20 21 .Rg... !.Rq... !
00005FD0 B1 52 9A 02 12 08 20 21 B1 32 C7 FF B1 22 EF FF .R.... !.2..."..
00005FE0 01 52 11 08 10 21 00 50 1C 1D 94 52 09 16 B4 52 .R...!.P...R...R
00005FF0 09 00 A0 08 4C 52 A1 08 01 52 13 1D 00 50 11 1D ....LR...R...P..
00006000 08 9F 64 00 C0 53 06 14 54 5A A2 55 FF C0 C9 EC ..d..S..TZ.U....
00006010 B0 52 FE FF 06 1C 0A 98 00 52 00 18 12 01 38 9F .R.......R....8.
00006020 62 00 37 53 02 13 03 52 1A 11 68 9F 04 12 06 52 b.7S...R..h....R
00006030 06 11 08 AF 3C 00 28 9F 42 00 94 5A 24 33 44 5F ....<.(.B..Z$3D_
00006040 4A 55 4A 61 16 52 0E 13 04 55 A4 61 34 D0 A5 55 JUJa.R...U.a4..U
00006050 04 5A 02 55 00 C0 F0 7A 08 C3 04 12 78 DF 62 00 .Z.U...z....x.b.
00006060 70 5E 02 55 02 61 02 61 22 4C 00 05 A4 E5 20 61 p^.U.a.a"L.... a
00006070 20 91 28 DF 60 00 20 90 28 DF 66 00 20 92 28 DF  .(.`. .(.f. .(.
00006080 68 00 00 93 08 DF 5E 00 C8 DF 64 00 00 5A 67 02 h.....^...d..Zg.
00006090 9D 03 38 9F 62 00 E0 05 A4 E5 74 5E 40 55 40 61 ..8.b.....t^@U@a
000060A0 40 61 0D 55 2D 4C ED 61 34 5E 40 55 40 61 40 61 @a.U-L.a4^@U@a@a
000060B0 20 4C E0 61 4D A4 00 A4 04 57 17 1A E3 1B 67 5A  L.aM....W....gZ
000060C0 EA 19 68 9F 28 00 22 5F 22 61 02 61 14 60 44 61 ..h.(."_"a.a.`Da
000060D0 2E 55 14 00 4E C0 B2 60 FE FF D2 90 6D 53 4F 11 .U..N..`....mSO.
000060E0 D4 5B 64 3B 42 D0 E2 57 17 1F 62 5F 22 61 48 AF .[d;B..W..b_"aH.
000060F0 38 00 42 61 94 5A 64 33 44 5F 14 60 44 61 2E 55 8.Ba.Zd3D_.`Da.U
00006100 14 00 4E C0 B2 60 FE FF D2 90 D6 53 AC 10 D4 5B ..N..`.....S...[
00006110 64 3B 4D 5B 42 D0 2E 57 16 1F EA 19 02 C2 E2 57 d;M[B..W.......W
00006120 1B 1D E4 1E 02 C2 2E 57 1E 1E E2 19 B0 5A FB FF .......W.....Z..
00006130 67 02 9D 03                                     g...            

;; fn00006134: 00006134
;;   Called from:
;;     00002E54 (in fn00002D76)
;;     00006502 (in fn00006226)
fn00006134 proc
	push	$2,ra
	push	$4,r7
	movd	(r9,r8),(r3,r2)
	cmpd	$0,(r3,r2)
	beq	0000621C

l0000613E:
	loadd	0x40(r3,r2),(r1,r0)
	cmpd	$0,(r1,r0)
	beq	0000621C

l00006146:
	loadd	0x48(r3,r2),(r7,r6)
	cmpd	$0,(r7,r6)
	beq	0000621C

l0000614E:
	loadd	0x38(r3,r2),ra
	cmpd	$0,ra
	beq	0000621C

l00006156:
	loadd	(ra),(r3,r2)
	movw	$FFFE,r0
	cmpd	(r9,r8),(r3,r2)
	beq	00006164

l00006160:
	pop	$4,r7
	popret	$2,ra

l00006164:
	loadw	4(ra),r10
	cmpw	$2A,r10
	sne	r2
	cmpw	$45,r10
	sne	r1
	andb	r2,r1
	cmpw	$5B,r10
	sne	r2
	andb	r2,r1
	cmpw	$67,r10
	sne	r2
	andb	r2,r1
	cmpw	$71,r10
	sne	r2
	andb	r2,r1
	cmpw	$29A,r10
	sne	r2
	andb	r2,r1
	cmpb	$0,r1
	beq	000061AA

l00006198:
	movw	$FFC7,r1
	addw	r10,r1
	andw	$FFEF,r1
	cmpw	$0,r1
	sne	r1
	cmpw	$0,r1
	bne	00006160

l000061AA:
	loadd	8(ra),(r5,r4)
	loadd	0x50(r9,r8),(r3,r2)
	cmpd	$0,(r5,r4)
	beq	000061C2

l000061B4:
	jal	ra,(r7,r6)
	loadd	0x38(r9,r8),ra
	loadd	0x48(r9,r8),(r7,r6)
	loadd	0x50(r9,r8),(r3,r2)

l000061C2:
	loadd	0x78(ra),(r5,r4)
	cmpd	$0,(r5,r4)
	beq	000061D8

l000061CA:
	jal	ra,(r7,r6)
	loadd	0x38(r9,r8),ra
	loadd	0x48(r9,r8),(r7,r6)
	loadd	0x50(r9,r8),(r3,r2)

l000061D8:
	loadd	0x70(ra),(r5,r4)
	cmpd	$0,(r5,r4)
	beq	000061EE

l000061E0:
	jal	ra,(r7,r6)
	loadd	0x38(r9,r8),ra
	loadd	0x48(r9,r8),(r7,r6)
	loadd	0x50(r9,r8),(r3,r2)

l000061EE:
	loadd	0x60(ra),(r5,r4)
	cmpd	$0,(r5,r4)
	beq	00006204

l000061F6:
	jal	ra,(r7,r6)
	loadd	0x48(r9,r8),(r7,r6)
	loadd	0x38(r9,r8),ra
	loadd	0x50(r9,r8),(r3,r2)

l00006204:
	movd	(r5,r4),ra
	jal	ra,(r7,r6)
	movd	$0,(r1,r0)
	stord	(r1,r0),0x38(r9,r8)
	cmpw	$71,r10
	bne	00006160

l00006214:
	movw	$FFFD,r0
	pop	$4,r7
	popret	$2,ra

l0000621C:
	movw	$FFFE,r0
	pop	$4,r7
	popret	$2,ra
00006224             00 00                                   ..          

;; fn00006226: 00006226
;;   Called from:
;;     00001C5A (in fn00001BEC)
fn00006226 proc
	push	$2,r13,ra
	push	$7,r7
	addd	$-8,sp
	movd	$1E,r12
	addd	sp,r12
	movd	(r11,r10),(r3,r2)
	movw	r4,r13
	loadw	(r12),r0
	storw	r0,(sp)
	loadw	2(r12),r1
	storw	r1,4(sp)
	loadd	4(r12),(r1,r0)
	loadw	8(r12),r3
	cmpd	$0,(r1,r0)
	beq	000064EC

l0000624A:
	loadb	(r1,r0),r0
	cmpb	$31,r0
	sne	r0
	cmpw	$38,r3
	sne	r2
	orb	r0,r2
	cmpb	$0,r2
	bne	000064EC

l00006260:
	cmpd	$0,(r11,r10)
	beq	000064E6

l00006266:
	movd	$0,(r1,r0)
	stord	(r1,r0),0x18(r11,r10)
	loadd	0x40(r11,r10),(r1,r0)
	cmpd	$0,(r1,r0)
	beq	000064D2

l00006274:
	loadd	0x48(r11,r10),(r9,r8)
	cmpd	$0,(r9,r8)
	beq	000064C0

l0000627E:
	cmpw	$FFFF,r13
	beq	0000649E

l00006284:
	cmpw	$0,r6
	bgt	000064A6

l0000628A:
	movw	$1,r7
	cmpw	$F,r6
	blt	000064B4

l00006292:
	loadw	(sp),r3
	addw	$FFFF,r3
	cmpw	$8,r3
	blo	000064E6

l0000629C:
	storw	r6,2(sp)
	movw	$FFF8,r3
	addw	r6,r3
	cmpw	$7,r3
	slo	r3
	cmpw	$0,r3
	bne	000064E6

l000062AE:
	cmpw	$8,r5
	sne	r3
	cmpw	$0,r3
	bne	000064E6

l000062B8:
	loadw	4(sp),r3
	cmpw	$4,r3
	slo	r3
	cmpw	$0,r3
	bne	000064E6

l000062C4:
	cmpw	$9,r13
	slo	r3
	cmpw	$0,r3
	bne	000064E6

l000062D0:
	cmpw	$8,r6
	seq	r3
	cmpw	$0,r3
	beq	000062DE

l000062D8:
	cmpb	$0,r2
	bne	000064E6

l000062DE:
	cmpw	$8,r6
	bne	000062E6

l000062E2:
	storw	$9,2(sp)

l000062E6:
	loadd	0x50(r11,r10),(r3,r2)
	movw	$1210,r5
	movw	$1,r4
	jal	ra,(r1,r0)
	movd	(r9,r8),(r1,r0)
	movd	$0,r12
	cmpd	(r1,r0),r12
	beq	0000650C

l000062FC:
	stord	(r1,r0),0x38(r11,r10)
	stord	(r11,r10),(r1,r0)
	movw	$2A,r0
	storw	r0,4(r9,r8)
	storw	r7,0x18(r9,r8)
	stord	r12,0x38(r9,r8)
	loadw	2(sp),r0
	storw	r0,0x54(r9,r8)
	movw	$1,r7
	ashuw	r0,r7
	storw	r7,0x50(r9,r8)
	movw	$FFFF,r0
	addw	r7,r0
	storw	r0,0x58(r9,r8)
	loadw	(sp),r0
	addw	$7,r0
	storw	r0,0x88(r9,r8)
	movw	$1,r1
	ashuw	r0,r1
	movw	r1,r0
	storw	r1,0x84(r9,r8)
	addw	$FFFF,r0
	storw	r0,0x8C(r9,r8)
	loadw	(sp),r2
	addw	$9,r2
	movw	$3,r3
	bal	ra,fn0000D464
	storw	r0,0x90(r9,r8)
	loadd	0x50(r11,r10),(r3,r2)
	loadd	0x40(r11,r10),(r1,r0)
	movw	$2,r5
	movw	r7,r4
	jal	ra,(r1,r0)
	stord	(r1,r0),0x60(r9,r8)
	loadw	0x50(r9,r8),r4
	loadd	0x50(r11,r10),(r3,r2)
	loadd	0x40(r11,r10),(r1,r0)
	movw	$2,r5
	jal	ra,(r1,r0)
	stord	(r1,r0),0x70(r9,r8)
	loadw	0x84(r9,r8),r4
	loadd	0x50(r11,r10),(r3,r2)
	loadd	0x40(r11,r10),(r1,r0)
	movw	$2,r5
	jal	ra,(r1,r0)
	stord	(r1,r0),0x78(r9,r8)
	stord	r12,0x2418(r9,r8)
	loadw	(sp),r0
	addw	$6,r0
	movw	$1,r4
	ashuw	r0,r4
	storw	r4,0x23E8(r9,r8)
	loadd	0x50(r11,r10),(r3,r2)
	loadd	0x40(r11,r10),(r1,r0)
	movw	$4,r5
	jal	ra,(r1,r0)
	stord	(r1,r0),8(r9,r8)
	loadw	0x23E8(r9,r8),r6
	movzw	r6,(r3,r2)
	movd	(r5,r4),(r3,r2)
	ashud	$2,(r5,r4)
	stord	(r5,r4),0xC(r9,r8)
	loadd	0x60(r9,r8),(r5,r4)
	cmpd	(r5,r4),r12
	beq	000064F2

l000063BA:
	loadd	0x70(r9,r8),(r5,r4)
	cmpd	(r5,r4),r12
	beq	000064F2

l000063C4:
	loadw	0x78(r9,r8),r4
	loadw	0x7C(r9,r8),r5
	orw	r5,r4
	cmpw	$0,r4
	seq	r4
	cmpw	$0,r4
	bne	000064F2

l000063D8:
	movw	r0,r4
	orw	r1,r4
	cmpw	$0,r4
	seq	r4
	cmpw	$0,r4
	bne	000064F2

l000063E6:
	lshw	$-15,r6
	movzw	r6,(r7,r6)
	addd	(r7,r6),(r7,r6)
	addd	(r1,r0),(r7,r6)
	stord	(r7,r6),0x23F0(r9,r8)
	movd	(r5,r4),(r3,r2)
	addd	(r3,r2),(r5,r4)
	addd	(r5,r4),(r3,r2)
	addd	(r3,r2),(r1,r0)
	stord	(r1,r0),0x23E0(r9,r8)
	storw	r13,0xC4(r9,r8)
	loadw	4(sp),r2
	storw	r2,0xC8(r9,r8)
	storb	$8,0x24(r9,r8)
	movd	(r3,r2),(r11,r10)
	bal	ra,fn000046AC
	movw	r0,r7
	cmpw	$0,r0
	beq	00006420

l00006418:
	movw	r7,r0
	addd	$8,sp
	pop	$7,r7
	popret	$2,r13,ra

l00006420:
	loadd	0x38(r11,r10),(r9,r8)
	loadw	0x50(r9,r8),r0
	movzw	r0,(r1,r0)
	addd	(r1,r0),(r1,r0)
	stord	(r1,r0),0x68(r9,r8)
	loadd	0x78(r9,r8),(r3,r2)
	loadw	0x84(r9,r8),r5
	addw	$FFFF,r5
	movzw	r5,(r6,r5)
	addd	(r6,r5),(r6,r5)
	movd	(r1,r0),(r3,r2)
	addd	(r6,r5),(r1,r0)
	storw	r7,(r1,r0)
	movw	r7,r4
	bal	ra,fn0000DB44
	loadw	0xC4(r9,r8),r2
	movxw	r2,(r3,r2)
	movd	(r1,r0),(r3,r2)
	addd	(r3,r2),(r1,r0)
	addd	(r1,r0),(r3,r2)
	ashud	$2,(r3,r2)
	movd	$E5A4,(r1,r0)
	addd	(r3,r2),(r1,r0)
	loadw	2(r1,r0),r2
	storw	r2,0xC0(r9,r8)
	loadw	(r1,r0),r2
	storw	r2,0xCC(r9,r8)
	loadw	4(r1,r0),r2
	storw	r2,0xD0(r9,r8)
	loadw	6(r1,r0),r0
	storw	r0,0xBC(r9,r8)
	storw	r7,0xAC(r9,r8)
	stord	r12,0x98(r9,r8)
	storw	r7,0xB4(r9,r8)
	storw	r7,0x240C(r9,r8)
	storw	$2,0x5C(r9,r8)
	storw	$2,0x50(r9,r8)
	storw	r7,0xA8(r9,r8)
	storw	r7,0x80(r9,r8)
	movw	r7,r0
	addd	$8,sp
	pop	$7,r7
	popret	$2,r13,ra

l0000649E:
	movw	$6,r13
	cmpw	$0,r6
	ble	0000628A

l000064A6:
	movw	$0,r7
	movw	r7,r2
	subw	r6,r2
	movw	r2,r6
	movb	$1,r2
	br	00006292

l000064B4:
	addw	$FFF0,r6
	movb	r7,r2
	movw	$2,r7
	br	00006292

l000064C0:
	movd	$5D76,(r9,r8)
	stord	(r9,r8),0x48(r11,r10)
	cmpw	$FFFF,r13
	bne	00006284

l000064D0:
	br	0000649E

l000064D2:
	movd	$5D6E,(r9,r8)
	stord	(r9,r8),0x40(r11,r10)
	stord	(r1,r0),0x50(r11,r10)
	movd	(r1,r0),(r9,r8)
	br	00006274

l000064E6:
	movw	$FFFE,r7
	br	00006418

l000064EC:
	movw	$FFFA,r7
	br	00006418

l000064F2:
	movw	$29A,r0
	storw	r0,4(r9,r8)
	loadd	(0x00FC68),r0
	stord	(r1,r0),0x18(r11,r10)
	movd	(r3,r2),(r11,r10)
	bal	ra,fn00006134
	movw	$FFFC,r7
	br	00006418

l0000650C:
	movw	$FFFC,r7
	br	00006418
00006512       00 00 1E 01 67 01 BC 54 12 00 FC 61 2A 55   ....g..T...a*U
00006520 47 5B 1C 90 05 56 00 18 04 02 05 B0 B0 50 31 00 G[...V.......P1.
00006530 10 08 00 52 10 18 F6 01 B1 52 38 00 10 08 00 52 ...R.....R8....R
00006540 10 18 EA 01 02 56 00 18 0C 02 00 54 02 EC 02 AF .....V.....T....
00006550 20 00 00 56 00 18 C2 01 2A AF 24 00 02 56 00 18  ..V....*.$..V..
00006560 A2 01 97 52 00 18 AC 01 B7 52 09 00 A0 18 E6 01 ...R.....R......
00006570 2A AF 28 00 B5 5A 10 12 14 5A D0 00 08 55 0C 54 *.(..Z...Z...U.T
00006580 C0 57 00 18 DA 01 0A EF 1C 00 A0 E0 B0 5A 2A 00 .W...........Z*.
00006590 08 D2 18 C3 18 00 C8 EF 1C 00 F8 C3 2A 00 B4 5A ............*..Z
000065A0 00 80 48 DF 28 00 B0 5A FF 7F 08 DF 2C 00 F8 C3 ..H.(..Z....,...
000065B0 44 00 48 DF 42 00 08 DF 46 00 58 C3 48 00 2A AF D.H.B...F.X.H.*.
000065C0 28 00 0A AF 20 00 25 5A D0 00 08 EF 30 00 48 9F (... .%Z....0.H.
000065D0 28 00 2A AF 28 00 0A AF 20 00 25 5A D0 00 08 EF (.*.(... .%Z....
000065E0 38 00 48 9F 42 00 2A AF 28 00 0A AF 20 00 25 5A 8.H.B.*.(... .%Z
000065F0 D0 00 08 EF 3C 00 C8 EF 0C 12 B4 5A 00 40 48 DF ....<......Z.@H.
00006600 F4 11 2A AF 28 00 0A AF 20 00 45 5A D0 00 08 E4 ..*.(... .EZ....
00006610 68 9F F4 11 62 5F 24 55 24 4C 48 E6 48 AF 30 00 h...b_$U$LH.H.0.
00006620 C4 57 00 18 12 01 48 AF 38 00 C4 57 00 18 08 01 .W....H.8..W....
00006630 48 9F 3C 00 58 9F 3E 00 54 27 04 52 04 08 04 52 H.<.X.>.T'.R...R
00006640 1A 17 04 5B 14 27 04 52 04 08 04 52 14 17 F6 49 ...[.'.R...R...I
00006650 64 5F 44 61 04 61 48 EF F8 11 24 55 24 61 42 61 d_Da.aH...$U$aBa
00006660 20 61 08 EF F0 11 78 DF 62 00 08 C3 64 00 88 83  a....x.b...d...
00006670 24 00 A2 55 FF C0 39 E0 07 5B 00 52 04 10 70 5B $..U..9..[.R..p[
00006680 67 02 1E 03 8A AF 1C 00 08 9F 28 00 00 5F 00 61 g.........(.._.a
00006690 08 EF 34 00 28 AF 3C 00 58 9F 42 00 95 32 55 5F ..4.(.<.X.B..2U_
000066A0 55 61 20 55 50 61 70 D0 74 5B 00 C0 9A 74 28 9F Ua UPap.t[...t(.
000066B0 62 00 22 5E 20 55 20 61 02 61 22 4C 00 05 A4 E5 b."^ U a.a"L....
000066C0 20 61 20 91 28 DF 60 00 20 90 28 DF 66 00 20 92  a .(.`. .(.f. .
000066D0 28 DF 68 00 00 93 08 DF 5E 00 78 DF 56 00 C8 EF (.h.....^.x.V...
000066E0 4C 00 78 DF 5A 00 78 DF 06 12 28 C3 5C 00 28 C3 L.x.Z.x...(.\.(.
000066F0 50 00 78 DF 54 00 78 DF 40 00 70 5B 67 02 1E 03 P.x.T.x.@.p[g...
00006700 72 00 00 00 76 5D 2A EF 24 00 97 52 10 18 5D FE r...v]*.$..R..].
00006710 67 5A E0 18 5F FE 72 00 00 00 6E 5D 2A EF 20 00 gZ.._.r...n]*. .
00006720 0A EF 28 00 20 55 E0 18 33 FE B7 5A FA FF 70 5B ..(. U..3..Z..p[
00006730 67 02 1E 03 B0 5A 9A 02 08 D2 12 00 00 B0 68 FC g....Z........h.
00006740 0A EC A2 55 FF C0 F1 F9 B7 5A FC FF 70 5B 67 02 ...U.....Z..p[g.
00006750 1E 03 B7 5A FE FF 70 5B 67 02 1E 03 B7 5A FC FF ...Z..p[g....Z..
00006760 70 5B 67 02 1E 03 9D 01 58 01 2C 55 04 56 00 18 p[g.....X.,U.V..
00006770 18 02 84 AF 20 00 08 56 00 18 0E 02 04 AF 24 00 .... ..V......$.
00006780 00 56 00 18 04 02 D4 AF 1C 00 0D 56 00 18 FA 01 .V.........V....
00006790 2D A0 B0 5A FE FF 24 57 03 10 58 02 9D 03 2D 92 -..Z..$W..X...-.
000067A0 B2 52 2A 00 13 08 B2 52 45 00 11 08 31 21 B2 52 .R*....RE...1!.R
000067B0 5B 00 13 08 31 21 B2 52 67 00 13 08 31 21 B2 52 [...1!.Rg...1!.R
000067C0 71 00 13 08 31 21 B2 52 9A 02 13 08 31 21 01 50 q...1!.R....1!.P
000067D0 09 10 B2 32 C7 FF B2 22 EF FF 02 52 11 08 01 52 ...2..."...R...R
000067E0 1D 1D 0C 56 00 18 A2 01 04 A0 0C E0 04 A2 0C E2 ...V............
000067F0 04 A4 0C E4 04 A6 0C E6 04 A8 0C E8 04 AA 0C EA ................
00006800 04 AC 0C EC 04 AF 1C 00 0C EF 1C 00 04 AF 20 00 .............. .
00006810 0C EF 20 00 04 AF 24 00 0C EF 24 00 24 AF 28 00 .. ...$...$.$.(.
00006820 2C EF 28 00 04 AF 2C 00 0C EF 2C 00 04 AF 30 00 ,.(...,...,...0.
00006830 0C EF 30 00 04 AF 34 00 0C EF 34 00 B5 5A 10 12 ..0...4...4..Z..
00006840 14 5A D8 00 08 55 00 56 00 18 54 01 0C EF 1C 00 .Z...U.V..T.....
00006850 B0 54 10 12 10 01 D4 55 82 55 00 C0 CA 72 C8 E0 .T.....U.U...r..
00006860 48 9F 28 00 2C AF 28 00 0C AF 20 00 25 5A D0 00 H.(.,.(... .%Z..
00006870 08 EF 30 00 48 9F 28 00 2C AF 28 00 0C AF 20 00 ..0.H.(.,.(... .
00006880 25 5A D0 00 08 EF 38 00 48 9F 42 00 2C AF 28 00 %Z....8.H.B.,.(.
00006890 0C AF 20 00 25 5A D0 00 08 EF 3C 00 48 9F F4 11 .. .%Z....<.H...
000068A0 2C AF 28 00 0C AF 20 00 45 5A D0 00 0A 55 08 E4 ,.(... .EZ...U..
000068B0 28 AF 30 00 4F 60 02 56 0B 16 08 AF 38 00 00 56 (.0.O`.V....8..V
000068C0 07 16 08 9F 3C 00 18 9F 3E 00 10 27 00 52 00 08 ....<...>..'.R..
000068D0 00 52 1E 15 A0 5B B0 27 00 52 00 08 00 52 18 15 .R...[.'.R...R..
000068E0 08 9F 28 00 00 33 00 5F 4D AF 30 00 10 01 00 C0 ..(..3._M.0.....
000068F0 36 72 28 AF 38 00 08 9F 28 00 00 5F 00 61 4D AF 6r(.8...(.._.aM.
00006900 38 00 10 01 00 C0 20 72 28 AF 3C 00 08 9F 42 00 8..... r(.<...B.
00006910 00 5F 00 61 4D AF 3C 00 10 01 00 C0 0A 72 28 A4 ._.aM.<......r(.
00006920 08 A6 40 00 00 00 FF FF 4D A4 10 01 00 C0 F8 71 ..@.....M......q
00006930 28 A4 0D A8 4D A4 14 00 40 C0 20 61 08 E8 08 9F (...M...@. a....
00006940 F4 11 04 5B F4 49 44 5F 44 61 4A 61 A8 EF F8 11 ...[.ID_DaJa....
00006950 00 5F 04 55 04 61 40 61 02 61 28 EF F0 11 B0 54 ._.U.a@a.a(....T
00006960 6A 00 80 61 08 EF F0 0A B0 54 5E 09 80 61 08 EF j..a.....T^..a..
00006970 FC 0A B0 54 52 0A 80 61 08 EF 08 0B BF 60 10 00 ...TR..a.....`..
00006980 00 5A 58 02 9D 03 B0 5A FE FF 58 02 9D 03 C2 55 .ZX....Z..X....U
00006990 FF C0 A5 F7 B0 5A FC FF E0 18 03 FE B0 5A FC FF .....Z.......Z..
000069A0 E0 18 FB FD 1E 01 07 01 0E 54 E2 57 06 14 02 AF .........T.W....
000069B0 20 00 E0 57 02 14 02 AF 24 00 E0 57 0E 13 42 AF  ..W....$..W..B.
000069C0 1C 00 E4 57 0A 13 64 A0 B0 5A FE FF 62 57 03 10 ...W..d..Z..bW..
000069D0 07 02 1E 03 14 92 B1 32 CC C0 B1 52 1F 00 A9 1F .......2...R....
000069E0 E4 EA E2 EA E2 E4 E2 EC 04 94 00 52 05 10 10 22 ...........R..."
000069F0 00 5E 02 EF 30 00 B0 5A 34 3F 04 D2 04 C3 06 00 .^..0..Z4?......
00006A00 04 C3 0A 00 B0 5A 00 80 04 D7 00 54 04 EC 04 EF .....Z.....T....
00006A10 28 00 04 C3 2C 00 B0 54 0C 05 40 61 04 EF 48 00 (...,..T..@a..H.
00006A20 04 EF 38 00 04 EF 34 00 14 C3 9C 1B 90 5A 04 DF ..8...4......Z..
00006A30 9E 1B 00 5A 07 02 1E 03 B0 5A FE FF 07 02 1E 03 ...Z.....Z......
00006A40 1E 01 07 01 0E 54 E2 57 0C 14 02 AF 20 00 E0 57 .....T.W.... ..W
00006A50 08 14 02 AF 24 00 E0 57 04 14 42 AF 1C 00 E4 57 ....$..W..B....W
00006A60 00 14 64 A0 B0 5A FE FF 62 57 03 10 07 02 1E 03 ..d..Z..bW......
00006A70 14 92 B1 32 CC C0 B1 52 1F 00 A9 1F 04 C3 1E 00 ...2...R........
00006A80 04 C3 20 00 04 C3 22 00 E4 EA E2 EA E2 E4 E2 EC .. ...".........
00006A90 04 94 00 52 05 10 10 22 00 5E 02 EF 30 00 B0 5A ...R...".^..0..Z
00006AA0 34 3F 04 D2 04 C3 06 00 04 C3 0A 00 B0 5A 00 80 4?...........Z..
00006AB0 04 D7 00 54 04 EC 04 EF 28 00 04 C3 2C 00 B0 54 ...T....(...,..T
00006AC0 0C 05 40 61 04 EF 48 00 04 EF 38 00 04 EF 34 00 ..@a..H...8...4.
00006AD0 14 C3 9C 1B 90 5A 04 DF 9E 1B 00 5A 07 02 1E 03 .....Z.....Z....
00006AE0 B0 5A FE FF 07 02 1E 03 1E 01 67 01 28 55 47 5B .Z........g.(UG[
00006AF0 02 56 00 11 02 AF 20 00 00 56 0C 10 02 AF 24 00 .V.... ..V....$.
00006B00 00 56 08 10 A2 AF 1C 00 0A 56 04 10 2A A0 28 57 .V.......V..*.(W
00006B10 05 10 B0 5A FE FF 67 02 1E 03 2A 92 B2 32 CC C0 ...Z..g...*..2..
00006B20 B2 52 1F 00 A7 1F 04 52 61 17 42 5B C2 43 52 32 .R.....Ra.B[.CR2
00006B30 2C 5B B4 52 2F 00 C2 10 F7 22 B2 5A F8 FF 72 33 ,[.R/....".Z..r3
00006B40 72 52 A2 08 02 52 05 10 07 52 12 08 02 52 12 1E rR...R...R...R..
00006B50 4A AF 24 00 04 56 06 15 2A 9F 1C 00 27 53 02 15 J.$..V..*...'S..
00006B60 28 AF 28 00 D0 00 00 54 0A EF 24 00 08 AF 20 00 (.(....T..$... .
00006B70 CA D4 7A DF 1C 00 00 56 0D 1C 08 AF 24 00 02 54 ..z....V....$..T
00006B80 20 57 08 1C 08 AF 1C 00 20 57 04 1C 40 A0 48 57  W...... W..@.HW
00006B90 11 1C 40 92 B4 32 CC C0 B4 52 1F 00 AB 1B 00 C3 ..@..2...R......
00006BA0 1E 00 00 C3 20 00 00 C3 22 00 20 EA 28 EA 28 E4 .... ...". .(.(.
00006BB0 28 EC 20 94 02 52 05 10 12 22 22 5E 28 EF 30 00 (. ..R...""^(.0.
00006BC0 B2 5A 34 3F 20 D2 00 C3 06 00 00 C3 0A 00 B2 5A .Z4? ..........Z
00006BD0 00 80 20 D7 02 54 20 EC 20 EF 28 00 00 C3 2C 00 .. ..T . .(...,.
00006BE0 B2 54 0C 05 02 61 20 EF 48 00 20 EF 38 00 20 EF .T...a .H. .8. .
00006BF0 34 00 10 C3 9C 1B 92 5A 20 DF 9E 1B 00 5A 67 02 4......Z ....Zg.
00006C00 1E 03 CA D4 7A DF 1C 00 EB 1B 02 5A 23 5B 43 3B ....z......Z#[C;
00006C10 37 5B 2C 5B E3 19 1E 01 67 01 BC 54 12 00 FC 61 7[,[....g..T...a
00006C20 28 55 47 5B 1C 90 05 56 00 18 FC 00 05 B0 B0 50 (UG[...V.......P
00006C30 31 00 10 08 00 52 17 17 B1 52 38 00 10 08 00 52 1....R...R8....R
00006C40 12 17 02 56 0A 17 00 54 02 EC 02 AF 20 00 00 56 ...V...T.... ..V
00006C50 0C 15 22 9F 28 00 38 9F 2A 00 48 AF 24 00 04 56 ..".(.8.*.H.$..V
00006C60 0E 14 B5 5A A4 1B 14 5A D0 00 0A 55 00 56 00 16 ...Z...Z...U.V..
00006C70 08 EF 1C 00 80 E0 00 54 0A EF 24 00 B0 5A 34 3F .......T..$..Z4?
00006C80 0A D2 08 AF 24 00 28 AF 20 00 02 56 09 14 00 56 ....$.(. ..V...V
00006C90 07 14 07 52 68 12 72 5B C2 43 52 32 B7 52 2F 00 ...Rh.r[.CR2.R/.
00006CA0 C2 10 F7 22 B3 5A F8 FF 73 33 73 52 A3 08 03 52 ...".Z..s3sR...R
00006CB0 05 10 07 52 13 08 03 52 13 13 2A D4 7A DF 1C 00 ...R...R..*.z...
00006CC0 82 55 FF C0 7F FD 07 5B 00 52 0A 10 08 AF 24 00 .U.....[.R....$.
00006CD0 28 AF 28 00 A4 55 D0 00 00 54 08 EF 1C 00 70 5B (.(..U...T....p[
00006CE0 67 02 1E 03 02 5A 23 5B 73 3B 37 5B B3 5A F8 FF g....Z#[s;7[.Z..
00006CF0 73 33 73 52 A3 08 03 52 1D 1D E0 1E 74 00 00 00 s3sR...R....t...
00006D00 76 5D 48 EF 24 00 EE 1A 74 00 00 00 6E 5D 42 EF v]H.$...t...n]B.
00006D10 20 00 02 EF 28 00 02 5B 13 5B 40 55 EF 19 B7 5A  ...(..[.[@U...Z
00006D20 FE FF E7 1D B7 5A FA FF 70 5B 67 02 1E 03 B7 5A .....Z..p[g....Z
00006D30 FC FF 70 5B 67 02 1E 03 B7 5A FE FF 70 5B 67 02 ..p[g....Z..p[g.
00006D40 1E 03 1E 01 47 01 28 55 04 56 0B 15 04 B0 B0 50 ....G.(U.V.....P
00006D50 31 00 10 08 00 52 15 15 B6 52 38 00 10 08 00 52 1....R...R8....R
00006D60 10 15 02 56 0B 15 00 54 02 EC 02 AF 20 00 00 56 ...V...T.... ..V
00006D70 0D 13 22 9F 28 00 38 9F 2A 00 48 AF 24 00 04 56 ..".(.8.*.H.$..V
00006D80 0F 12 B5 5A A4 1B 14 5A D0 00 0A 55 00 56 01 14 ...Z...Z...U.V..
00006D90 08 EF 1C 00 80 E0 00 54 0A EF 24 00 B0 5A 34 3F .......T..$..Z4?
00006DA0 0A D2 08 AF 24 00 28 AF 20 00 02 56 0F 12 00 56 ....$.(. ..V...V
00006DB0 0D 12 5A C3 08 00 FA C3 1C 00 82 55 FF C0 85 FC ..Z........U....
00006DC0 07 5B 00 52 0A 10 08 AF 24 00 28 AF 28 00 A4 55 .[.R....$.(.(..U
00006DD0 D0 00 00 54 08 EF 1C 00 70 5B 47 02 1E 03 74 00 ...T....p[G...t.
00006DE0 00 00 76 5D 48 EF 24 00 ED 1C 74 00 00 00 6E 5D ..v]H.$...t...n]
00006DF0 42 EF 20 00 02 EF 28 00 02 5B 13 5B 40 55 EE 1B B. ...(..[.[@U..
00006E00 B7 5A FA FF 70 5B 47 02 1E 03 B7 5A FE FF EE 1D .Z..p[G....Z....
00006E10 B7 5A FC FF 70 5B 47 02 1E 03 B7 5A FE FF 70 5B .Z..p[G....Z..p[
00006E20 47 02 1E 03 00 00 1E 01 07 01 02 56 0D 13 02 AF G..........V....
00006E30 20 00 00 56 09 13 02 AF 24 00 00 56 05 13 E2 AF  ..V....$..V....
00006E40 1C 00 0E 56 01 13 6E A0 B0 5A FE FF 62 57 03 10 ...V..n..Z..bW..
00006E50 07 02 1E 03 1E 92 B1 32 CC C0 B1 52 1F 00 A9 1F .......2...R....
00006E60 04 52 6B 11 B4 52 10 00 C4 1F 1E 9F 2C 00 46 5B .Rk..R......,.F[
00006E70 16 33 B6 52 20 00 AD 1E 12 54 42 48 92 32 25 23 .3.R ....TBH.2%#
00006E80 15 45 50 5F 2E AF 28 00 20 61 0E EF 28 00 6E DF .EP_..(. a..(.n.
00006E90 2C 00 00 5A 07 02 1E 03 00 54 0E EF 28 00 0E C3 ,..Z.....T..(...
00006EA0 2C 00 07 02 1E 03 B0 5A FE FF 07 02 1E 03 9D 01 ,......Z........
00006EB0 67 01 BF 60 C8 FF 2C 55 4F DC 02 56 03 17 02 AF g..`..,UO..V....
00006EC0 20 00 00 56 0B 16 02 AF 24 00 00 56 03 16 D2 AF  ..V....$..V....
00006ED0 1C 00 0D 56 07 15 0D A0 B7 5A FE FF 7F D6 02 57 ...V.....Z.....W
00006EE0 06 10 0F 96 BF 60 38 00 67 02 9D 03 0D 92 B1 5A .....`8.g......Z
00006EF0 CC C0 01 33 B1 52 1F 00 A5 1F A2 A6 AF E8 0A 56 ...3.R.........V
00006F00 01 1F A2 A0 72 92 7F DA 0A 56 09 13 B0 52 3F 3F ....r....V...R??
00006F10 15 10 B0 5A 40 3F 0D D2 C1 5A 7C 98 7F D3 8D AF ...Z@?...Z|.....
00006F20 28 00 7D 9F 2C 00 0F 9C B0 32 FB FF 0F DD 2F 93 (.}.,....2..../.
00006F30 2F DB 3F 9A 3F D2 B4 54 0C 05 D4 61 4F EF 1C 00 /.?.?..T...aO...
00006F40 B5 54 CC 02 D5 61 5F EF 20 00 B2 54 48 00 D2 61 .T...a_. ..TH..a
00006F50 2F EF 24 00 B3 54 4C 00 D3 61 3F EF 28 00 B4 54 /.$..TL..a?.(..T
00006F60 3C 00 D4 61 4F EF 2C 00 B1 52 1E 00 AB 11 11 5F <..aO.,..R....._
00006F70 21 4C 40 05 38 E8 14 61 04 A0 E0 0A 07 52 07 1C !L@.8..a.....R..
00006F80 E1 1B BB 5A FE FF BF D6 0F 96 BF 60 38 00 67 02 ...Z.......`8.g.
00006F90 9D 03 BA 5A FE FF AF D6 E5 1A B7 5A FE FF 7F D6 ...Z.......Z....
00006FA0 E1 1A BC 5A FE FF CF D6 ED 19 54 39 48 47 27 3B ...Z......T9HG';
00006FB0 2D DF 9E 1B 3D DF 2E 00 B0 5A 4D 3F 0D D2 2F A8 -...=....ZM?../.
00006FC0 AF A4 1F 93 01 52 00 18 7C 18 4F A8 14 60 4F E8 .....R..|.O..`O.
00006FD0 0D 9F 2E 00 02 F0 91 32 1F D3 B0 5A 48 3F 0D D2 .......2...ZH?..
00006FE0 2F 92 52 52 A0 08 00 52 00 18 B2 10 3F 93 B3 52 /.RR...R....?..R
00006FF0 01 01 A0 08 00 52 00 18 A4 10 4F A8 4C E6 3C D8 .....R....O.L.<.
00007000 AC E0 2C D2 8D EF 28 00 7D DF 2C 00 4F 9B C2 55 ..,...(.}.,.O..U
00007010 00 C0 18 5B AC A6 AF E8 BC 98 BF D3 AC A0 7C 92 ...[..........|.
00007020 7F D2 8D AF 28 00 7D 9F 2C 00 1D 92 B1 52 3F 3F ....(.}.,....R??
00007030 14 10 90 5A 0D DF 9E 1B B1 32 CC C0 E6 19 20 05 ...Z.....2.... .
00007040 34 E9 2D EF 34 00 9D C3 3C 00 20 05 B4 E8 2D EF 4.-.4...<. ...-.
00007050 38 00 5D C3 3E 00 B1 5A 47 3F 1D D2 4F 9C 64 52 8.].>..ZG?..O.dR
00007060 00 18 12 19 D8 4B B7 32 FD FF B0 5A 48 3F 0D D2 .....K.2...ZH?..
00007070 E8 1B AF E4 04 50 0A 19 BA 58 F0 FF 4A 21 0A 50 .....P...X..J!.P
00007080 00 18 1C 16 00 58 20 39 08 47 27 3B 2D DF 9E 1B .....X 9.G';-...
00007090 3D DF 2E 00 B0 58 20 00 40 21 00 50 10 18 C0 13 =....X .@!.P....
000070A0 B0 58 40 00 40 21 00 50 10 18 C0 15 F4 22 4D DF .X@.@!.P....."M.
000070B0 32 00 B0 5A 49 3F 0D D2 AF A4 04 52 10 18 AA 10 2..ZI?.....R....
000070C0 0D 9F 2E 00 0D DF A0 1B B0 5A 4A 3F 0D D2 ED AF .........ZJ?....
000070D0 38 00 85 5B 0D 9F 3E 00 93 5A 03 45 93 2A 30 5B 8..[..>..Z.E.*0[
000070E0 80 23 00 5F 20 4C E0 61 40 B0 20 B1 10 91 20 5D .#._ L.a@. ... ]
000070F0 06 5B 70 53 B0 18 5A 14 1F 92 01 52 00 18 60 10 .[pS..Z....R..`.
00007100 12 5B E5 10 4A 55 02 52 00 18 08 10 92 32 14 54 .[..JU.R.....2.T
00007110 A4 61 0A B0 00 5D 00 5F 70 48 08 61 87 32 8F D6 .a...]._pH.a.2..
00007120 30 5B 80 23 00 5F 20 4C E0 61 B0 B0 A0 B1 10 91 0[.#._ L.a......
00007130 A0 5D 06 5B 70 53 A7 1E 4F E4 B4 59 85 5B 2F D2 .].[pS..O..Y.[/.
00007140 A2 59 03 5B BA 58 F0 FF 4A 21 0A 50 00 18 30 12 .Y.[.X..J!.P..0.
00007150 0D 9F 9E 1B 02 58 32 39 28 47 67 3B 30 33 0D DF .....X29(Gg;03..
00007160 9E 1B B0 58 40 00 40 21 00 50 10 18 C2 0F 1D DF ...X@.@!.P......
00007170 30 00 F4 22 4D DF 32 00 B0 5A 4B 3F 0D D2 AF A4 0.."M.2..ZK?....
00007180 04 52 10 18 40 10 B0 5A 4C 3F 0D D2 1F 93 01 52 .R..@..ZL?.....R
00007190 00 18 1E 16 12 5B 1F 9B 21 3B 0D 9F 30 00 10 53 .....[..!;..0..S
000071A0 B0 18 7A 0F 10 3B 1D 9F 20 00 01 53 50 18 26 0E ..z..;.. ..SP.&.
000071B0 1D 9F 9C 1B 01 52 00 18 1C 0E 00 05 EC E7 0C EC .....R..........
000071C0 B0 5A 51 3F 0D D2 AF E4 BA 5A FD FF AF D6 AF A8 .ZQ?.....Z......
000071D0 AC E6 BF 93 BC D8 AF A4 AC E0 BF 92 BC D2 8D EF ................
000071E0 28 00 7D DF 2C 00 0D 9F 1E 00 00 52 13 11 7F 9B (.}.,......R....
000071F0 AF 93 A7 53 07 15 0D 92 B0 52 50 3F A3 15 BF 9C ...S.....RP?....
00007200 4B 52 11 08 01 52 16 10 B0 52 4D 3F B0 08 00 52 KR...R...RM?...R
00007210 09 14 BF 9B 7F 93 7B 3B 8C AF 1C 00 28 AF 24 00 ......{;....(.$.
00007220 02 56 00 18 5A 01 18 9F 1E 00 01 52 1B 10 08 9F .V..Z......R....
00007230 1C 00 11 5A 01 45 18 DF 1E 00 08 C3 22 00 08 C3 ...Z.E......"...
00007240 20 00 1B 53 50 18 12 01 08 9F 22 00 01 3B BA 5B  ..SP....."..;.[
00007250 1B 53 B2 10 1A 5B 00 5F 02 61 A0 5F B4 5F 6F A8 .S...[._.a._._o.
00007260 14 00 46 C0 64 55 10 01 00 C0 BC 68 AB 3B 4F 60 ..F.dU.....h.;O`
00007270 0B 52 10 18 3A 01 08 9F 22 00 A0 33 08 DF 22 00 .R..:..."..3..".
00007280 18 9F 1E 00 10 53 13 10 B8 DF 22 00 08 9F 20 00 .....S...."... .
00007290 BC 98 BF D3 7C 92 7F D2 01 53 B4 10 0A 33 A8 DF ....|....S...3..
000072A0 20 00 9F 9A BF 92 B9 3B 8F 9B 7F 93 78 3B 92 5F  ......;....x;._
000072B0 0C A4 20 61 0C E4 82 5F 0C AA 20 61 0C EA 0D AA .. a..._.. a....
000072C0 20 61 0D EA 0D B8 E0 49 10 22 00 50 02 11 08 52  a.....I.".P...R
000072D0 10 08 00 52 0E 10 4C A6 14 00 24 C0 2D A8 0D 96 ...R..L...$.-...
000072E0 86 5B 00 52 0A 17 00 C0 12 58 0D E8 0C EF 30 00 .[.R.....X....0.
000072F0 1D 9F 2C 00 0D 93 00 52 03 10 B1 32 40 00 0D 92 ..,....R...2@...
00007300 B0 52 3F 3F 05 12 B0 52 47 3F 02 08 02 52 17 10 .R??...RG?...R..
00007310 B0 52 42 3F 02 08 00 5A 02 53 03 10 B0 5A 00 01 .RB?...Z.S...Z..
00007320 10 33 0C DF 2C 00 98 27 08 52 00 08 00 52 17 10 .3..,..'.R...R..
00007330 AF 9C 4A 52 00 08 00 52 00 18 AB FB BF 96 0B 52 ..JR...R.......R
00007340 10 18 A3 FB B7 5A FB FF 7F D6 E0 18 99 FB B1 32 .....Z.........2
00007350 80 00 00 5A E6 1E 1A 5F 4F A8 14 00 A4 C0 1A 01 ...Z..._O.......
00007360 00 C0 C4 67 08 C3 22 00 08 9F 1E 00 08 DF 20 00 ...g.."....... .
00007370 AC 92 AF D4 BC 98 BF D5 4F 60 E4 19 08 9F 1C 00 ........O`......
00007380 15 5A 54 5B 04 45 2C AF 28 00 0C AF 20 00 D0 00 .ZT[.E,.(... ...
00007390 02 55 08 EF 24 00 00 56 10 18 8F FE B0 5A 52 3F .U..$..V.....ZR?
000073A0 0D D2 BA 5A FC FF AF D6 E0 18 3B FB B0 5F 28 AF ...Z......;.._(.
000073B0 24 00 4F A8 14 00 04 C0 10 01 00 C0 6A 67 B8 DF $.O.........jg..
000073C0 22 00 08 9F 1E 00 08 DF 20 00 7C 92 7F D4 AC 98 "....... .|.....
000073D0 AF D5 4F 60 E0 18 CF FE 00 C0 16 4D E7 18 4D 9F ..O`.......M..M.
000073E0 32 00 E0 18 D9 FC 6D 9F 46 00 0D 9F 42 00 0F DF 2.....m.F...B...
000073F0 32 00 0D 9F 44 00 1F 9F 32 00 01 33 1F DF 30 00 2...D...2..3..0.
00007400 0E 5A 6F D6 6F 92 15 5B 0F 96 05 53 B0 18 B8 13 .Zo.o..[...S....
00007410 2D AF 34 00 2F E4 0D 9F 3C 00 94 5A 04 45 94 2A -.4./...<..Z.E.*
00007420 40 5B 80 23 00 5F 20 4C 20 61 50 B1 00 91 51 5D @[.#._ L aP...Q]
00007430 17 53 50 18 2C 11 06 52 17 10 E0 18 38 11 2A 55 .SP.,..R....8.*U
00007440 06 52 00 18 86 0B 96 32 12 54 A2 61 0A B0 00 5D .R.....2.T.a...]
00007450 00 5F 70 48 08 61 87 32 40 5B 80 23 00 5F 20 4C ._pH.a.2@[.#._ L
00007460 AF A4 A0 61 50 B1 00 91 51 5D 71 53 A9 1E F0 52 ...aP...Q]qS...R
00007470 A0 18 AC 0D 04 58 54 39 48 47 17 3B 1F 96 11 32 .....XT9HG.;...2
00007480 1D DF 46 00 BF 96 B4 5F B4 60 26 00 44 61 D4 61 ..F...._.`&.Da.a
00007490 04 D0 1F D6 2A 55 5F 9F 30 00 10 5B E7 1B 0D 94 ....*U_.0..[....
000074A0 00 52 00 18 B6 11 0D 96 00 52 00 18 AE 11 B7 52 .R.......R.....R
000074B0 1F 00 A0 18 BA 10 0F 92 00 52 00 18 A2 0C 03 5B .........R.....[
000074C0 93 32 11 54 A1 61 1F E4 0A B0 00 5D 00 5F 70 48 .2.T.a.....]._pH
000074D0 08 61 82 5A 72 33 B2 52 1F 00 A0 18 64 0F 03 52 .a.Zr3.R....d..R
000074E0 00 18 46 11 3F 92 B3 32 FE FF 24 54 A4 61 4F E4 ..F.?..2..$T.aO.
000074F0 0A B1 00 5D 00 5F 20 48 08 61 B2 5A 10 00 72 33 ...]._ H.a.Z..r3
00007500 B2 52 1F 00 A0 18 3A 0F 03 52 00 18 A0 0D 3F 92 .R....:..R....?.
00007510 B3 32 FD FF 35 54 A5 61 5F E4 0A B2 00 5D 00 5F .2..5T.a_....]._
00007520 20 48 08 61 B2 5A 18 00 72 33 B2 52 1F 00 A0 18  H.a.Z..r3.R....
00007530 10 0F 03 52 00 18 76 0D 6F 92 B6 32 FC FF 6F D2 ...R..v.o..2..o.
00007540 40 54 A0 61 0F E4 0A B3 00 5D 00 5F 20 48 08 61 @T.a.....]._ H.a
00007550 B7 32 20 00 0D AA 80 57 00 18 FA 10 00 05 20 E8 .2 ....W...... .
00007560 0C EC B0 5A 51 3F 0D D2 BA 5A FD FF AF D6 E0 18 ...ZQ?...Z......
00007570 61 FC 0D 96 B1 5A 00 02 01 23 01 52 10 18 98 01 a....Z...#.R....
00007580 2D AC 02 56 07 10 70 43 10 22 02 DF 22 00 12 C3 -..V..pC.".."...
00007590 24 00 06 5A 04 54 42 55 00 C0 60 55 0D E8 0C EF $..Z.TBU..`U....
000075A0 30 00 B0 5A 3F 3F 0D D2 AF E4 AF 9D 1A 52 B0 18 0..Z??.......R..
000075B0 00 0D 0D 93 00 52 00 18 CC 01 71 5A 71 23 00 58 .....R....qZq#.X
000075C0 10 39 08 47 B7 22 F8 FF B0 5A 4E 3F 0D D2 AF A4 .9.G."...ZN?....
000075D0 0D 94 00 52 00 18 7E 0B B7 52 1F 00 A0 18 DC 11 ...R..~..R......
000075E0 5F 92 05 52 00 18 84 0D 51 5B 91 32 12 54 A2 61 _..R....Q[.2.T.a
000075F0 2F E4 2A B0 22 5D 22 5F 72 48 28 61 84 5A 74 33 /.*."]"_rH(a.Zt3
00007600 B4 52 1F 00 A0 18 40 10 01 52 00 18 48 0E 91 32 .R....@..R..H..2
00007610 25 54 A5 61 5F E4 2A B1 22 5D 22 5F 42 48 28 61 %T.a_.*."]"_BH(a
00007620 B4 5A 10 00 74 33 B4 52 1F 00 A0 18 1A 10 01 52 .Z..t3.R.......R
00007630 00 18 22 0E 1F 92 B1 32 FD FF 32 54 A2 61 2F E4 .."....2..2T.a/.
00007640 2A B2 22 5D 22 5F 42 48 28 61 B4 5A 18 00 74 33 *."]"_BH(a.Z..t3
00007650 B4 52 1F 00 A0 18 F0 0F 01 52 00 18 F8 0D 3F 92 .R.......R....?.
00007660 B3 32 FC FF 3F D2 45 54 A5 61 5F E4 2A B3 22 5D .2..?.ET.a_.*."]
00007670 22 5F 42 48 28 61 B7 32 20 00 6F 9B AF 93 A6 3B "_BH(a.2 .o....;
00007680 64 5F 2C AA 42 61 2C EA 2D AA 42 61 2D EA 41 5A d_,.Ba,.-.Ba-.AZ
00007690 01 23 01 52 12 08 02 52 06 11 06 52 12 08 02 52 .#.R...R...R...R
000076A0 02 11 AF A8 14 00 4A C0 A4 55 2D A8 0D 96 00 52 ......J..U-....R
000076B0 00 18 2C 11 00 C0 44 54 0D E8 0C EF 30 00 0D 94 ..,...DT....0...
000076C0 41 5A 01 23 01 52 00 18 6A 0F 1D 96 82 55 01 52 AZ.#.R..j....U.R
000076D0 11 11 84 55 84 4D 82 4A 42 61 84 55 84 4B 44 00 ...U.M.JBa.U.KD.
000076E0 00 00 00 FF 42 61 84 55 84 4C 44 00 FF 00 00 00 ....Ba.U.LD.....
000076F0 42 61 4D A8 24 57 00 18 52 0A 00 05 0A E8 0C EC BaM.$W..R.......
00007700 B0 5A 51 3F 0D D2 BF 93 BF DB BA 5A FD FF AF D6 .ZQ?.......Z....
00007710 E0 18 BF FA F7 52 A0 18 28 0E 2F 92 02 52 00 18 .....R..(./..R..
00007720 3E 0A 21 5B 91 32 13 54 A3 61 3F E4 2A B0 22 5D >.![.2.T.a?.*."]
00007730 22 5F 72 48 28 61 84 5A 74 33 F4 52 A0 18 28 0E "_rH(a.Zt3.R..(.
00007740 01 52 00 18 10 0D 5F 92 B5 32 FE FF 5F D2 21 54 .R...._..2.._.!T
00007750 A1 61 1F E4 2A B1 22 5D 22 5F 42 48 28 61 B7 32 .a..*."]"_BH(a.2
00007760 10 00 1D 94 41 22 01 52 00 18 D6 09 2D A8 42 00 ....A".R....-.B.
00007770 00 00 FF FF 82 57 00 18 C8 09 00 05 C4 E6 E0 18 .....W..........
00007780 E3 FD 27 52 A0 18 BA 0E BF 92 0B 52 00 18 C0 0E ..'R.......R....
00007790 BA 5B 9A 32 AF D2 AF A4 1A 60 3F A4 23 B0 22 5D .[.2.....`?.#."]
000077A0 22 5F 72 48 28 61 87 32 11 5A 81 23 1D D3 82 55 "_rH(a.2.Z.#...U
000077B0 F2 4B 32 22 22 52 00 18 16 01 32 52 09 17 12 52 .K2""R....2R...R
000077C0 00 18 7F F8 B0 5A 41 3F 0D D2 D8 4B B7 32 FD FF .....ZA?...K.2..
000077D0 AF E4 71 5A 71 23 00 58 10 39 08 47 B7 22 F8 FF ..qZq#.X.9.G."..
000077E0 B7 52 1F 00 AD 14 0F 92 00 52 00 18 4E 0D 03 5B .R.......R..N..[
000077F0 93 32 1A 60 1F A4 01 B0 00 5D 00 5F 70 48 08 61 .2.`.....]._pH.a
00007800 82 5A 72 33 B2 52 1F 00 A0 18 9C 0C 03 52 00 18 .Zr3.R.......R..
00007810 38 0C 3F 92 B3 32 FE FF AF A4 2A 60 4F A4 04 B1 8.?..2....*`O...
00007820 00 5D 00 5F 20 48 08 61 B2 5A 10 00 72 33 B2 52 .]._ H.a.Z..r3.R
00007830 1F 00 A0 18 72 0C 03 52 00 18 0E 0C 3F 92 B3 32 ....r..R....?..2
00007840 FD FF 4A 55 3A 60 04 B2 00 5D 00 5F 20 48 08 61 ..JU:`...]._ H.a
00007850 B2 5A 18 00 72 33 B2 52 1F 00 A0 18 4A 0C 03 52 .Z..r3.R....J..R
00007860 00 18 E6 0B AF 92 BA 32 FC FF AF D2 4A 55 4A 60 .......2....JUJ`
00007870 04 B3 00 5D 00 5F 20 48 08 61 B7 32 20 00 80 55 ...]._ H.a.2 ..U
00007880 00 4B 60 00 00 00 FF FF 20 05 FF FF 14 00 82 B0 .K`..... .......
00007890 02 57 00 18 F0 0B 00 05 EC E6 0C EC B0 5A 51 3F .W...........ZQ?
000078A0 0D D2 AF E4 BB 5A FD FF BF D6 E0 18 25 F9 00 05 .....Z......%...
000078B0 D8 E6 0C EC B0 5A 51 3F 0D D2 D8 4B B7 32 FD FF .....ZQ?...K.2..
000078C0 AF E4 BA 5A FD FF AF D6 E0 18 07 F9 B0 5A 44 3F ...Z.........ZD?
000078D0 0D D2 D8 4B B7 32 FD FF AF E4 D7 52 A4 12 0F 92 ...K.2.....R....
000078E0 00 52 00 18 56 0C 03 5B 93 32 1A 60 1F A4 01 B0 .R..V..[.2.`....
000078F0 00 5D 00 5F 70 48 08 61 82 5A 72 33 D2 52 A0 18 .]._pH.a.Zr3.R..
00007900 58 0E 03 52 00 18 42 0B AF 92 BA 32 FE FF AF D2 X..R..B....2....
00007910 AF A4 2A 60 3F A4 03 B1 00 5D 00 5F 20 48 08 61 ..*`?....]._ H.a
00007920 B7 32 10 00 B2 5A 1F 00 82 23 B2 32 01 01 2D DF .2...Z...#.2..-.
00007930 42 00 80 55 B0 4B B0 22 1F 00 10 32 0D DF 44 00 B..U.K."...2..D.
00007940 83 55 63 4B F3 22 43 32 3D DF 40 00 28 4B B7 32 .UcK."C2=.@.(K.2
00007950 F2 FF B0 52 1E 00 A0 08 00 52 10 18 38 07 B2 52 ...R.....R..8..R
00007960 1E 01 A0 08 00 52 10 18 2C 07 0D C3 46 00 B0 5A .....R..,...F..Z
00007970 45 3F 0D D2 04 5A 12 5A 42 33 44 5F 44 61 E0 05 E?...Z.ZB3D_Da..
00007980 34 F1 4E 61 13 32 36 5B 3F 92 27 52 A0 18 A6 0B 4.Na.26[?.'R....
00007990 03 52 00 18 B2 0B 93 32 10 54 A0 61 4A B0 44 5D .R.....2.T.aJ.D]
000079A0 44 5F 74 48 48 61 87 32 2D DF 46 00 4E 90 44 5F D_tHHa.2-.F.N.D_
000079B0 B4 60 26 00 44 61 D4 61 7A 5A 8A 23 A4 D0 D8 4B .`&.Da.azZ.#...K
000079C0 B7 32 FD FF 14 5A 24 33 2E 60 64 53 00 18 AE 0C .2...Z$3.`dS....
000079D0 42 5B 0A 55 EB 1D 0D 96 B1 5A 00 04 01 23 01 52 B[.U.....Z...#.R
000079E0 03 14 1D 9F 2E 00 3F 92 3F D4 13 53 B2 10 1F D4 ......?.?..S....
000079F0 4F 94 04 52 05 13 43 5B 4D AC 32 5F 2F E6 04 56 O..R..C[M.2_/..V
00007A00 06 11 E4 A6 0E 56 03 11 24 98 12 3B 34 99 4F 94 .....V..$..;4.O.
00007A10 24 33 0F A6 34 53 B3 10 23 3B 30 5F 22 5F E2 61 $3..4S..#;0_"_.a
00007A20 10 01 A4 55 00 C0 00 61 0D 96 4F 60 B0 22 00 02 ...U...a..O`."..
00007A30 00 52 0B 10 0D 94 40 22 00 52 07 10 2D A8 6F 94 .R....@".R..-.o.
00007A40 A4 55 00 C0 B6 50 0D E8 4F 92 5F 94 54 3B 4F D2 .U...P..O._.T;O.
00007A50 0F A6 0A 61 1D 9F 2E 00 51 3B 1D DF 2E 00 01 52 ...a....Q;.....R
00007A60 10 18 10 0C 0D 96 0D C3 2E 00 B1 5A 3A 3F 1D D2 ...........Z:?..
00007A70 B1 5A 00 08 01 23 01 52 12 16 2D AC 02 56 03 10 .Z...#.R..-..V..
00007A80 04 54 42 EA 0D C3 2E 00 B1 5A 3B 3F 1D D2 B1 5A .TB......Z;?...Z
00007A90 00 10 01 23 01 52 1C 10 2D AC 02 56 04 10 04 54 ...#.R..-..V...T
00007AA0 42 EF 1C 00 B1 5A 3C 3F 1D D2 E0 18 CB FA 5F 92 B....Z<?......_.
00007AB0 05 52 00 18 B6 08 00 5A 8F E4 56 5B 12 5A 02 33 .R.....Z..V[.Z.3
00007AC0 00 5F A0 61 30 B0 0D AC 00 56 02 11 40 AF 1C 00 ._.a0....V..@...
00007AD0 04 56 0E 10 9D 9F 2E 00 00 9F 20 00 09 53 58 10 .V........ ..SX.
00007AE0 10 5A 90 33 0D DF 2E 00 9E 5F E4 61 34 F0 20 5B .Z.3....._.a4. [
00007AF0 03 50 11 08 01 52 05 10 26 53 A1 08 01 52 1F 1D .P...R..&S...R..
00007B00 3F FC 8F A4 2F D4 0D 96 B0 22 00 02 00 52 0B 10 ?.../...."...R..
00007B10 0D 94 40 22 00 52 07 10 26 5B 2D A8 A4 55 00 C0 ..@".R..&[-..U..
00007B20 DA 4F 0D E8 6F 94 60 5F 0A 61 0F 92 60 3B 0F D2 .O..o.`_.a..`;..
00007B30 1F BC 01 50 10 18 3C 0B 0D 96 E5 1B 1F 92 01 52 ...P..<........R
00007B40 00 18 1C 06 00 5A 8F E4 16 5B E5 10 26 53 A1 08 .....Z...[..&S..
00007B50 01 52 0D 11 12 5A 02 33 00 5F A0 61 30 B0 0D AC .R...Z.3._.a0...
00007B60 00 56 00 11 40 AA 04 56 0D 10 9D 9F 2E 00 00 9C .V..@..V........
00007B70 09 53 58 10 10 5A 90 33 0D DF 2E 00 9E 5F E4 61 .SX..Z.3....._.a
00007B80 34 F0 20 5B 03 50 11 08 01 52 11 1E 3F FC 8F A4 4. [.P...R..?...
00007B90 2F D4 0D 96 B0 22 00 02 00 52 0C 10 0D 94 40 22 /...."...R....@"
00007BA0 00 52 08 10 26 5B 2D A8 A4 55 00 C0 4E 4F 0D E8 .R..&[-..U..NO..
00007BB0 2F 94 20 5F 0A 61 3F 92 23 3B 3F D2 4F BC 04 50 /. _.a?.#;?.O..P
00007BC0 10 18 B0 0A 0D 96 E0 18 BF FE F7 52 A0 18 B8 0A ...........R....
00007BD0 1F 92 01 52 00 18 88 05 14 5B E4 10 2A 55 04 52 ...R.....[..*U.R
00007BE0 08 14 94 32 12 54 A2 61 0A B0 00 5D 00 5F 70 48 ...2.T.a...]._pH
00007BF0 08 61 87 32 F7 52 B3 1F 2F E4 4F D2 0D AC 00 56 .a.2.R../.O....V
00007C00 08 10 B2 5A FF 00 82 23 20 D4 82 55 82 4B 20 D5 ...Z...# ..U.K .
00007C10 4D 96 40 5B B1 5A 00 02 41 23 01 52 00 11 1D 94 M.@[.Z..A#.R....
00007C20 41 22 01 52 0C 10 8F F0 88 4B 8F F1 2D A8 26 5A A".R.....K..-.&Z
00007C30 F4 55 00 C0 C6 4E 0D E8 4D 96 40 5B B1 5A 38 3F .U...N..M.@[.Z8?
00007C40 1D D2 B7 5A 00 04 47 23 AF A4 08 54 07 52 10 18 ...Z..G#...T.R..
00007C50 EA 07 2D AC 02 56 00 18 6A 06 00 54 02 E6 40 5B ..-..V..j..T..@[
00007C60 B1 5A 00 04 41 23 B2 5A 39 3F 2D D2 E0 18 73 FD .Z..A#.Z9?-...s.
00007C70 2F E4 4F D2 4F D6 E0 18 59 F5 B7 52 1F 00 A0 18 /.O.O...Y..R....
00007C80 0C 0A 0F 92 00 52 00 18 E2 06 04 5B E4 10 2A 55 .....R.....[..*U
00007C90 04 52 0F 1E 94 32 12 54 A2 61 0A B0 00 5D 00 5F .R...2.T.a...]._
00007CA0 70 48 08 61 87 32 B7 52 1F 00 B2 1F 2F E4 4F D2 pH.a.2.R..../.O.
00007CB0 0D AC 00 56 02 10 80 E2 0D 96 B0 22 00 02 00 52 ...V......."...R
00007CC0 03 11 0D 94 40 22 00 52 0F 10 8F F0 80 55 80 4B ....@".R.....U.K
00007CD0 0F F1 9F F2 90 5B 80 49 0F F3 2D A8 46 5A F4 55 .....[.I..-.FZ.U
00007CE0 00 C0 18 4E 0D E8 B0 5A 37 3F 0D D2 AF A4 07 5A ...N...Z7?.....Z
00007CF0 08 54 E0 18 DF FE 4D 96 40 5B B1 5A 00 04 41 23 .T....M.@[.Z..A#
00007D00 01 52 08 1A F7 52 A0 18 0C 0B 2F 92 02 52 00 18 .R...R..../..R..
00007D10 5A 06 25 5B E5 10 2A 55 05 52 00 18 1A 04 95 32 Z.%[..*U.R.....2
00007D20 12 54 A2 61 0A B0 00 5D 00 5F 70 48 08 61 87 32 .T.a...]._pH.a.2
00007D30 F7 52 B2 1F 2F E4 5F D2 8D DF 2E 00 0D AC 00 56 .R../._........V
00007D40 02 10 80 D8 B7 5A 00 02 47 23 07 52 10 18 60 07 .....Z..G#.R..`.
00007D50 40 5B B1 5A 00 04 41 23 AF A4 08 54 E5 18 4D 9F @[.Z..A#...T..M.
00007D60 46 00 3D 9F 40 00 34 53 40 18 0F FC B4 52 12 00 F.=.@.4S@....R..
00007D70 A4 11 40 5F 00 61 20 05 34 F1 02 61 14 32 02 90 ..@_.a .4..a.2..
00007D80 00 5F B0 60 26 00 00 61 D0 61 00 C2 22 60 B4 52 ._.`&..a.a.."`.R
00007D90 13 00 15 1F 4D DF 46 00 0F AF 1C 00 0D EF 48 00 ....M.F.......H.
00007DA0 0D EF 34 00 7D C3 3C 00 1F AF 20 00 11 01 2F AF ..4.}.<... .../.
00007DB0 30 00 12 01 3F AF 2C 00 13 01 B5 5A 13 00 3F AF 0...?.,....Z..?.
00007DC0 34 00 02 5A 00 C0 48 14 CF 60 00 52 00 18 D2 09 4..Z..H..`.R....
00007DD0 00 05 2E E7 E0 18 EB F3 0D 96 E0 18 B5 FC 0D 94 ................
00007DE0 00 52 10 18 E4 04 B0 5A 40 3F 0D D2 AF E4 E0 18 .R.....Z@?......
00007DF0 C5 F7 4D 9F 32 00 E0 18 8B F3 0D 96 E0 18 75 FC ..M.2.........u.
00007E00 0D 9F 2E 00 00 52 0C 12 1F 92 01 53 B2 10 01 5B .....R.....S...[
00007E10 1F D6 0F 93 01 53 B3 10 0F D6 01 5B 01 52 00 18 .....S.....[.R..
00007E20 18 0A 12 5F 2F E4 12 01 A4 55 2F AA 00 C0 F8 5C ..._/....U/....\
00007E30 4F 94 5F 98 54 3B 4F D4 0F A6 0A 61 1F 95 51 3B O._.T;O....a..Q;
00007E40 1F D5 2F AA 4F A6 42 61 2F EA 0D 9F 2E 00 5F 98 ../.O.Ba/....._.
00007E50 50 3B 0D DF 2E 00 1D 92 4F 60 E0 18 DF F1 B0 5A P;......O`.....Z
00007E60 3F 3F 0D D2 AF E4 E0 18 45 F7 0D 9F 2E 00 B1 5A ??......E......Z
00007E70 43 3F 1D D2 E8 1C F7 52 A0 18 18 08 1F 92 01 52 C?.....R.......R
00007E80 00 18 E8 04 13 5B 93 32 14 54 A4 61 4F E4 0A B0 .....[.2.T.aO...
00007E90 00 5D 00 5F 70 48 08 61 82 5A 72 33 F2 52 A0 18 .]._pH.a.Zr3.R..
00007EA0 B0 08 03 52 00 18 06 04 0F 92 B0 32 FE FF 0F D2 ...R.......2....
00007EB0 23 54 A3 61 3F E4 0A B1 00 5D 00 5F 20 48 08 61 #T.a?....]._ H.a
00007EC0 B7 32 10 00 84 5B 8D D6 88 50 00 18 A2 05 00 05 .2...[...P......
00007ED0 7A E6 E0 18 8F F6 B7 52 1F 00 A0 18 BC 07 2F 92 z......R....../.
00007EE0 02 52 00 18 7A 02 23 5B 93 32 14 54 A4 61 4F E4 .R..z.#[.2.T.aO.
00007EF0 0A B0 00 5D 00 5F 70 48 08 61 82 5A 72 33 B2 52 ...]._pH.a.Zr3.R
00007F00 1F 00 A0 18 9C 05 03 52 00 18 A2 03 3F 92 B3 32 .......R....?..2
00007F10 FE FF 25 54 A5 61 5F E4 0A B1 00 5D 00 5F 20 48 ..%T.a_....]._ H
00007F20 08 61 B2 5A 10 00 72 33 B2 52 1F 00 A0 18 72 05 .a.Z..r3.R....r.
00007F30 03 52 00 18 78 03 3F 92 B3 32 FD FF 30 54 A0 61 .R..x.?..2..0T.a
00007F40 0F E4 0A B2 00 5D 00 5F 20 48 08 61 B7 32 18 00 .....]._ H.a.2..
00007F50 B7 52 1F 00 A0 18 4A 05 03 52 00 18 52 03 0F 92 .R....J..R..R...
00007F60 B0 32 FC FF 0F D2 41 54 A1 61 1F E4 0A B3 00 5D .2....AT.a.....]
00007F70 00 5F 70 48 08 61 80 55 80 4A 82 55 82 4D 20 61 ._pH.a.U.J.U.M a
00007F80 82 55 82 4B 42 00 00 00 00 FF 20 61 88 4C 48 00 .U.KB..... a.LH.
00007F90 FF 00 00 00 08 61 8D E8 8C EF 30 00 B0 5A 3E 3F .....a....0..Z>?
00007FA0 0D D2 07 5A 08 54 0D 95 00 52 00 18 3A 08 06 5A ...Z.T...R..:..Z
00007FB0 04 54 42 55 00 C0 3A 41 0D E8 0C EF 30 00 B0 5A .TBU..:A....0..Z
00007FC0 3F 3F 0D D2 E0 18 E7 F5 2F E4 6F D2 6F D6 E0 18 ??....../.o.o...
00007FD0 01 F2 1D 9F 22 00 2D AF 24 00 01 53 50 18 DA 02 ....".-.$..SP...
00007FE0 10 3B 1D 9F 1E 00 01 3B 1E 5F 2E 61 1D 9F 2E 00 .;.....;._.a....
00007FF0 12 5B 01 53 B2 10 02 5B 4F 93 24 53 B2 10 24 5B .[.S...[O.$S..$[
00008000 0F 93 40 3B 0F D3 41 3B 1D DF 2E 00 20 54 E0 61 ..@;..A;.... T.a
00008010 2F A8 02 57 52 08 0F A8 20 60 0E 57 50 08 20 25 /..WR... `.WP. %
00008020 C4 52 A1 08 10 21 00 50 00 18 F4 03 0F A8 14 00 .R...!.P........
00008030 E0 90 60 00 FF FF FF FF 10 20 00 50 00 18 E0 03 ..`...... .P....
00008040 B5 5A FE FF 45 33 F5 49 15 32 2F A8 E0 55 06 5A .Z..E3.I.2/..U.Z
00008050 4F D4 40 90 42 D0 16 32 22 60 20 60 56 53 4A 1F O.@.B..2"` `VSJ.
00008060 4F 94 55 33 50 5F 2F A8 02 61 E0 61 54 53 03 10 O.U3P_/..a.aTS..
00008070 00 B0 02 F0 96 5A 46 33 64 5F 14 60 0F A8 40 61 .....ZF3d_.`..@a
00008080 0F E8 0D 9F 2E 00 00 52 00 18 E3 EF 1D 92 E0 18 .......R........
00008090 AB EF 00 05 0A E7 E0 18 29 F1 0D C3 9E 1B ED AF ........).......
000080A0 34 00 81 5B 2D 9F 3C 00 90 5A 20 45 90 2A 02 5B 4..[-.<..Z E.*.[
000080B0 82 23 22 5F 22 4C E2 61 42 B0 52 B1 32 91 52 5D .#"_"L.aB.R.2.R]
000080C0 72 53 B0 18 B1 EF 1F 92 01 52 00 18 9E 02 16 5B rS.......R.....[
000080D0 E5 10 4A 55 06 52 00 18 9C 02 96 32 14 54 A4 61 ..JU.R.....2.T.a
000080E0 2A B0 22 5D 22 5F 72 48 28 61 87 32 81 5B 02 5B *."]"_rH(a.2.[.[
000080F0 82 23 22 5F 22 4C E2 61 B2 B0 A2 B1 32 91 A2 5D .#"_"L.a....2..]
00008100 72 53 A8 1E 4F E4 B4 59 A5 59 6F D2 E0 18 69 EF rS..O..Y.Yo...i.
00008110 4F E4 2F D2 2F D6 E0 18 B9 F0 00 5F EF A8 14 00 O././......_....
00008120 0E C0 2D 9F 2E 00 21 5B E0 18 D1 FE 00 05 D6 E7 ..-...![........
00008130 E0 18 31 F4 2F E4 5F D2 5F D6 E0 18 95 F0 AF A4 ..1./._._.......
00008140 07 5A 08 54 E0 18 3D F4 7F 93 7F DB AF A4 07 5A .Z.T..=........Z
00008150 08 54 B1 5A 4F 3F 1D D2 E0 18 49 F3 AF E4 AF 92 .T.ZO?....I.....
00008160 AF D6 E0 18 6D F0 47 53 50 18 56 06 0F 92 00 52 ....m.GSP.V....R
00008170 00 18 F8 01 05 5B E4 10 2A 55 05 52 0C 1D 95 32 .....[..*U.R...2
00008180 12 54 A2 61 0A B0 00 5D 00 5F 70 48 08 61 87 32 .T.a...]._pH.a.2
00008190 47 53 43 1F 2F E4 5F D2 2A 55 90 5A 40 45 90 2A GSC./._.*U.Z@E.*
000081A0 80 23 1D 9F 2E 00 10 33 0D DF 2E 00 01 58 41 39 .#.....3.....XA9
000081B0 18 47 47 3B 1D 9F 9E 1B 14 33 4D DF 9E 1B E0 18 .GG;.....3M.....
000081C0 07 EF 47 53 50 18 12 06 0F 92 00 52 08 1C 05 5B ..GSP......R...[
000081D0 E4 10 2A 55 05 52 0F 1A 95 32 12 54 A2 61 0A B0 ..*U.R...2.T.a..
000081E0 00 5D 00 5F 70 48 08 61 87 32 47 53 43 1F 2F E4 .]._pH.a.2GSC./.
000081F0 5F D2 2A 55 90 5A 40 45 90 2A 80 23 1D 9F 30 00 _.*U.Z@E.*.#..0.
00008200 10 33 0D DF 30 00 00 58 40 39 08 47 47 3B 0D 9F .3..0..X@9.GG;..
00008210 9E 1B 04 33 4D DF 9E 1B E0 18 6F EF B0 52 10 00 ...3M.....o..R..
00008220 00 18 A8 03 B0 52 11 00 00 18 54 03 70 5A 10 33 .....R....T.pZ.3
00008230 70 53 B0 18 24 06 06 52 17 10 E0 18 12 06 A2 55 pS..$..R.......U
00008240 06 52 00 18 87 FD 96 32 1A 54 2A 61 22 B0 22 5D .R.....2.T*a"."]
00008250 22 5F 72 48 28 61 87 32 70 53 A2 1F 00 58 10 39 "_rH(a.2pS...X.9
00008260 08 47 B2 5A 7F 00 82 23 B2 32 0B 00 98 4B B0 5A .G.Z...#.2...K.Z
00008270 F9 FF 10 3B 07 33 E3 5B 1F 96 12 33 4F 9F 30 00 ...;.3.[...3O.0.
00008280 42 53 A0 18 CC 06 14 5B 40 5F B0 60 26 00 00 61 BS.....[@_.`&..a
00008290 D0 61 30 D0 14 32 42 53 18 1F 4F D6 4D DF 46 00 .a0..2BS..O.M.F.
000082A0 5F 9F 30 00 40 5B E0 18 65 F1 27 5B 3F D2 0F C3 _.0.@[..e.'[?...
000082B0 0C 00 E0 18 1D EF 01 3B 1E 5F 2E 61 E0 18 31 FD .......;._.a..1.
000082C0 01 5A E0 18 A5 F9 F7 52 A0 18 50 05 5F 92 05 52 .Z.....R..P._..R
000082D0 00 18 8D FE 51 5B 91 32 12 54 A2 61 2F E4 2A B0 ....Q[.2.T.a/.*.
000082E0 22 5D 22 5F 72 48 28 61 84 5A 74 33 F4 52 A0 18 "]"_rH(a.Zt3.R..
000082F0 30 05 01 52 00 18 5E 01 53 5B B3 32 FE FF 3F D2 0..R..^.S[.2..?.
00008300 25 54 A5 61 5F E4 2A B1 22 5D 22 5F 42 48 28 61 %T.a_.*."]"_BH(a
00008310 B7 32 10 00 01 5B F1 49 11 20 01 50 00 18 BE 01 .2...[.I. .P....
00008320 98 00 00 00 1F 8B 01 08 01 52 00 18 B0 01 0D 9F .........R......
00008330 1C 00 00 52 13 10 FD C3 1C 00 06 5A 04 54 42 55 ...R.......Z.TBU
00008340 00 C0 B8 47 0D E8 B2 5A 1F 8B 2F D0 26 5A F4 55 ...G...Z../.&Z.U
00008350 02 55 00 C0 A6 47 0D E8 B0 5A 35 3F 0D D2 AF A4 .U...G...Z5?....
00008360 07 5A 08 54 E0 18 19 FB AF E4 BF 92 BF D6 E0 18 .Z.T............
00008370 61 EE 4F E4 6F D2 6F D6 E0 18 57 EE 04 31 93 5A a.O.o.o...W..1.Z
00008380 43 45 36 5B 96 2A 65 23 A3 59 23 39 35 46 52 5B CE6[.*e#.Y#95FR[
00008390 12 33 22 5F 22 4C E2 61 42 B0 52 B1 22 91 55 5D .3"_"L.aB.R.".U]
000083A0 53 5B 03 33 73 53 B0 18 96 04 BF 92 0B 52 0F 1D S[.3sS.......R..
000083B0 0A 39 AF FC 1F DF 30 00 2F A4 B1 5B E5 10 A2 55 .9....0./..[...U
000083C0 01 52 00 18 92 01 91 32 1A 54 2A 61 22 B0 22 5D .R.....2.T*a"."]
000083D0 22 5F 72 48 28 61 87 32 62 5B 82 23 3F BC 32 46 "_rH(a.2b[.#?.2F
000083E0 4F 9F 30 00 42 33 22 5F 22 4C E2 61 52 B0 42 B1 O.0.B3"_"L.aR.B.
000083F0 22 91 43 5D 34 5B 04 33 74 53 A2 1E 54 59 1F D2 ".C]4[.3tS..TY..
00008400 35 5B 01 58 01 39 18 47 07 3B 3D 9F 9E 1B 30 33 5[.X.9.G.;=...03
00008410 56 5B 53 5B 21 5B AF E4 E0 18 3D ED 2F A8 96 5A V[S[![....=./..Z
00008420 46 33 64 5F 14 60 E4 61 0E B0 02 F0 1E 60 12 60 F3d_.`.a.....`.`
00008430 4E 57 1B 1F E0 18 45 FC 07 5A E0 18 D1 F8 27 5B NW....E..Z....'[
00008440 3F D2 E0 18 13 F1 27 5B 3F D2 AF E4 3F D6 E0 18 ?.....'[?...?...
00008450 81 ED 47 5B 1F D2 1F D6 E0 18 77 ED 90 5A 0D DF ..G[......w..Z..
00008460 9E 1B B0 5A 3F 3F 0D D2 E0 18 43 F1 BB 5A 00 E0 ...Z??....C..Z..
00008470 8B 23 BF D6 0B 52 00 18 E8 02 00 05 AA E6 E0 18 .#...R..........
00008480 E3 F0 80 5B 8D DF 2E 00 B1 5A 42 3F 1D D2 7F 9C ...[.....ZB?....
00008490 67 52 00 18 D4 04 07 5A 08 54 E0 18 D5 F9 3F D2 gR.....Z.T....?.
000084A0 E0 18 D7 FA 27 5B 3F D2 E0 18 D7 F3 2D 94 42 22 ....'[?.....-.B"
000084B0 40 5B 02 52 0B 10 8F F0 88 4B 8F F1 2D A8 26 5A @[.R.....K..-.&Z
000084C0 F4 55 00 C0 36 46 0D E8 0D 96 B1 5A 00 04 01 23 .U..6F.....Z...#
000084D0 AF A4 07 5A 08 54 E0 18 91 F7 0D C3 0C 00 2D AC ...Z.T........-.
000084E0 02 56 04 10 91 5A 12 DF 24 00 10 22 00 52 0E 11 .V...Z..$..".R..
000084F0 82 5B 82 42 22 5F 80 55 80 4B 02 61 B4 54 1F 00 .[.B"_.U.K.a.T..
00008500 00 C0 EC 4F 0F E6 00 56 11 11 F0 5A 80 23 80 52 ...O...V...Z.#.R
00008510 00 18 4C 03 00 05 7A E6 0C EC B0 5A 51 3F 0D D2 ..L...z....ZQ?..
00008520 BB 5A FD FF BF D6 E0 18 A9 EC 00 05 62 E6 E0 18 .Z..........b...
00008530 33 F0 A0 55 E0 18 75 F4 0F D6 E0 18 95 EC AF E4 3..U..u.........
00008540 E0 18 23 F2 3F D2 AF E4 3F D6 E0 18 85 EC AF E4 ..#.?...?.......
00008550 E0 18 F3 EB AF E4 1F D2 1F D6 E0 18 75 EC A2 55 ............u..U
00008560 E0 18 0F EF 47 5B 1F D2 E0 18 FB F1 AF E4 E0 18 ....G[..........
00008570 E7 EF 6F D2 AF E4 6F D6 E0 18 57 EC 30 5A 10 33 ..o...o...W.0Z.3
00008580 70 53 B0 18 7E 03 06 52 17 10 E0 18 6C 03 A2 55 pS..~..R....l..U
00008590 06 52 00 18 37 FA 96 32 1A 54 2A 61 22 B0 22 5D .R..7..2.T*a"."]
000085A0 22 5F 72 48 28 61 87 32 70 53 A2 1F 00 58 10 39 "_rH(a.2pS...X.9
000085B0 08 47 72 5A 82 23 32 32 D8 4B B0 5A FD FF 10 3B .GrZ.#22.K.Z...;
000085C0 07 33 E3 5B E0 18 B5 FC 20 5A 10 33 70 53 B0 18 .3.[.... Z.3pS..
000085D0 92 03 06 52 17 10 E0 18 20 03 A2 55 06 52 00 18 ...R.... ..U.R..
000085E0 EB F9 96 32 1A 54 2A 61 22 B0 22 5D 22 5F 72 48 ...2.T*a"."]"_rH
000085F0 28 61 87 32 70 53 A2 1F 00 58 10 39 08 47 17 3B (a.2pS...X.9.G.;
00008600 0F 96 00 52 00 18 4A 03 90 32 00 5F B0 60 26 00 ...R..J..2._.`&.
00008610 00 61 D0 61 30 90 32 5A 82 23 32 32 E8 4B B7 32 .a.a0.2Z.#22.K.2
00008620 FE FF E0 18 57 FC 27 5B 3F D2 3F D6 E0 18 A3 EB ....W.'[?.?.....
00008630 BF 93 BF DB AF A4 17 5B 08 54 E0 18 19 FB AF A4 .......[.T......
00008640 E0 18 69 F1 47 5B 1F D2 E0 18 33 F0 0F D6 E0 18 ..i.G[....3.....
00008650 81 EB AF A4 07 5A 08 54 B0 5A 50 3F 0D D2 AF E4 .....Z.T.ZP?....
00008660 1F C3 0C 00 E0 18 6B EB 00 05 BA E7 E0 18 F5 EE ......k.........
00008670 AF E4 0F C3 0C 00 E0 18 59 EB 3F D2 24 5B 0A 55 ........Y.?.$[.U
00008680 E0 18 ED F6 AF E4 E0 18 77 F5 AF E4 E0 18 25 F6 ........w.....%.
00008690 AF E4 E0 18 33 F8 AF E4 E0 18 DF F8 24 31 90 5A ....3.......$1.Z
000086A0 40 45 06 5B 96 2A 60 5B 10 23 2A 39 A0 46 30 33 @E.[.*`[.#*9.F03
000086B0 00 5F 20 4C E0 61 40 B0 50 B1 B0 91 BF D6 50 5D ._ L.a@.P.....P]
000086C0 01 5B 21 33 71 53 B2 13 BF 92 0B 52 00 18 93 FA .[!3qS.....R....
000086D0 AF FF 30 00 35 5B 0F A4 B3 5B CF EF 34 00 2F D4 ..0.5[...[..4./.
000086E0 E5 10 A0 55 03 52 00 18 1E 01 93 32 1A 54 0A 61 ...U.R.....2.T.a
000086F0 00 B0 00 5D 00 5F 70 48 08 61 87 32 60 5B 80 23 ...]._pH.a.2`[.#
00008700 1F BF 30 00 10 46 50 33 00 5F 20 4C E0 61 40 B0 ..0..FP3._ L.a@.
00008710 20 B1 C0 91 CF D6 20 5D 1F 94 01 33 71 53 A2 1E  ..... ]...3qS..
00008720 3F D2 CF AF 34 00 2F 94 AF E4 03 58 35 59 25 39 ?...4./....X5Y%9
00008730 58 47 27 3B 03 39 38 47 07 3B 1D DF 9E 1B 0F 96 XG';.98G.;......
00008740 0D DF 2E 00 04 50 10 18 4F E9 E0 18 6F E8 27 5B .....P..O...o.'[
00008750 3F D2 E0 18 73 F7 27 5B 3F D2 E0 18 CB F1 2D AC ?...s.'[?.....-.
00008760 02 56 05 10 80 55 80 4B 10 22 02 D0 B4 22 00 02 .V...U.K."..."..
00008770 04 52 0E 10 0D 94 40 22 00 52 0A 10 8F F0 88 4B .R....@".R.....K
00008780 8F F1 2D A8 26 5A F4 55 00 C0 70 43 0D E8 B0 5A ..-.&Z.U..pC...Z
00008790 36 3F 0D D2 AF A4 7F 96 08 54 E0 18 E9 F4 0D DF 6?.......T......
000087A0 46 00 B1 5A 46 3F 1D D2 06 5B E0 18 41 EC AF E4 F..ZF?...[..A...
000087B0 BF 93 BF D6 E0 18 1B EA AF E4 E0 18 C1 EE AF E4 ................
000087C0 E0 18 DB F9 6F D2 0D 9F 4C 02 00 52 16 17 00 05 ....o...L..R....
000087D0 62 E7 E0 18 ED E9 AF E4 E0 18 1D FA 00 C0 12 39 b..............9
000087E0 E0 18 D9 EE AF A8 AC E6 BF 93 BC D8 AF A4 AC E0 ................
000087F0 BF 92 BC D2 8D EF 28 00 7D DF 2C 00 2F C3 0C 00 ......(.}.,./...
00008800 E0 18 E3 E6 AF E4 3F D2 CF AF 34 00 3F D6 E0 18 ......?...4.?...
00008810 C1 E9 AF E4 E0 18 25 F5 AF E4 E0 18 FB FA 47 5B ......%.......G[
00008820 1F D2 E0 18 F3 FA B1 5A 47 3F 1D D2 1F 9C 61 52 .......ZG?....aR
00008830 10 18 3B E8 0F D6 AF E4 E0 18 97 E9 AF A4 E0 18 ..;.............
00008840 C5 FB AF E4 AF 93 AF D6 E0 18 87 E9 2F E4 6F D2 ............/.o.
00008850 6F D6 E0 18 7D E9 2A 55 E0 18 05 FA C8 4B B7 32 o...}.*U.....K.2
00008860 FC FF F0 5A 80 23 80 32 1D 9F 1C 00 01 52 19 10 ...Z.#.2.....R..
00008870 0D DF 1C 00 F0 52 B9 10 00 05 96 E6 E0 18 E5 EC .....R..........
00008880 F0 52 AB 1F 01 53 49 1F 11 5A 01 45 1D D7 06 5A .R...SI..Z.E...Z
00008890 04 54 42 55 00 C0 5A 38 0D E8 0C EF 30 00 48 00 .TBU..Z8....0.H.
000088A0 00 00 00 02 08 56 0D 16 B0 5A 3D 3F 0D D2 AF A4 .....V...Z=?....
000088B0 8F A6 07 5A E0 18 2B F6 0F AF 1C 00 0D EF 48 00 ...Z..+.......H.
000088C0 0D EF 34 00 9D C3 3C 00 1F AF 20 00 11 01 2F AF ..4...<... .../.
000088D0 30 00 12 01 3F AF 2C 00 13 01 5F 9F 3E 00 3F AF 0...?.,..._.>.?.
000088E0 34 00 12 5A 00 C0 28 09 CF 60 00 52 0D 10 00 05 4..Z..(..`.R....
000088F0 88 E7 E0 18 CD E8 2F E4 6F D2 6F D6 E0 18 D3 E8 ....../.o.o.....
00008900 2A 55 E0 18 AB FC 0D AF 48 00 0D EF 38 00 6D C3 *U......H...8.m.
00008910 3E 00 5D 9F 44 00 0D 9F 42 00 00 5F 00 61 3F AF >.].D...B.._.a?.
00008920 28 00 03 61 0F AF 20 00 10 01 B0 54 3E 00 D0 61 (..a.. ....T>..a
00008930 10 01 1F AF 2C 00 11 01 22 5A 00 C0 D2 08 CF 60 ....,..."Z.....`
00008940 00 52 00 18 E5 FE 00 05 A4 E7 E0 18 75 E8 6F D2 .R..........u.o.
00008950 00 05 48 E7 0C EC B0 5A 51 3F 0D D2 E0 18 6B E8 ..H....ZQ?....k.
00008960 2A 55 E0 18 97 FC AF E4 07 5A 7F D6 08 54 E0 18 *U.......Z...T..
00008970 61 E8 0F D6 D8 4B B7 32 FD FF AF E4 E0 18 53 E8 a....K.2......S.
00008980 B0 5A 3F 3F 0D D2 07 5A E0 18 23 EC AF E4 E0 18 .Z??...Z..#.....
00008990 4D EF AF E4 1F C3 0C 00 E0 18 37 E8 B7 5A FC FF M.........7..Z..
000089A0 7F D6 E0 18 41 E5 2F A8 E0 18 1B E6 AF E4 E0 18 ....A./.........
000089B0 25 EE AF E4 E0 18 FF EB AF E4 E0 18 F1 EB AF E4 %...............
000089C0 E0 18 E7 F5                                     ....            

;; fn000089C4: 000089C4
;;   Called from:
;;     00001B92 (in fn00001B74)
fn000089C4 proc
	push	$2,ra
	push	$3,r7
	movd	(r9,r8),(r3,r2)
	cmpd	$0,(r3,r2)
	beq	00008A28

l000089CE:
	loadd	0x40(r3,r2),(r1,r0)
	cmpd	$0,(r1,r0)
	beq	00008A28

l000089D6:
	loadd	0x48(r3,r2),(r7,r6)
	cmpd	$0,(r7,r6)
	beq	00008A28

l000089DE:
	loadd	0x38(r3,r2),(r5,r4)
	cmpd	$0,(r5,r4)
	beq	00008A28

l000089E6:
	loadd	(r5,r4),(r3,r2)
	movw	$FFFE,r0
	cmpd	(r9,r8),(r3,r2)
	beq	000089F4

l000089F0:
	pop	$3,r7
	popret	$2,ra

l000089F4:
	loadw	4(r5,r4),r1
	addw	$C0CC,r1
	cmpw	$1F,r1
	blo	000089F0

l00008A00:
	loadd	0x48(r5,r4),(r1,r0)
	loadd	0x50(r9,r8),(r3,r2)
	cmpd	$0,(r1,r0)
	beq	00008A1C

l00008A0C:
	movd	(r5,r4),(r1,r0)
	jal	ra,(r7,r6)
	loadd	0x48(r9,r8),(r7,r6)
	loadd	0x38(r9,r8),(r5,r4)
	loadd	0x50(r9,r8),(r3,r2)

l00008A1C:
	jal	ra,(r7,r6)
	movd	$0,(r1,r0)
	stord	(r1,r0),0x38(r9,r8)
	pop	$3,r7
	popret	$2,ra

l00008A28:
	movw	$FFFE,r0
	pop	$3,r7
	popret	$2,ra
00008A30 1E 01 58 01 BC 54 10 00 FC 61 4A 55 CC A0 02 56 ..X..T...aJU...V
00008A40 09 14 02 AF 20 00 00 56 05 14 02 AF 24 00 00 56 .... ..V....$..V
00008A50 01 14 82 AF 1C 00 08 56 0D 13 48 A0 B0 5A FE FF .......V..H..Z..
00008A60 42 57 03 10 58 02 1E 03 18 92 B1 32 CC C0 B1 52 BW..X......2...R
00008A70 1F 00 A9 1F 08 9F 20 00 00 52 11 08 01 52 02 12 ...... ..R...R..
00008A80 A1 5B B1 27 01 52 11 08 01 52 0C 11 48 9F 22 00 .[.'.R...R..H.".
00008A90 40 3B 00 5F 44 5F 28 AF 24 00 24 61 10 01 A2 55 @;._D_(.$.$a...U
00008AA0 00 C0 84 50 08 9F 22 00 00 5F 28 9F 20 00 22 5F ...P..".._(. ."_
00008AB0 14 00 02 C0 A2 61 48 AF 24 00 10 01 00 C0 68 50 .....aH.$.....hP
00008AC0 8F 60 0C 56 0B 10 08 9F 20 00 0C D0 00 5A 58 02 .`.V.... ....ZX.
00008AD0 1E 03 B0 5A FE FF 58 02 1E 03 00 5A 58 02 1E 03 ...Z..X....ZX...
00008AE0 00 00 9D 01 67 01 BF 60 FC FF 2A 55 4C 55 67 5B ....g..`..*ULUg[
00008AF0 02 56 00 18 56 01 02 AF 20 00 00 56 00 18 4C 01 .V..V... ..V..L.
00008B00 02 AF 24 00 00 56 00 18 42 01 D2 AF 1C 00 0D 56 ..$..V..B......V
00008B10 00 18 38 01 2D A0 B0 5A FE FF 2A 57 04 10 4F 60 ..8.-..Z..*W..O`
00008B20 67 02 9D 03 2D 92 B1 5A CC C0 21 33 B1 52 1F 00 g...-..Z..!3.R..
00008B30 A7 1F 1D 94 01 52 04 15 B2 52 3E 3F 11 1F 06 5A .....R...R>?...Z
00008B40 04 54 42 55 00 C0 AA 35 76 5B C4 55 02 55 00 C0 .TBU...5v[.U.U..
00008B50 A0 35 2D A8 02 57 10 18 32 01 8A AF 1C 00 74 5F .5-..W..2.....t_
00008B60 C0 55 40 61 0F E0 28 AF 24 00 02 56 05 14 68 9F .U@a..(.$..V..h.
00008B70 1E 00 06 52 1B 10 08 9F 1C 00 16 5A 06 45 68 DF ...R.......Z.Eh.
00008B80 1E 00 08 C3 22 00 08 C3 20 00 67 53 5C 14 08 9F ...."... .gS\...
00008B90 22 00 06 3B 7A 5B 67 53 B2 10 6A 5B 00 5F 02 61 "..;z[gS..j[._.a
00008BA0 A0 5F 10 01 C4 55 00 C0 7E 4F A7 3B 4F 60 07 52 ._...U..~O.;O`.R
00008BB0 11 15 08 9F 22 00 A0 33 08 DF 22 00 18 9F 1E 00 ...."..3..".....
00008BC0 10 53 0C 15 08 9F 20 00 01 53 B4 10 0A 33 A8 DF .S.... ..S...3..
00008BD0 20 00 1D C3 0A 00 00 5A 4F 60 67 02 9D 03 D8 55  ......ZO`g....U
00008BE0 B2 52 3E 3F 0D 1A 74 5F C0 55 40 61 0F E0 28 AF .R>?..t_.U@a..(.
00008BF0 24 00 02 56 1D 1B 08 9F 1C 00 15 5A 54 5B 04 45 $..V.......ZT[.E
00008C00 2A AF 28 00 0A AF 20 00 D0 00 02 55 08 EF 24 00 *.(... ....U..$.
00008C10 00 56 1E 1A B0 5A 52 3F 0D D2 B0 5A FC FF 4F 60 .V...ZR?...Z..O`
00008C20 67 02 9D 03 66 5F 4F A0 14 00 64 C0 16 01 00 C0 g...f_O...d.....
00008C30 F6 4E 08 C3 22 00 08 9F 1E 00 08 DF 20 00 4F 60 .N.."....... .O`
00008C40 1D C3 0A 00 00 5A E9 1C B0 5A FE FF 4F 60 67 02 .....Z...Z..O`g.
00008C50 9D 03 70 5F 28 AF 24 00 4F A0 14 00 04 C0 10 01 ..p_(.$.O.......
00008C60 00 C0 C4 4E 78 DF 22 00 08 9F 1E 00 08 DF 20 00 ...Nx."....... .
00008C70 4F 60 1D C3 0A 00 00 5A E0 1B 78 DF 22 00 08 9F O`.....Z..x."...
00008C80 20 00 01 53 A4 1A E6 1A B0 5A FD FF E0 18 93 FE  ..S.....Z......
00008C90 1E 01 07 01 02 56 04 12 02 AF 20 00 00 56 00 12 .....V.... ..V..
00008CA0 02 AF 24 00 00 56 0C 11 E2 AF 1C 00 0E 56 08 11 ..$..V.......V..
00008CB0 6E A0 B0 5A FE FF 62 57 03 10 07 02 1E 03 1E 92 n..Z..bW........
00008CC0 B1 32 CC C0 B1 52 1F 00 A9 1F 1E 94 21 22 01 52 .2...R......!".R
00008CD0 05 1F 4E EC 04 C3 24 00 00 5A 07 02 1E 03 B0 5A ..N...$..Z.....Z
00008CE0 FE FF 07 02 1E 03 00 00 9D 01 67 01 BF 60 FC FF ..........g..`..
00008CF0 2C 55 02 56 00 18 B8 01 02 AF 20 00 00 56 00 18 ,U.V...... ..V..
00008D00 AE 01 02 AF 24 00 00 56 00 18 A4 01 D2 AF 1C 00 ....$..V........
00008D10 0D 56 00 18 9A 01 2D A0 B0 5A FE FF 2C 57 04 10 .V....-..Z..,W..
00008D20 4F 60 67 02 9D 03 1D 92 B2 5A CC C0 12 33 B2 52 O`g......Z...3.R
00008D30 1F 00 A7 1F 8C 92 08 52 16 10 0D 9F 2C 00 70 52 .......R....,.pR
00008D40 B0 18 7C 01 B1 52 53 3F 00 18 4A 01 B0 5A 53 3F ..|..RS?..J..ZS?
00008D50 0D D2 0D 9F 2C 00 71 5A 01 23 4D AF 28 00 14 48 ....,.qZ.#M.(..H
00008D60 4D EF 28 00 B0 22 F8 FF 0D DF 2C 00 70 52 B0 18 M.(.."....,.pR..
00008D70 48 01 4F F0 42 55 82 4B B7 5A F8 FF 07 33 77 52 H.O.BU.K.Z...3wR
00008D80 B2 11 2F F1 42 55 02 4B B1 5A F0 FF 01 33 71 52 ../.BU.K.Z...3qR
00008D90 BA 10 2F F2 42 55 82 4A B0 32 E8 FF 70 52 B3 10 ../.BU.J.2..pR..
00008DA0 2F F3 02 54 D7 49 17 32 2D EF 28 00 0D C3 2C 00 /..T.I.2-.(...,.
00008DB0 F2 55 00 5A 01 5B B8 5A FF 00 09 5B 1A 58 4B 5A .U.Z.[.Z...[.XKZ
00008DC0 42 B0 46 5D 85 5B 10 52 B1 15 56 53 02 15 04 50 B.F].[.R..VS...P
00008DD0 1E 15 B4 5B 04 3B 40 5B 34 52 B6 08 11 32 12 60 ...[.;@[4R...2.`
00008DE0 17 53 A4 08 04 52 03 10 06 50 1B 1E 0D DF 46 00 .S...R...P....F.
00008DF0 8C 92 4C A0 08 52 11 08 16 21 01 5A 06 50 05 15 ..L..R...!.Z.P..
00008E00 B9 5A FF 00 1A 5B 47 5A 12 5F 42 61 22 B0 2B 5D .Z...[GZ._Ba".+]
00008E10 93 5B 10 52 B2 13 B3 53 03 13 02 50 15 13 72 5B .[.R...S...P..r[
00008E20 02 3B 20 5B 32 52 B2 08 11 32 18 53 A3 08 03 52 .; [2R...2.S...R
00008E30 03 10 02 50 1A 1E 18 5F 84 61 0D DF 46 00 2C 92 ...P..._.a..F.,.
00008E40 12 3B 2C D2 4C E0 2C A4 28 61 8C E4 40 52 1B 13 .;,.L.,.(a..@R..
00008E50 AC AA C2 55 FF C0 ED DB 8C E4 AC EA B0 5A 3F 3F ...U.........Z??
00008E60 0D D2 00 5A 4F 60 67 02 9D 03 95 5B 56 53 10 1B ...ZO`g....[VS..
00008E70 10 32 30 52 B6 08 E3 1B A3 5B B3 53 1F 1C 10 32 .20R.....[.S...2
00008E80 30 52 B2 08 E2 1D 62 59 00 5A EF 1C A6 59 00 5A 0R....bY.Z...Y.Z
00008E90 E6 1A 0D 9F 46 00 30 52 B6 08 4C A0 08 52 11 08 ....F.0R..L..R..
00008EA0 16 21 01 5A 06 50 1D 1A 08 54 E8 1C B0 5A FE FF .!.Z.P...T...Z..
00008EB0 4F 60 67 02 9D 03 16 58 00 5A E9 19 B0 5A FB FF O`g....X.Z...Z..
00008EC0 E0 18 61 FE B0 5A FD FF E0 18 59 FE 1E 01 02 56 ..a..Z....Y....V
00008ED0 03 12 02 AF 20 00 00 56 0F 11 02 AF 24 00 00 56 .... ..V....$..V
00008EE0 0B 11 42 AF 1C 00 04 56 07 11 E4 A0 B0 5A FE FF ..B....V.....Z..
00008EF0 E2 57 02 10 1E 03 14 92 B2 5A CC C0 12 33 B2 52 .W.......Z...3.R
00008F00 1F 00 A9 1F 00 5A B1 52 41 3F 15 1F 04 9F 2C 00 .....Z.RA?....,.
00008F10 00 52 00 08 1E 03 B0 5A FE FF 1E 03 9D 01 67 01 .R.....Z......g.
00008F20 BF 60 FC FF 2A 55 48 55 04 56 00 18 66 01 64 AF .`..*UHU.V..f.d.
00008F30 20 00 06 56 00 18 5C 01 04 AF 24 00 00 56 00 18  ..V..\...$..V..
00008F40 52 01 C4 AF 1C 00 0C 56 00 18 48 01 2C A0 B0 5A R......V..H.,..Z
00008F50 FE FF 24 57 04 10 4F 60 67 02 9D 03 0C 92 B0 32 ..$W..O`g......2
00008F60 CC C0 B0 52 1F 00 A0 08 00 52 10 18 26 01 A0 5B ...R.....R..&..[
00008F70 B0 27 00 52 00 08 00 52 10 18 18 01 24 AF 28 00 .'.R...R....$.(.
00008F80 B5 5A A4 1B 14 5A D6 00 0D 55 00 56 00 18 0E 01 .Z...Z...U.V....
00008F90 0C AF 24 00 0F E0 00 56 0E 10 0C 9F 1C 00 15 5A ..$....V.......Z
00008FA0 54 5B 04 45 28 AF 28 00 08 AF 20 00 D0 00 0F E0 T[.E(.(... .....
00008FB0 00 56 08 17 08 A0 0A E0 08 A2 0A E2 08 A4 0A E4 .V..............
00008FC0 08 A6 0A E6 08 A8 0A E8 08 AA 0A EA 08 AC 0A EC ................
00008FD0 08 AF 1C 00 0A EF 1C 00 08 AF 20 00 0A EF 20 00 .......... ... .
00008FE0 08 AF 24 00 0A EF 24 00 08 AF 28 00 0A EF 28 00 ..$...$...(...(.
00008FF0 08 AF 2C 00 0A EF 2C 00 08 AF 30 00 0A EF 30 00 ..,...,...0...0.
00009000 08 AF 34 00 0A EF 34 00 B0 54 A4 1B 10 01 C4 55 ..4...4..T.....U
00009010 D2 55 00 C0 12 4B AD E0 0C AF 34 00 B2 54 0C 05 .U...K....4..T..
00009020 C2 61 B8 54 0C 05 D8 61 4F 60 20 57 50 12 0C AF .a.T...aO` WP...
00009030 48 00 14 00 20 C0 08 61 8D EF 48 00 0F A0 00 56 H... ..a..H....V
00009040 0E 10 1C 9F 1C 00 10 5A 10 45 00 5F 4C AF 24 00 .......Z.E._L.$.
00009050 10 01 2F A2 00 C0 D0 4A 4F 60 0F A0 0D EF 24 00 ../....JO`....$.
00009060 DA EF 1C 00 00 5A 4F 60 67 02 9D 03 B4 54 98 1B .....ZO`g....T..
00009070 C4 61 40 57 AD 1D 14 00 20 C0 80 61 0D EF 34 00 .a@W.... ..a..4.
00009080 0C AF 38 00 14 00 20 C0 80 61 0D EF 38 00 E0 1D ..8... ..a..8...
00009090 B0 5A FE FF 4F 60 67 02 9D 03 B0 5A FC FF E0 18 .Z..O`g....Z....
000090A0 B9 FE 28 AF 28 00 08 AF 24 00 D4 55 D0 00 B0 5A ..(.(...$..U...Z
000090B0 FC FF E0 18 A5 FE 1E 01 02 56 03 11 02 AF 20 00 .........V.... .
000090C0 00 56 0F 10 02 AF 24 00 00 56 0B 10 42 AF 1C 00 .V....$..V..B...
000090D0 04 56 07 10 E4 A0 B0 5A FE FF E2 57 05 10 1E 03 .V.....Z...W....
000090E0 B0 5A FE FF 1E 03 14 92 B1 32 CC C0 B1 52 1F 00 .Z.......2...R..
000090F0 A7 1F 14 C3 9C 1B B0 5A FD FF 1E 03 00 00 1E 01 .......Z........
00009100 07 01 02 56 08 12 02 AF 20 00 00 56 04 12 02 AF ...V.... ..V....
00009110 24 00 00 56 00 12 E2 AF 1C 00 0E 56 0C 11 6E A0 $..V.......V..n.
00009120 B0 5A FE FF 62 57 03 10 07 02 1E 03 1E 92 B1 32 .Z..bW.........2
00009130 CC C0 B1 52 1F 00 A9 1F 0E 94 04 52 17 10 B0 22 ...R.......R..."
00009140 FB FF 0E D4 40 5B 07 02 1E 03 40 26 0E D4 00 5A ....@[....@&...Z
00009150 07 02 1E 03 B0 5A FE FF 07 02 1E 03 00 00 02 56 .....Z.........V
00009160 00 11 02 AF 20 00 00 56 0C 10 02 AF 24 00 00 56 .... ..V....$..V
00009170 08 10 42 AF 1C 00 04 56 04 10 04 A0 02 57 05 10 ..B....V.....W..
00009180 70 00 FF FF 00 00 EE 0A 24 92 B0 5A CC C0 20 33 p.......$..Z.. 3
00009190 B0 52 1F 00 A6 1F 04 9F 9E 1B 00 5E 00 4D B2 52 .R.........^.M.R
000091A0 43 3F 0C 10 B2 52 4C 3F 1F 1E 24 9F A0 1B 34 9F C?...RL?..$...4.
000091B0 2E 00 32 3B 22 5F 20 61 EE 0A 24 9F 2E 00 22 5F ..2;"_ a..$..."_
000091C0 20 61 EE 0A 00 00 02 56 00 11 02 AF 20 00 00 56  a.....V.... ..V
000091D0 0C 10 02 AF 24 00 00 56 08 10 02 AF 1C 00 00 56 ....$..V.......V
000091E0 04 10 40 A0 42 57 03 10 90 54 EE 0A 20 92 B2 32 ..@.BW...T.. ..2
000091F0 CC C0 B2 52 1F 00 A9 1F B2 54 0C 05 02 61 00 AF ...R.....T...a..
00009200 48 00 14 00 20 C0 E0 4F EE 0A 00 00 9D 01 67 01 H... ..O......g.
00009210 BF 60 90 FF BC 54 86 00 FC 61 3F EF 4C 00 0C A0 .`...T...a?.L...
00009220 0F EF 54 00 3C A2 3F EF 58 00 EC A4 00 54 0F EF ..T.<.?.X....T..
00009230 20 00 0F EF 24 00 0F EF 28 00 0F EF 2C 00 0F EF  ...$...(...,...
00009240 30 00 0F EF 34 00 0F EF 38 00 0F EF 3C 00 05 52 0...4...8...<..R
00009250 05 11 6F AF 4C 00 98 5A 58 33 88 5F 18 60 88 61 ..o.L..ZX3._.`.a
00009260 68 61 06 90 00 5F 00 61 F0 61 30 9F 20 00 13 32 ha..._.a.a0. ..2
00009270 30 DF 20 00 26 60 86 57 15 1F AF 9F 3E 00 0A 52 0. .&`.W....>..R
00009280 10 18 A4 07 0F 9F 3C 00 00 52 17 15 0F 9F 3A 00 ......<..R....:.
00009290 00 52 10 18 D4 07 0F 9F 38 00 00 52 10 18 DA 07 .R......8..R....
000092A0 0F 9F 36 00 00 52 10 18 2A 08 0F 9F 34 00 00 52 ..6..R..*...4..R
000092B0 10 18 38 08 0F 9F 32 00 00 52 10 18 3E 08 0F 9F ..8...2..R..>...
000092C0 30 00 00 52 10 18 54 08 0F 9F 2E 00 00 52 10 18 0..R..T......R..
000092D0 88 07 0F 9F 2C 00 00 52 10 18 58 08 0F 9F 2A 00 ....,..R..X...*.
000092E0 00 52 10 18 82 08 0F 9F 28 00 00 52 10 18 90 08 .R......(..R....
000092F0 0F 9F 26 00 00 52 10 18 52 08 0F 9F 24 00 00 52 ..&..R..R...$..R
00009300 10 18 8E 08 0F 9F 22 00 00 52 10 18 1E 08 4F AF ......"..R....O.
00009310 54 00 24 A0 B1 5A 40 01 12 D0 02 D1 84 54 24 61 T.$..Z@......T$a
00009320 6F AF 54 00 46 E0 12 D2 02 D3 7F AF 58 00 17 C2 o.T.F.......X...
00009330 BF 60 70 00 67 02 9D 03 0F 9F 22 00 00 52 10 18 .`p.g....."..R..
00009340 86 08 1F 9F 24 00 01 52 10 18 C2 07 1F 9F 26 00 ....$..R......&.
00009350 ED 5A 01 52 10 18 FC 06 1F 9F 28 00 01 52 10 18 .Z.R......(..R..
00009360 18 08 5D 52 00 18 2A 07 1F 9F 2A 00 01 52 10 18 ..]R..*...*..R..
00009370 20 07 6D 52 00 18 6E 07 1F 9F 2C 00 01 52 10 18  .mR..n...,..R..
00009380 64 07 7D 52 00 18 8E 07 1F 9F 2E 00 01 52 10 18 d.}R.........R..
00009390 84 07 8D 52 00 18 AE 07 1F 9F 30 00 01 52 10 18 ...R......0..R..
000093A0 A4 07 BD 52 09 00 00 18 E2 06 1F 9F 32 00 01 52 ...R........2..R
000093B0 10 18 F8 07 AD 52 00 18 D2 06 1F 9F 34 00 01 52 .....R......4..R
000093C0 10 18 F0 07 BD 52 0B 00 00 18 C0 06 1F 9F 36 00 .....R........6.
000093D0 01 52 10 18 E4 07 CD 52 00 18 B0 06 1F 9F 38 00 .R.....R......8.
000093E0 01 52 10 18 DC 07 DD 52 00 18 BA 07 1F 9F 3A 00 .R.....R......:.
000093F0 01 52 10 18 B0 07 FD 52 10 18 8E 06 1F 9F 3C 00 .R.....R......<.
00009400 D9 5B 01 52 10 18 C8 07 21 5A 01 3B 01 52 60 18 .[.R....!Z.;.R`.
00009410 F4 01 3F 9F 24 00 11 33 31 3B 01 52 60 18 E6 01 ..?.$..31;.R`...
00009420 4F 9F 26 00 11 33 41 3B 01 52 60 18 D8 01 6F 9F O.&..3A;.R`...o.
00009430 28 00 11 33 61 3B 01 52 60 18 CA 01 7F 9F 2A 00 (..3a;.R`.....*.
00009440 11 33 71 3B 01 52 60 18 BC 01 8F 9F 2C 00 11 33 .3q;.R`.....,..3
00009450 81 3B 01 52 60 18 AE 01 BF 9F 2E 00 BF DF 60 00 .;.R`.........`.
00009460 11 33 B1 3B 01 52 60 18 9C 01 BF 9F 30 00 BF DF .3.;.R`.....0...
00009470 40 00 11 33 B1 3B 1F DF 48 00 01 52 60 18 86 01 @..3.;..H..R`...
00009480 1B 5B 1F 9F 32 00 1F DF 42 00 BB 33 1B 3B BF DF .[..2...B..3.;..
00009490 48 00 0B 52 60 18 6E 01 1F 9F 34 00 1F DF 44 00 H..R`.n...4...D.
000094A0 BB 33 1B 3B BF DF 4A 00 0B 52 60 18 58 01 B1 5B .3.;..J..R`.X..[
000094B0 BF 9F 36 00 BF DF 48 00 11 33 B1 3B 1F DF 50 00 ..6...H..3.;..P.
000094C0 01 52 60 18 40 01 BF 9F 38 00 BF DF 4A 00 11 33 .R`.@...8...J..3
000094D0 B1 3B 1F DF 52 00 01 52 60 18 2A 01 1B 5B 1F 9F .;..R..R`.*..[..
000094E0 3A 00 1F DF 50 00 BB 33 1B 3B BF DF 5C 00 0B 52 :...P..3.;..\..R
000094F0 60 18 12 01 1F 9F 3C 00 1F DF 52 00 BB 33 1B 3B `.....<...R..3.;
00009500 BF DF 5C 00 0B 52 60 18 FC 00 B1 5B B1 33 A1 3B ..\..R`....[.3.;
00009510 01 52 68 17 01 52 09 10 02 52 01 08 01 52 12 17 .Rh..R...R...R..
00009520 1D 52 11 08 01 52 1E 16 CF AF 58 00 AC 90 0F C3 .R...R....X.....
00009530 02 00 0F D2 30 33 0F D3 40 33 0F D4 60 33 0F D5 ....03..@3..`3..
00009540 70 33 0F D6 80 33 0F D7 1F 9F 60 00 10 33 0F D8 p3...3....`..3..
00009550 3F 9F 40 00 30 33 0F D9 4F 9F 42 00 40 33 0F DA ?.@.03..O.B.@3..
00009560 6F 9F 44 00 60 33 0F DB 7F 9F 48 00 70 33 0F DC o.D.`3....H.p3..
00009570 8F 9F 4A 00 80 33 0F DD BF 9F 50 00 B0 33 0F DF ..J..3....P..3..
00009580 1C 00 1F 9F 52 00 10 33 0F DF 1E 00 05 52 06 11 ....R..3.....R..
00009590 6F AF 4C 00 03 5A 06 90 00 52 0F 12 00 5F 00 61 o.L..Z...R..._.a
000095A0 F0 61 40 90 18 5A 48 33 80 D0 40 5F 00 61 E0 61 .a@..ZH3..@_.a.a
000095B0 30 D0 13 32 26 60 35 53 1F 1E DA 53 B2 10 DA 5B 0..2&`5S...S...[
000095C0 AF DF 4A 00 9A 53 53 10 9F DF 4A 00 3F AF 54 00 ..J..SS...J.?.T.
000095D0 43 A0 4F EF 60 00 10 5A 5F BF 4A 00 50 45 02 52 C.O.`..Z_.J.PE.R
000095E0 0E 12 12 52 14 11 B0 52 54 03 B0 18 F0 05 10 5A ...R...RT......Z
000095F0 BF 60 70 00 67 02 9D 03 13 32 26 60 35 53 1C 1C .`p.g....2&`5S..
00009600 ED 1D 90 5A BF 60 70 00 67 02 9D 03 22 52 01 08 ...Z.`p.g..."R..
00009610 1F FF 6C 00 B0 52 50 02 A1 08 01 52 05 10 7F BF ..l..RP....R....
00009620 6C 00 07 50 15 1E 0F C3 50 00 C0 05 5A F1 CF EF l..P....P...Z...
00009630 64 00 30 05 9A F1 3F EF 68 00 EB 10 EF EF 64 00 d.0...?.h.....d.
00009640 EF EF 68 00 B4 5A 14 00 4F DF 50 00 2F FF 6C 00 ..h..Z..O.P./.l.
00009650 12 52 02 08 2F FF 6D 00 CF AF 60 00 0F DF 52 00 .R../.m...`...R.
00009660 8F 9F 4A 00 8F DF 42 00 9B 5A BF DF 5C 00 04 5A ..J...B..Z..\..Z
00009670 4A 5B 96 5B 17 5A 90 32 0F DF 5E 00 4F DF 40 00 J[.[.Z.2..^.O.@.
00009680 9B 5B 49 5B B8 59 A8 39 8F FF 44 00 90 5F 00 61 .[I[.Y.9..D.._.a
00009690 E0 61 10 90 10 5A 10 33 08 58 2F 9F 50 00 20 53 .a...Z.3.X/.P. S
000096A0 4F 10 21 53 40 18 76 03 21 3B 10 5F 00 61 2F AF O.!S@.v.!;._.a/.
000096B0 64 00 02 61 82 B0 2F AF 68 00 20 61 10 90 73 5B d..a../.h. a..s[
000096C0 63 45 36 5B 79 5B 5F BF 42 00 59 45 00 58 A0 39 cE6[y[_.B.YE.X.9
000096D0 45 5B 05 46 90 5B 88 5D 2F BF 44 00 82 42 28 27 E[.F.[.]/.D..B('
000096E0 60 3B 52 5B 02 33 22 5F 22 4C C2 61 82 D0 12 D1 `;R[.3"_"L.a....
000096F0 00 52 17 1F 90 5A B0 33 76 5B 06 45 60 5B 41 5B .R...Z.3v[.E`[A[
00009700 61 23 01 52 06 10 F0 49 41 5B 01 23 01 52 1C 1F a#.R...IA[.#.R..
00009710 00 52 05 10 91 5A 01 33 14 23 40 33 8F 9F 40 00 .R...Z.3.#@3..@.
00009720 18 32 8F DF 40 00 B2 5F 22 61 F2 61 12 9F 20 00 .2..@.._"a.a.. .
00009730 91 32 12 DF 20 00 01 52 1E 10 DB 53 00 18 58 03 .2.. ..R...S..X.
00009740 82 5F 22 61 E2 61 22 90 22 5F 22 61 4F AF 4C 00 ._"a.a"."_"aO.L.
00009750 42 61 B2 90 5F 9F 4A 00 B5 53 50 18 B2 02 6F 9F Ba.._.J..SP...o.
00009760 5E 00 06 23 6F DF 48 00 8F 9F 5C 00 86 53 00 18 ^..#o.H...\..S..
00009770 9E 02 0A 52 12 10 5A 5B 92 5F 22 4C 2C 61 B6 5B ...R..Z[._"L,a.[
00009780 A6 3B 6F DF 42 00 71 5B 61 45 DB 53 50 18 08 02 .;o.B.q[aE.SP...
00009790 B2 5F 22 61 F2 61 22 9F 20 00 21 3B 01 52 D0 18 ._"a.a". .!;.R..
000097A0 F6 01 14 5A 64 33 11 33 A2 5B 42 33 D2 53 50 18 ...Zd3.3.[B3.SP.
000097B0 E2 01 22 5F 22 61 F2 61 22 9F 20 00 21 3B 01 52 .."_"a.a". .!;.R
000097C0 D0 18 D0 01 24 5A 64 33 11 33 A2 5B 42 33 D2 53 ....$Zd3.3.[B3.S
000097D0 50 18 C0 01 22 5F 22 61 F2 61 22 9F 20 00 21 3B P..."_"a.a". .!;
000097E0 01 52 D0 18 AE 01 34 5A 64 33 11 33 A2 5B 42 33 .R....4Zd3.3.[B3
000097F0 D2 53 50 18 9E 01 22 5F 22 61 F2 61 22 9F 20 00 .SP..."_"a.a". .
00009800 21 3B 01 52 D0 18 8C 01 44 5A 64 33 11 33 A2 5B !;.R....DZd3.3.[
00009810 42 33 D2 53 50 18 7C 01 22 5F 22 61 F2 61 22 9F B3.SP.|."_"a.a".
00009820 20 00 21 3B 01 52 D0 18 6A 01 54 5A 64 33 11 33  .!;.R..j.TZd3.3
00009830 A2 5B 42 33 D2 53 50 18 5A 01 22 5F 22 61 F2 61 .[B3.SP.Z."_"a.a
00009840 22 9F 20 00 21 3B 01 52 D0 18 48 01 64 5A 64 33 ". .!;.R..H.dZd3
00009850 11 33 A2 5B 42 33 D2 53 50 18 38 01 22 5F 22 61 .3.[B3.SP.8."_"a
00009860 F2 61 22 9F 20 00 21 3B 01 52 D0 18 26 01 74 5A .a". .!;.R..&.tZ
00009870 64 33 11 33 A2 5B 42 33 D2 53 50 18 16 01 22 5F d3.3.[B3.SP..."_
00009880 22 61 F2 61 22 9F 20 00 21 3B 01 52 D0 18 04 01 "a.a". .!;.R....
00009890 84 5A 64 33 11 33 A2 5B 42 33 D2 53 5A 17 22 5F .Zd3.3.[B3.SZ."_
000098A0 22 61 F2 61 22 9F 20 00 21 3B 01 52 D2 17 B4 5A "a.a". .!;.R...Z
000098B0 09 00 64 33 11 33 A2 5B 42 33 D2 53 5A 16 22 5F ..d3.3.[B3.SZ."_
000098C0 22 61 F2 61 22 9F 20 00 21 3B 01 52 D2 16 A4 5A "a.a". .!;.R...Z
000098D0 64 33 11 33 A2 5B 42 33 D2 53 5B 15 22 5F 22 61 d3.3.[B3.S[."_"a
000098E0 F2 61 22 9F 20 00 21 3B 01 52 D3 15 B4 5A 0B 00 .a". .!;.R...Z..
000098F0 64 33 11 33 A2 5B 42 33 D2 53 5B 14 22 5F 22 61 d3.3.[B3.S[."_"a
00009900 F2 61 22 9F 20 00 21 3B 01 52 D3 14 C4 5A 64 33 .a". .!;.R...Zd3
00009910 11 33 A2 5B 42 33 D2 53 5C 13 22 5F 22 61 F2 61 .3.[B3.S\."_"a.a
00009920 22 9F 20 00 21 3B 01 52 D4 13 D4 5A 64 33 11 33 ". .!;.R...Zd3.3
00009930 A2 5B 42 33 D2 53 5D 12 22 5F 22 61 F2 61 22 9F .[B3.S]."_"a.a".
00009940 20 00 21 3B 01 52 D5 12 E4 5A 64 33 11 33 A2 5B  .!;.R...Zd3.3.[
00009950 42 33 D2 53 5E 11 22 5F 22 61 F2 61 22 9F 20 00 B3.S^."_"a.a". .
00009960 21 3B 01 52 D6 11 F4 5A 64 33 11 33 A2 5B 42 33 !;.R...Zd3.3.[B3
00009970 D2 53 5F 10 22 5F 22 61 F2 61 22 9F 20 00 21 3B .S_."_"a.a". .!;
00009980 01 52 D7 10 B9 5A 10 00 69 33 9F DF 42 00 E3 10 .R...Z..i3..B...
00009990 4F DF 42 00 71 5B 2F BF 42 00 21 45 3F 9F 52 00 O.B.q[/.B.!E?.R.
000099A0 13 33 3F DF 52 00 B3 52 54 03 A1 08 01 52 06 10 .3?.R..RT....R..
000099B0 4F BF 6D 00 04 50 10 18 39 FC 5F 9F 52 00 B5 52 O.m..P..9._.R..R
000099C0 50 02 A1 08 01 52 06 10 8F BF 6C 00 08 50 10 18 P....R....l..P..
000099D0 21 FC 9F 9F 48 00 92 5F 22 4C 4F AF 60 00 42 61 !...H.._"LO.`.Ba
000099E0 5F BF 42 00 52 F0 8F BF 4A 00 82 F1 C4 55 8F AF _.B.R...J....U..
000099F0 60 00 14 00 84 C0 E4 4F 42 D1 9F 9F 48 00 9F DF `......OB...H...
00009A00 5C 00 04 5B 9F 9F 40 00 E0 18 7D FC B6 5B A6 3B \..[..@...}..[.;
00009A10 04 5B 9F 9F 40 00 E0 18 6F FC 01 5A B8 58 60 00 .[..@...o..Z.X`.
00009A20 E0 18 9F FC 0F 9F 22 00 FD 5A 00 52 1A 11 1F 9F ......"..Z.R....
00009A30 24 00 01 52 10 18 2A 01 1F 9F 26 00 39 5A 01 52 $..R..*...&.9Z.R
00009A40 10 18 C9 F9 49 5A 9D 53 00 18 C1 F9 E0 18 0D F9 ....IZ.S........
00009A50 39 5A E0 18 B7 F9 0F 9F 22 00 7D 5A 00 52 08 1E 9Z......".}Z.R..
00009A60 19 5A E0 18 A7 F9 0F 9F 22 00 DD 5A 00 52 00 1E .Z......"..Z.R..
00009A70 19 5A E0 18 97 F9 0F 9F 22 00 CD 5A 00 52 08 1D .Z......"..Z.R..
00009A80 19 5A E0 18 87 F9 ED 5A D9 5B E0 18 7F F9 59 5A .Z.....Z.[....YZ
00009A90 E0 18 79 F9 00 52 0B 10 02 5F 22 4C 2C 61 B0 58 ..y..R..._"L,a.X
00009AA0 40 00 0C F0 BF BF 44 00 BC F1 1C D1 CF 9F 52 00 @.....D.......R.
00009AB0 C0 5F 20 4C 2F AF 60 00 20 61 3F AF 54 00 03 E0 ._ L/.`. a?.T...
00009AC0 6F 9F 4A 00 4F AF 58 00 64 D0 00 5A E0 18 65 F8 o.J.O.X.d..Z..e.
00009AD0 0F 9F 22 00 BD 5A 0B 00 00 52 0A 1A 19 5A E0 18 .."..Z...R...Z..
00009AE0 2B F9 69 5A E0 18 25 F9 0F 9F 22 00 AD 5A 00 52 +.iZ..%..."..Z.R
00009AF0 0F 19 19 5A E0 18 15 F9 0F 9F 22 00 BD 5A 09 00 ...Z......"..Z..
00009B00 00 52 06 19 19 5A E0 18 03 F9 ED 5A 29 5A E0 18 .R...Z.....Z)Z..
00009B10 FB F8 79 5A E0 18 F5 F8 0F 9F 22 00 8D 5A 00 52 ..yZ......"..Z.R
00009B20 07 18 19 5A E0 18 E5 F8 1D 5A D9 5B E0 18 DD F8 ...Z.....Z.[....
00009B30 0F 9F 22 00 6D 5A 00 52 00 18 F7 FE 19 5A E0 18 ..".mZ.R.....Z..
00009B40 CB F8 89 5A E0 18 C5 F8 0F 9F 22 00 00 52 12 14 ...Z......"..R..
00009B50 1F 9F 24 00 3D 5A D9 5B 01 52 00 18 AF F8 29 5A ..$.=Z.[.R....)Z
00009B60 E0 18 A9 F8 0F 9F 22 00 5D 5A 00 52 00 18 C3 FE ......".]Z.R....
00009B70 19 5A E0 18 97 F8 49 5A E0 18 91 F8 0F 9F 22 00 .Z....IZ......".
00009B80 4D 5A 00 52 00 18 AB FE 19 5A E0 18 7F F8 0F 9F MZ.R.....Z......
00009B90 22 00 2D 5A D9 5B 00 52 00 18 71 F8 19 5A E0 18 ".-Z.[.R..q..Z..
00009BA0 6B F8 D9 5A E0 18 65 F8 B9 5A 09 00 E0 18 5D F8 k..Z..e..Z....].
00009BB0 A9 5A E0 18 57 F8 B9 5A 0B 00 E0 18 4F F8 C9 5A .Z..W..Z....O..Z
00009BC0 E0 18 49 F8 ED 5A 19 5A E0 18 41 F8 E9 5A E0 18 ..I..Z.Z..A..Z..
00009BD0 3B F8 3D 5A 19 5A E0 18 33 F8 B5 5A 01 01 5F DF ;.=Z.Z..3..Z.._.
00009BE0 50 00 60 05 DA F1 6F EF 64 00 70 05 18 F2 7F EF P.`...o.d.p.....
00009BF0 68 00 13 00 2F 50 6D 00 12 00 0F 10 6C 00 E0 18 h.../Pm.....l...
00009C00 5B FA 00 00                                     [...            

;; fn00009C04: 00009C04
;;   Called from:
;;     0000B682 (in fn0000B218)
;;     0000B68C (in fn0000B218)
fn00009C04 proc
	push	$2,r13,ra
	push	$7,r7
	addd	$-8,sp
	movd	r12,(r3,r2)
	loadw	2(r5,r4),r13
	cmpw	$0,r13
	beq	0000A01C

l00009C16:
	movw	$4,r2
	movw	$7,r0

l00009C1A:
	cmpw	$0,r6
	bgt	00009EE4

l00009C20:
	movd	$6,ra
	addd	(r5,r4),ra
	movxw	r6,(r7,r6)
	ashud	$2,(r7,r6)
	addd	$10,(r7,r6)
	movd	(r9,r8),(r5,r4)
	addd	(r7,r6),(r9,r8)
	stord	(r9,r8),4(sp)
	movw	$0,r11
	movw	$FFFF,r6
	movw	r13,r10
	br	00009D92

l00009C3A:
	cmpw	r9,r10
	beq	0000A008

l00009C40:
	loadw	0x2414(r12),r7
	loadw	0x2410(r12),r3
	cmpw	r1,r2
	ble	00009DA8

l00009C4E:
	movxw	r10,r13
	ashud	$2,r13
	addd	r12,r13
	loadw	0x14A8(r13),r1
	loadw	0x14A4(r13),r4
	movw	r4,r5
	ashuw	r7,r5
	orw	r3,r5
	movw	$10,r0
	subw	r1,r0
	storw	r5,0x2410(r12)
	cmpw	r0,r7
	ble	00009CAA

l00009C70:
	loadd	8(r12),(r3,r2)
	loadd	0x14(r12),(r7,r6)
	movd	$1,(r9,r8)
	addd	(r7,r6),(r9,r8)
	stord	(r9,r8),0x14(r12)
	addd	(r7,r6),(r3,r2)
	storb	r5,(r3,r2)
	loadw	0x2410(r12),r0
	lshw	$-8,r0
	loadd	8(r12),(r3,r2)
	loadd	0x14(r12),(r7,r6)
	movd	$1,(r9,r8)
	addd	(r7,r6),(r9,r8)
	stord	(r9,r8),0x14(r12)
	addd	(r7,r6),(r3,r2)
	storb	r0,(r3,r2)
	loadw	0x2414(r12),r7
	movb	r7,r0
	movb	$10,r2
	subb	r2,r0
	movw	r4,r5
	lshw	r0,r5
	storw	r5,0x2410(r12)
	addw	$FFF0,r1

l00009CAA:
	addw	r7,r1
	storw	r1,0x2414(r12)
	cmpw	$0,r11
	beq	00009D70

l00009CB4:
	loadw	0x14A8(r13),r2
	loadw	0x14A4(r13),r4
	movw	r4,r3
	ashuw	r1,r3
	orw	r5,r3
	movw	$10,r0
	subw	r2,r0
	storw	r3,0x2410(r12)
	cmpw	r0,r1
	ble	00009D0A

l00009CD0:
	loadd	8(r12),(r1,r0)
	loadd	0x14(r12),(r7,r6)
	movd	$1,(r9,r8)
	addd	(r7,r6),(r9,r8)
	stord	(r9,r8),0x14(r12)
	addd	(r7,r6),(r1,r0)
	storb	r3,(r1,r0)
	loadw	0x2410(r12),r3
	lshw	$-8,r3
	loadd	8(r12),(r1,r0)
	loadd	0x14(r12),(r7,r6)
	movd	$1,(r9,r8)
	addd	(r7,r6),(r9,r8)
	stord	(r9,r8),0x14(r12)
	addd	(r7,r6),(r1,r0)
	storb	r3,(r1,r0)
	loadw	0x2414(r12),r1
	movb	r1,r0
	movb	$10,r3
	subb	r3,r0
	movw	r4,r3
	lshw	r0,r3
	storw	r3,0x2410(r12)
	addw	$FFF0,r2

l00009D0A:
	addw	r2,r1
	storw	r1,0x2414(r12)
	cmpw	$1,r11
	beq	00009D70

l00009D14:
	loadw	0x14A8(r13),r6
	loadw	0x14A4(r13),r9
	movw	r9,r11
	ashuw	r1,r11
	orw	r3,r11
	movw	$10,r0
	subw	r6,r0
	storw	r11,0x2410(r12)
	cmpw	r0,r1
	ble	00009FFE

l00009D32:
	loadd	8(r12),(r1,r0)
	loadd	0x14(r12),(r3,r2)
	movd	$1,(r5,r4)
	addd	(r3,r2),(r5,r4)
	stord	(r5,r4),0x14(r12)
	addd	(r3,r2),(r1,r0)
	storb	r11,(r1,r0)
	loadw	0x2410(r12),r7
	lshw	$-8,r7
	loadd	8(r12),(r1,r0)
	loadd	0x14(r12),(r3,r2)
	movd	$1,(r5,r4)
	addd	(r3,r2),(r5,r4)
	stord	(r5,r4),0x14(r12)
	addd	(r3,r2),(r1,r0)
	storb	r7,(r1,r0)
	loadw	0x2414(r12),r2
	movb	r2,r0
	movb	$10,r4
	subb	r4,r0
	lshw	r0,r9
	storw	r9,0x2410(r12)
	addw	$FFF0,r6
	addw	r2,r6
	storw	r6,0x2414(r12)

l00009D70:
	loadw	(sp),r3
	cmpw	$0,r3
	beq	00009ECE

l00009D78:
	cmpw	r3,r10
	beq	00009F66

l00009D7E:
	movw	r10,r6
	movw	$4,r2
	movw	$7,r0
	movw	$0,r11
	movw	r3,r10

l00009D88:
	addd	$4,ra
	loadd	4(sp),(r9,r8)
	cmpd	(r9,r8),ra
	beq	00009EE4

l00009D92:
	loadw	(ra),r9
	storw	r9,(sp)
	movw	$1,r1
	addw	r11,r1
	cmpw	r1,r0
	bgt	00009C3A

l00009DA0:
	loadw	0x2414(r12),r7
	loadw	0x2410(r12),r3

l00009DA8:
	cmpw	$0,r10
	beq	00009EEA

l00009DAE:
	cmpw	r10,r6
	beq	00009E1A

l00009DB2:
	movxw	r10,(r1,r0)
	ashud	$2,(r1,r0)
	addd	r12,(r1,r0)
	loadw	0x14A8(r1,r0),r4
	loadw	0x14A4(r1,r0),r5
	movw	r5,r0
	ashuw	r7,r0
	orw	r0,r3
	movw	$10,r0
	subw	r4,r0
	storw	r3,0x2410(r12)
	cmpw	r0,r7
	ble	0000A010

l00009DD6:
	loadd	8(r12),(r1,r0)
	loadd	0x14(r12),(r7,r6)
	movd	$1,(r9,r8)
	addd	(r7,r6),(r9,r8)
	stord	(r9,r8),0x14(r12)
	addd	(r7,r6),(r1,r0)
	storb	r3,(r1,r0)
	loadw	0x2410(r12),r8
	lshw	$-8,r8
	loadd	8(r12),(r1,r0)
	loadd	0x14(r12),(r3,r2)
	movd	$1,(r7,r6)
	addd	(r3,r2),(r7,r6)
	stord	(r7,r6),0x14(r12)
	addd	(r3,r2),(r1,r0)
	storb	r8,(r1,r0)
	loadw	0x2414(r12),r2
	movb	r2,r0
	movb	$10,r8
	subb	r8,r0
	movw	r5,r3
	lshw	r0,r3
	storw	r3,0x2410(r12)
	addw	$FFF0,r4
	movw	r4,r7
	addw	r2,r7
	storw	r7,0x2414(r12)
	movw	r11,r1

l00009E1A:
	loadw	0x1528(r12),r0
	loadw	0x1524(r12),r8
	movw	r8,r9
	ashuw	r7,r9
	orw	r3,r9
	movw	$10,r2
	subw	r0,r2
	storw	r9,0x2410(r12)
	cmpw	r2,r7
	ble	00009F7E

l00009E38:
	loadd	8(r12),(r3,r2)
	loadd	0x14(r12),(r5,r4)
	movd	$1,(r7,r6)
	addd	(r5,r4),(r7,r6)
	stord	(r7,r6),0x14(r12)
	addd	(r5,r4),(r3,r2)
	storb	r9,(r3,r2)
	loadw	0x2410(r12),r9
	lshw	$-8,r9
	loadd	8(r12),(r3,r2)
	loadd	0x14(r12),(r5,r4)
	movd	$1,(r7,r6)
	addd	(r5,r4),(r7,r6)
	stord	(r7,r6),0x14(r12)
	addd	(r5,r4),(r3,r2)
	storb	r9,(r3,r2)
	loadw	0x2414(r12),r7
	movb	r7,r2
	movb	$10,r9
	subb	r9,r2
	movw	r8,r9
	lshw	r2,r9
	storw	r9,0x2410(r12)
	addw	$FFF0,r0
	addw	r7,r0
	storw	r0,0x2414(r12)

l00009E78:
	addw	$FFFD,r1
	movw	r1,r3
	ashuw	r0,r3
	orw	r3,r9
	storw	r9,0x2410(r12)
	cmpw	$E,r0
	bge	00009F74

l00009E8A:
	loadd	8(r12),(r3,r2)
	loadd	0x14(r12),(r5,r4)
	movd	$1,(r7,r6)
	addd	(r5,r4),(r7,r6)
	stord	(r7,r6),0x14(r12)
	addd	(r5,r4),(r3,r2)
	storb	r9,(r3,r2)
	loadw	0x2410(r12),r0
	lshw	$-8,r0
	loadd	8(r12),(r3,r2)
	loadd	0x14(r12),(r5,r4)
	movd	$1,(r7,r6)
	addd	(r5,r4),(r7,r6)
	stord	(r7,r6),0x14(r12)
	addd	(r5,r4),(r3,r2)
	storb	r0,(r3,r2)
	loadw	0x2414(r12),r0
	movb	r0,r2
	movb	$10,r3
	subb	r3,r2
	lshw	r2,r1
	storw	r1,0x2410(r12)
	addw	$FFF2,r0
	storw	r0,0x2414(r12)
	loadw	(sp),r3
	cmpw	$0,r3
	bne	00009D78

l00009ECE:
	movw	$0,r11
	movw	r10,r6
	movw	$3,r2
	movw	$8A,r0
	movw	r3,r10
	addd	$4,ra
	loadd	4(sp),(r9,r8)
	cmpd	(r9,r8),ra
	bne	00009D92

l00009EE4:
	addd	$8,sp
	pop	$7,r7
	popret	$2,r13,ra

l00009EEA:
	cmpw	$A,r1
	blt	00009F88

l00009EEE:
	loadw	0x1530(r12),r8
	loadw	0x152C(r12),r5
	movw	r5,r9
	ashuw	r7,r9
	orw	r3,r9
	movw	$10,r0
	subw	r8,r0
	storw	r9,0x2410(r12)
	cmpw	r0,r7
	bgt	0000A086

l00009F0C:
	addw	r7,r8
	storw	r8,0x2414(r12)
	addw	$FFFE,r11
	movw	r11,r3
	ashuw	r8,r3
	orw	r3,r9
	storw	r9,0x2410(r12)
	cmpw	$D,r8
	bge	0000A0DC

l00009F26:
	loadd	8(r12),(r1,r0)
	loadd	0x14(r12),(r3,r2)
	movd	$1,(r5,r4)
	addd	(r3,r2),(r5,r4)
	stord	(r5,r4),0x14(r12)
	addd	(r3,r2),(r1,r0)
	storb	r9,(r1,r0)
	loadw	0x2410(r12),r6
	lshw	$-8,r6
	loadd	8(r12),(r1,r0)
	loadd	0x14(r12),(r3,r2)
	movd	$1,(r5,r4)
	addd	(r3,r2),(r5,r4)
	stord	(r5,r4),0x14(r12)
	addd	(r3,r2),(r1,r0)
	storb	r6,(r1,r0)
	loadw	0x2414(r12),r0
	movb	r0,r1
	movb	$10,r8
	subb	r8,r1
	lshw	r1,r11
	storw	r11,0x2410(r12)
	addw	$FFF3,r0
	storw	r0,0x2414(r12)
	br	00009D70

l00009F66:
	movw	r3,r6
	movw	$3,r2
	movw	$6,r0
	movw	$0,r11
	movw	r3,r10
	br	00009D88

l00009F74:
	addw	$2,r0
	storw	r0,0x2414(r12)
	br	00009D70

l00009F7E:
	addw	r7,r0
	storw	r0,0x2414(r12)
	br	00009E78

l00009F88:
	loadw	0x1538(r12),r8
	loadw	0x1534(r12),r2
	movw	r2,r0
	ashuw	r7,r0
	orw	r0,r3
	movw	$10,r0
	subw	r8,r0
	storw	r3,0x2410(r12)
	cmpw	r0,r7
	bgt	0000A026

l00009FA4:
	addw	r7,r8
	storw	r8,0x2414(r12)
	addw	$FFF6,r11
	movw	r11,r6
	ashuw	r8,r6
	orw	r3,r6
	storw	r6,0x2410(r12)
	cmpw	$9,r8
	bge	0000A07C

l00009FBE:
	loadd	8(r12),(r1,r0)
	loadd	0x14(r12),(r3,r2)
	movd	$1,(r5,r4)
	addd	(r3,r2),(r5,r4)
	stord	(r5,r4),0x14(r12)
	addd	(r3,r2),(r1,r0)
	storb	r6,(r1,r0)
	loadw	0x2410(r12),r6
	lshw	$-8,r6
	loadd	8(r12),(r1,r0)
	loadd	0x14(r12),(r3,r2)
	movd	$1,(r5,r4)
	addd	(r3,r2),(r5,r4)
	stord	(r5,r4),0x14(r12)
	addd	(r3,r2),(r1,r0)
	storb	r6,(r1,r0)
	loadw	0x2414(r12),r0
	movb	r0,r1
	movb	$10,r2
	subb	r2,r1
	lshw	r1,r11
	storw	r11,0x2410(r12)
	addw	$FFF7,r0
	storw	r0,0x2414(r12)
	br	00009D70

l00009FFE:
	addw	r6,r1
	storw	r1,0x2414(r12)
	br	00009D70

l0000A008:
	movw	r1,r11
	movw	r9,r10
	br	00009D88

l0000A010:
	addw	r4,r7
	storw	r7,0x2414(r12)
	movw	r11,r1
	br	00009E1A

l0000A01C:
	movw	$3,r2
	movw	$8A,r0
	br	00009C1A

l0000A026:
	loadd	8(r12),(r1,r0)
	loadd	0x14(r12),(r5,r4)
	movd	$1,(r7,r6)
	addd	(r5,r4),(r7,r6)
	stord	(r7,r6),0x14(r12)
	addd	(r5,r4),(r1,r0)
	storb	r3,(r1,r0)
	loadw	0x2410(r12),r3
	lshw	$-8,r3
	loadd	8(r12),(r1,r0)
	loadd	0x14(r12),(r5,r4)
	movd	$1,(r7,r6)
	addd	(r5,r4),(r7,r6)
	stord	(r7,r6),0x14(r12)
	addd	(r5,r4),(r1,r0)
	storb	r3,(r1,r0)
	loadw	0x2414(r12),r7
	movw	$10,r0
	subw	r7,r0
	movb	r10,r9
	subb	r0,r9
	movw	r2,r3
	lshw	r9,r3
	storw	r3,0x2410(r12)
	addw	$FFF0,r8
	addw	r7,r8
	storw	r8,0x2414(r12)
	addw	$FFF6,r11
	movw	r11,r6
	ashuw	r8,r6
	orw	r3,r6
	storw	r6,0x2410(r12)
	cmpw	$9,r8
	blt	00009FBE

l0000A07C:
	addw	$7,r8
	storw	r8,0x2414(r12)
	br	00009D70

l0000A086:
	loadd	8(r12),(r1,r0)
	loadd	0x14(r12),(r3,r2)
	movd	$1,(r7,r6)
	addd	(r3,r2),(r7,r6)
	stord	(r7,r6),0x14(r12)
	addd	(r3,r2),(r1,r0)
	storb	r9,(r1,r0)
	loadw	0x2410(r12),r4
	lshw	$-8,r4
	loadd	8(r12),(r1,r0)
	loadd	0x14(r12),(r3,r2)
	movd	$1,(r7,r6)
	addd	(r3,r2),(r7,r6)
	stord	(r7,r6),0x14(r12)
	addd	(r3,r2),(r1,r0)
	storb	r4,(r1,r0)
	loadw	0x2414(r12),r7
	movw	$10,r0
	subw	r7,r0
	movb	r10,r4
	subb	r0,r4
	movw	r5,r9
	lshw	r4,r9
	storw	r9,0x2410(r12)
	addw	$FFF0,r8
	addw	r7,r8
	storw	r8,0x2414(r12)
	addw	$FFFE,r11
	movw	r11,r3
	ashuw	r8,r3
	orw	r3,r9
	storw	r9,0x2410(r12)
	cmpw	$D,r8
	blt	00009F26

l0000A0DC:
	addw	$3,r8
	storw	r8,0x2414(r12)
	br	00009D70
0000A0E6                   00 00                               ..        

;; fn0000A0E8: 0000A0E8
;;   Called from:
;;     0000B698 (in fn0000B218)
;;     0000B8D8 (in fn0000B218)
fn0000A0E8 proc
	push	$2,r13,ra
	push	$7,r7
	addd	$-4,sp
	movd	$1A,(r1,r0)
	addd	sp,(r1,r0)
	movd	r12,(r3,r2)
	movd	r13,(r5,r4)
	loadd	(r1,r0),(r3,r2)
	stord	(r3,r2),(sp)
	loadw	0x2414(r12),r6
	loadw	0x2410(r12),r10
	loadw	0x23EC(r12),r7
	cmpw	$0,r7
	beq	0000A19A

l0000A10E:
	movw	$0,r11

l0000A110:
	movzw	r11,(r1,r0)
	loadd	0x23F0(r12),(r3,r2)
	movd	(r5,r4),(r1,r0)
	addd	(r1,r0),(r5,r4)
	addd	(r5,r4),(r3,r2)
	loadw	(r3,r2),ra
	addw	$1,r11
	loadd	0x23E0(r12),(r3,r2)
	addd	(r3,r2),(r1,r0)
	loadb	(r1,r0),r9
	cmpw	$0,ra
	bne	0000A1C6

l0000A12C:
	movzb	r9,(r1,r0)
	movzw	r0,(r1,r0)
	ashud	$2,(r1,r0)
	addd	r13,(r1,r0)
	loadw	2(r1,r0),r2
	loadw	(r1,r0),r3
	movw	r3,r0
	ashuw	r6,r0
	orw	r0,r10
	movw	$10,r0
	subw	r2,r0
	storw	r10,0x2410(r12)
	cmpw	r0,r6
	ble	0000A3BC

l0000A14E:
	loadd	8(r12),(r1,r0)
	loadd	0x14(r12),(r5,r4)
	movd	$1,(r7,r6)
	addd	(r5,r4),(r7,r6)
	stord	(r7,r6),0x14(r12)
	addd	(r5,r4),(r1,r0)
	storb	r10,(r1,r0)
	loadw	0x2410(r12),r8
	lshw	$-8,r8
	loadd	8(r12),(r1,r0)
	loadd	0x14(r12),(r5,r4)
	movd	$1,(r7,r6)
	addd	(r5,r4),(r7,r6)
	stord	(r7,r6),0x14(r12)
	addd	(r5,r4),(r1,r0)
	storb	r8,(r1,r0)
	loadw	0x2414(r12),r1
	movw	$10,r0
	subw	r1,r0
	movb	ra,r9
	subb	r0,r9
	movw	r3,r10
	lshw	r9,r10

l0000A182:
	storw	r10,0x2410(r12)
	movw	$FFF0,r6
	addw	r2,r6
	addw	r1,r6
	storw	r6,0x2414(r12)
	loadw	0x23EC(r12),r7
	cmpw	r7,r11
	blo	0000A110

l0000A19A:
	loadw	0x804(r13),r1
	loadw	0x800(r13),r0
	movw	r0,r9
	ashuw	r6,r9
	orw	r9,r10
	movw	$10,r2
	movw	r2,r3
	subw	r1,r3
	storw	r10,0x2410(r12)
	cmpw	r3,r6
	bgt	0000A3D6

l0000A1BA:
	addw	r6,r1
	storw	r1,0x2414(r12)
	addd	$4,sp
	pop	$7,r7
	popret	$2,r13,ra

l0000A1C6:
	movzb	r9,(r10,r9)
	movxw	r9,(r1,r0)
	addd	$62254,(r1,r0)
	loadb	(r1,r0),r8
	movzb	r8,(r9,r8)
	movw	$101,r2
	addw	r8,r2
	movzw	r2,(r3,r2)
	ashud	$2,(r3,r2)
	addd	r13,(r3,r2)
	loadw	2(r3,r2),r0
	loadw	(r3,r2),r1
	movw	r1,r2
	ashuw	r6,r2
	orw	r2,r10
	movw	$10,r2
	subw	r0,r2
	storw	r10,0x2410(r12)
	cmpw	r2,r6
	ble	0000A3B2

l0000A1F8:
	loadd	8(r12),(r3,r2)
	loadd	0x14(r12),(r5,r4)
	movd	$1,(r7,r6)
	addd	(r5,r4),(r7,r6)
	stord	(r7,r6),0x14(r12)
	addd	(r5,r4),(r3,r2)
	storb	r10,(r3,r2)
	loadw	0x2410(r12),r10
	lshw	$-8,r10
	loadd	8(r12),(r3,r2)
	loadd	0x14(r12),(r5,r4)
	movd	$1,(r7,r6)
	addd	(r5,r4),(r7,r6)
	stord	(r7,r6),0x14(r12)
	addd	(r5,r4),(r3,r2)
	storb	r10,(r3,r2)
	loadw	0x2414(r12),r2
	movb	r2,r3
	movb	$10,r4
	subb	r4,r3
	movw	r1,r10
	lshw	r3,r10
	storw	r10,0x2410(r12)
	addw	$FFF0,r0
	movw	r0,r6
	addw	r2,r6
	storw	r6,0x2414(r12)

l0000A23A:
	movzw	r8,(r1,r0)
	addd	(r1,r0),(r1,r0)
	movd	$FB9C,(r3,r2)
	addd	(r1,r0),(r3,r2)
	loadw	(r3,r2),r2
	cmpw	$0,r2
	beq	0000A2AA

l0000A24A:
	addd	$62196,(r1,r0)
	loadw	(r1,r0),r0
	subw	r0,r9
	movw	r9,r0
	ashuw	r6,r0
	orw	r0,r10
	movw	$10,r0
	subw	r2,r0
	storw	r10,0x2410(r12)
	cmpw	r0,r6
	ble	0000A3CC

l0000A268:
	loadd	8(r12),(r1,r0)
	loadd	0x14(r12),(r5,r4)
	movd	$1,(r7,r6)
	addd	(r5,r4),(r7,r6)
	stord	(r7,r6),0x14(r12)
	addd	(r5,r4),(r1,r0)
	storb	r10,(r1,r0)
	loadw	0x2410(r12),r3
	lshw	$-8,r3
	loadd	8(r12),(r1,r0)
	loadd	0x14(r12),(r5,r4)
	movd	$1,(r7,r6)
	addd	(r5,r4),(r7,r6)
	stord	(r7,r6),0x14(r12)
	addd	(r5,r4),(r1,r0)
	storb	r3,(r1,r0)
	loadw	0x2414(r12),r3
	movb	r3,r0
	movb	$10,r1
	subb	r1,r0
	movw	r9,r10
	lshw	r0,r10
	storw	r10,0x2410(r12)
	movw	$FFF0,r6
	addw	r2,r6
	addw	r3,r6
	storw	r6,0x2414(r12)

l0000A2AA:
	movw	ra,r9
	addw	$FFFF,r9
	cmpw	$FF,r9
	blo	0000A39E

l0000A2B4:
	movzw	r9,(r1,r0)
	addd	$62510,(r1,r0)
	loadb	(r1,r0),ra
	movzb	ra,ra

l0000A2BE:
	movzw	ra,ra
	movd	(r3,r2),ra
	ashud	$2,(r3,r2)
	loadd	(sp),(r1,r0)
	addd	(r1,r0),(r3,r2)
	loadw	2(r3,r2),r1
	loadw	(r3,r2),r8
	movw	r8,r0
	ashuw	r6,r0
	orw	r0,r10
	movw	$10,r0
	subw	r1,r0
	storw	r10,0x2410(r12)
	cmpw	r0,r6
	ble	0000A396

l0000A2E0:
	loadd	8(r12),(r3,r2)
	loadd	0x14(r12),(r5,r4)
	movd	$1,(r7,r6)
	addd	(r5,r4),(r7,r6)
	stord	(r7,r6),0x14(r12)
	addd	(r5,r4),(r3,r2)
	storb	r10,(r3,r2)
	loadw	0x2410(r12),r0
	lshw	$-8,r0
	loadd	8(r12),(r3,r2)
	loadd	0x14(r12),(r5,r4)
	movd	$1,(r7,r6)
	addd	(r5,r4),(r7,r6)
	stord	(r7,r6),0x14(r12)
	addd	(r5,r4),(r3,r2)
	storb	r0,(r3,r2)
	loadw	0x2414(r12),r2
	movb	r2,r0
	movb	$10,r3
	subb	r3,r0
	movw	r8,r10
	lshw	r0,r10
	storw	r10,0x2410(r12)
	addw	$FFF0,r1
	movw	r1,r6
	addw	r2,r6
	storw	r6,0x2414(r12)

l0000A322:
	addd	ra,ra
	movd	$FB60,(r1,r0)
	addd	ra,(r1,r0)
	loadw	(r1,r0),r2
	cmpw	$0,r2
	beq	0000A388

l0000A330:
	addd	$62136,ra
	loadw	(ra),r0
	subw	r0,r9
	movw	r9,r0
	ashuw	r6,r0
	orw	r0,r10
	movw	$10,r0
	subw	r2,r0
	storw	r10,0x2410(r12)
	cmpw	r0,r6
	ble	0000A382

l0000A34C:
	loadd	8(r12),(r1,r0)
	loadd	0x14(r12),(r5,r4)
	movd	$1,(r7,r6)
	addd	(r5,r4),(r7,r6)
	stord	(r7,r6),0x14(r12)
	addd	(r5,r4),(r1,r0)
	storb	r10,(r1,r0)
	loadw	0x2410(r12),r3
	lshw	$-8,r3
	loadd	8(r12),(r1,r0)
	loadd	0x14(r12),(r5,r4)
	movd	$1,(r7,r6)
	addd	(r5,r4),(r7,r6)
	stord	(r7,r6),0x14(r12)
	addd	(r5,r4),(r1,r0)
	storb	r3,(r1,r0)
	loadw	0x2414(r12),r1
	movb	r1,r0
	movb	$10,r4
	subb	r4,r0
	movw	r9,r10
	lshw	r0,r10
	br	0000A182

l0000A382:
	addw	r2,r6
	storw	r6,0x2414(r12)

l0000A388:
	loadw	0x23EC(r12),r7
	cmpw	r7,r11
	blo	0000A110

l0000A392:
	br	0000A19A

l0000A396:
	addw	r1,r6
	storw	r6,0x2414(r12)
	br	0000A322

l0000A39E:
	movw	r9,r0
	lshw	$-9,r0
	addw	$100,r0
	movzw	r0,(r1,r0)
	addd	$62510,(r1,r0)
	loadb	(r1,r0),ra
	movzb	ra,ra
	br	0000A2BE

l0000A3B2:
	addw	r0,r6
	storw	r6,0x2414(r12)
	br	0000A23A

l0000A3BC:
	addw	r2,r6
	storw	r6,0x2414(r12)
	cmpw	r7,r11
	blo	0000A110

l0000A3C8:
	br	0000A19A

l0000A3CC:
	addw	r2,r6
	storw	r6,0x2414(r12)
	br	0000A2AA

l0000A3D6:
	loadd	8(r12),(r5,r4)
	loadd	0x14(r12),(r7,r6)
	movd	$1,(r9,r8)
	addd	(r7,r6),(r9,r8)
	stord	(r9,r8),0x14(r12)
	addd	(r7,r6),(r5,r4)
	storb	r10,(r5,r4)
	loadw	0x2410(r12),r3
	lshw	$-8,r3
	loadd	8(r12),(r5,r4)
	loadd	0x14(r12),(r7,r6)
	movd	$1,(r9,r8)
	addd	(r7,r6),(r9,r8)
	stord	(r9,r8),0x14(r12)
	addd	(r7,r6),(r5,r4)
	storb	r3,(r5,r4)
	loadw	0x2414(r12),r6
	movb	r6,r3
	subb	r2,r3
	lshw	r3,r0
	storw	r0,0x2410(r12)
	addw	$FFF0,r1
	addw	r6,r1
	storw	r1,0x2414(r12)
	addd	$4,sp
	pop	$7,r7
	popret	$2,r13,ra

;; fn0000A416: 0000A416
;;   Called from:
;;     0000B25E (in fn0000B218)
;;     0000B26A (in fn0000B218)
;;     0000B380 (in fn0000B218)
fn0000A416 proc
	push	$2,r13,ra
	push	$7,r7
	addd	$-84,sp
	movd	r12,(r3,r2)
	stord	(r5,r4),0xA0(sp)
	loadd	(r5,r4),r13
	loadd	8(r5,r4),(r1,r0)
	loadd	(r1,r0),ra
	loadw	0xA(r1,r0),r2
	storw	r2,0x58(sp)
	storw	$0,0xFAE(r12)
	movw	$23D,r0
	storw	r0,0x1F60(r12)
	cmpw	$0,r2
	bge	0000AEF8

l0000A442:
	movd	(r3,r2),r13
	movd	$FB2,(r5,r4)
	addd	r12,(r5,r4)
	movw	$0,r11
	movw	$FFFF,r7
	storw	r7,0x98(sp)
	movw	r11,r6
	movw	r7,r1
	loadw	0x58(sp),r7
	loadw	(r3,r2),r0
	cmpw	$0,r0
	beq	0000A48C

l0000A460:
	addw	$1,r11
	storw	r11,0x1F5C(r12)
	movxw	r11,(r1,r0)
	addd	$1434,(r1,r0)
	addd	(r1,r0),(r1,r0)
	addd	r12,(r1,r0)
	storw	r6,(r1,r0)
	storb	$0,(r5,r4)
	movw	$1,r0
	addw	r6,r0
	addd	$4,(r3,r2)
	addd	$1,(r5,r4)
	cmpw	r7,r0
	beq	0000ADD2

l0000A482:
	movw	r6,r1

l0000A484:
	movw	r0,r6
	loadw	(r3,r2),r0
	cmpw	$0,r0
	bne	0000A460

l0000A48C:
	storw	r0,2(r3,r2)
	movw	$1,r0
	addw	r6,r0
	addd	$4,(r3,r2)
	addd	$1,(r5,r4)
	cmpw	r7,r0
	bne	0000A484

l0000A49A:
	storw	r1,0x98(sp)

l0000A49E:
	cmpd	$0,ra
	beq	0000ADDC

l0000A4A4:
	movw	$1,r6
	addw	r11,r6
	movxw	r6,(r7,r6)
	addd	(r7,r6),(r7,r6)
	addd	r12,(r7,r6)
	movw	$0,r8
	movw	r8,r9
	movw	r8,r10
	cmpw	$1,r11
	blt	0000A500

l0000A4B8:
	loadw	0x98(sp),r0
	cmpw	$1,r0
	bge	0000A864

l0000A4C2:
	movd	(r5,r4),r13
	movw	r8,r2
	movw	r9,r3
	movw	r10,r0

l0000A4CA:
	addw	$1,r11
	storw	r11,0x1F5C(r12)
	storw	r0,0x1668(r7,r6)
	storw	$1,(r5,r4)
	movxw	r0,(r1,r0)
	addd	r12,(r1,r0)
	storb	$0,0xFB2(r1,r0)
	loadd	0x23F8(r12),(r1,r0)
	addd	$-1,(r1,r0)
	stord	(r1,r0),0x23F8(r12)
	addd	ra,(r3,r2)
	loadw	2(r3,r2),r2
	movzw	r2,(r3,r2)
	loadd	0x2400(r12),(r1,r0)
	subd	(r1,r0),(r3,r2)
	stord	(r1,r0),0x2400(r12)
	addd	$2,(r7,r6)
	cmpw	$1,r11
	bge	0000A4B8

l0000A500:
	loadw	0x98(sp),r7

l0000A504:
	loadd	0xA0(sp),(r2,r1)
	storw	r7,4(r2,r1)
	movw	r11,r10
	ashuw	$-15,r10
	storw	r10,0x70(sp)
	movxw	r10,(r1,r0)
	addd	(r1,r0),(r1,r0)
	movd	(r3,r2),r12
	addd	(r1,r0),(r3,r2)
	stord	(r3,r2),0x60(sp)
	addw	r10,r10
	storw	r10,0x50(sp)
	storw	r11,0x78(sp)

l0000A528:
	loadd	0x60(sp),(r4,r3)
	loadw	0x1668(r4,r3),r4
	storw	r4,0x68(sp)
	loadw	0x50(sp),r10
	loadw	0x78(sp),r5
	cmpw	r10,r5
	blt	0000AE38

l0000A542:
	movxw	r4,(r1,r0)
	movd	(r3,r2),(r1,r0)
	ashud	$2,(r3,r2)
	addd	r13,(r3,r2)
	loadw	(r3,r2),ra
	loadw	0x70(sp),r11
	addd	r12,(r1,r0)
	movd	$FB2,(r7,r6)
	addd	(r1,r0),(r7,r6)
	stord	(r7,r6),0x48(sp)
	movw	ra,r9
	movw	r5,ra

l0000A560:
	movxw	r10,(r5,r4)
	addd	(r5,r4),(r5,r4)
	addd	r12,(r5,r4)
	loadw	0x1668(r5,r4),r8
	movxw	r8,(r3,r2)
	movd	(r1,r0),(r3,r2)
	ashud	$2,(r1,r0)
	addd	r13,(r1,r0)
	loadw	(r1,r0),r1
	movw	r10,r0
	cmpw	r10,ra
	ble	0000A59C

l0000A57A:
	addw	$1,r0
	loadw	0x166C(r5,r4),r7
	storw	r7,0x40(sp)
	movxw	r7,(r7,r6)
	movd	(r5,r4),(r7,r6)
	ashud	$2,(r5,r4)
	addd	r13,(r5,r4)
	loadw	(r5,r4),r4
	cmpw	r4,r1
	bhi	0000A91C

l0000A594:
	cmpw	r4,r1
	beq	0000A876

l0000A59A:
	movw	r10,r0

l0000A59C:
	cmpw	r9,r1
	bhi	0000A5BC

l0000A5A0:
	cmpw	r9,r1
	beq	0000A8F0

l0000A5A6:
	movxw	r11,(r3,r2)
	addd	$1434,(r3,r2)
	addd	(r3,r2),(r3,r2)
	addd	r12,(r3,r2)
	storw	r8,(r3,r2)
	movw	r0,r10
	addw	r0,r10
	movw	r0,r11
	cmpw	r10,ra
	bge	0000A560

l0000A5BC:
	movxw	r11,(r1,r0)
	addd	$1434,(r1,r0)
	addd	(r1,r0),(r1,r0)
	addd	r12,(r1,r0)
	loadw	0x68(sp),r6
	storw	r6,(r1,r0)
	loadw	0x70(sp),r7
	addw	$FFFF,r7
	storw	r7,0x70(sp)
	loadd	0x60(sp),(r11,r10)
	addd	$-2,(r11,r10)
	stord	(r11,r10),0x60(sp)
	loadw	0x50(sp),r11
	addw	$FFFE,r11
	storw	r11,0x50(sp)
	cmpw	$0,r7
	bne	0000A528

l0000A5F2:
	loadw	0x78(sp),r11
	loadw	0x1F60(r12),r0
	storw	r0,0x74(sp)
	movxw	r11,(r1,r0)
	addd	(r1,r0),(r1,r0)
	movd	(r3,r2),r12
	addd	(r1,r0),(r3,r2)
	stord	(r3,r2),0x78(sp)
	loadw	0x58(sp),r3
	movxw	r3,(r1,r0)
	movd	(r3,r2),(r1,r0)
	ashud	$2,(r3,r2)
	movd	(r5,r4),r13
	addd	(r3,r2),(r5,r4)
	stord	(r5,r4),0x60(sp)
	movd	(r6,r5),r12
	addd	(r1,r0),(r6,r5)
	stord	(r6,r5),0x50(sp)
	loadw	0x74(sp),r0
	addw	$FFFF,r0
	movxw	r0,(r1,r0)
	addd	(r1,r0),(r1,r0)
	movd	(r7,r6),r12
	addd	(r1,r0),(r7,r6)
	stord	(r7,r6),0x88(sp)
	addd	$-2,(r1,r0)
	movd	(r3,r2),r12
	addd	(r1,r0),(r3,r2)
	stord	(r3,r2),0x90(sp)
	movw	r11,r9
	loadw	0x166C(r12),r3
	storw	r3,0x80(sp)
	addw	$FFFF,r9
	loadd	0x78(sp),(r5,r4)
	loadw	0x1668(r5,r4),r5
	storw	r5,0x48(sp)
	storw	r5,0x166C(r12)
	cmpw	$1,r9
	beq	0000A85C

l0000A664:
	movxw	r5,(r1,r0)
	movd	(r3,r2),(r1,r0)
	ashud	$2,(r3,r2)
	addd	r13,(r3,r2)
	loadw	(r3,r2),ra
	movw	$1,r11
	movw	$2,r10
	addd	r12,(r1,r0)
	movd	$FB2,(r7,r6)
	addd	(r1,r0),(r7,r6)
	stord	(r7,r6),0x68(sp)
	movw	r9,r0
	movw	ra,r9
	movw	r0,ra

l0000A684:
	movxw	r10,(r5,r4)
	addd	(r5,r4),(r5,r4)
	addd	r12,(r5,r4)
	loadw	0x1668(r5,r4),r8
	movxw	r8,(r3,r2)
	movd	(r1,r0),(r3,r2)
	ashud	$2,(r1,r0)
	addd	r13,(r1,r0)
	loadw	(r1,r0),r1
	movw	r10,r0
	cmpw	ra,r10
	bge	0000A6C0

l0000A69E:
	addw	$1,r0
	loadw	0x166C(r5,r4),r7
	storw	r7,0x40(sp)
	movxw	r7,(r7,r6)
	movd	(r5,r4),(r7,r6)
	ashud	$2,(r5,r4)
	addd	r13,(r5,r4)
	loadw	(r5,r4),r4
	cmpw	r4,r1
	bhi	0000A912

l0000A6B8:
	cmpw	r4,r1
	beq	0000A890

l0000A6BE:
	movw	r10,r0

l0000A6C0:
	cmpw	r9,r1
	bhi	0000A6E0

l0000A6C4:
	cmpw	r9,r1
	beq	0000A8D8

l0000A6CA:
	movxw	r11,(r3,r2)
	addd	$1434,(r3,r2)
	addd	(r3,r2),(r3,r2)
	addd	r12,(r3,r2)
	storw	r8,(r3,r2)
	movw	r0,r10
	addw	r0,r10
	movw	r0,r11
	cmpw	ra,r10
	ble	0000A684

l0000A6E0:
	movw	ra,r9
	loadw	0x48(sp),r6

l0000A6E6:
	movxw	r11,(r1,r0)
	addd	$1434,(r1,r0)
	addd	(r1,r0),(r1,r0)
	addd	r12,(r1,r0)
	storw	r6,(r1,r0)
	loadw	0x166C(r12),r2
	loadw	0x80(sp),r0
	loadd	0x88(sp),(r11,r10)
	storw	r0,0x1668(r11,r10)
	loadw	0x74(sp),r7
	addw	$FFFE,r7
	storw	r7,0x48(sp)
	storw	r7,0x1F60(r12)
	loadd	0x90(sp),(r11,r10)
	storw	r2,0x1668(r11,r10)
	movxw	r0,(r1,r0)
	movd	(r7,r6),(r1,r0)
	ashud	$2,(r7,r6)
	addd	r13,(r7,r6)
	movxw	r2,(r3,r2)
	movd	(r5,r4),(r3,r2)
	ashud	$2,(r5,r4)
	addd	r13,(r5,r4)
	stord	r13,0x80(sp)
	loadd	0x60(sp),ra
	subd	ra,r13
	loadw	(r7,r6),r8
	loadw	(r5,r4),r10
	addw	r10,r8
	loadd	0x60(sp),(r11,r10)
	storw	r8,(r11,r10)
	addd	r12,(r1,r0)
	loadb	0xFB2(r1,r0),r0
	addd	r12,(r3,r2)
	loadb	0xFB2(r3,r2),r1
	cmpb	r0,r1
	bhi	0000A926

l0000A754:
	addb	$1,r0
	loadd	0x50(sp),(r2,r1)
	storb	r0,0xFB2(r2,r1)
	loadw	0x58(sp),r2
	storw	r2,2(r5,r4)
	storw	r2,2(r7,r6)
	addw	$1,r2
	storw	r2,0x68(sp)
	loadw	0x58(sp),r3
	storw	r3,0x166C(r12)
	cmpw	$1,r9
	beq	0000A94E

l0000A77A:
	loadd	0x60(sp),(r5,r4)
	loadw	(r5,r4),ra
	movw	$1,r11
	movw	$2,r10
	movw	r9,r0
	movw	ra,r9
	movw	r0,ra

l0000A78A:
	movxw	r10,(r5,r4)
	addd	(r5,r4),(r5,r4)
	addd	r12,(r5,r4)
	loadw	0x1668(r5,r4),r8
	movxw	r8,(r3,r2)
	movd	(r1,r0),(r3,r2)
	ashud	$2,(r1,r0)
	addd	r13,(r1,r0)
	loadw	(r1,r0),r1
	movw	r10,r0
	cmpw	ra,r10
	bge	0000A7C4

l0000A7A4:
	addw	$1,r0
	loadw	0x166C(r5,r4),r6
	storw	r6,0x40(sp)
	movxw	r6,(r7,r6)
	movd	(r5,r4),(r7,r6)
	ashud	$2,(r5,r4)
	addd	r13,(r5,r4)
	loadw	(r5,r4),r4
	cmpw	r4,r1
	bhi	0000A908

l0000A7BE:
	cmpw	r4,r1
	beq	0000A8AA

l0000A7C2:
	movw	r10,r0

l0000A7C4:
	cmpw	r9,r1
	bhi	0000A7E2

l0000A7C8:
	cmpw	r9,r1
	beq	0000A8C0

l0000A7CC:
	movxw	r11,(r3,r2)
	addd	$1434,(r3,r2)
	addd	(r3,r2),(r3,r2)
	addd	r12,(r3,r2)
	storw	r8,(r3,r2)
	movw	r0,r10
	addw	r0,r10
	movw	r0,r11
	cmpw	ra,r10
	ble	0000A78A

l0000A7E2:
	movw	ra,r9
	movxw	r11,(r1,r0)
	addd	$1434,(r1,r0)
	addd	(r1,r0),(r1,r0)
	addd	r12,(r1,r0)
	loadw	0x58(sp),r11
	storw	r11,(r1,r0)
	loadd	0x78(sp),(r1,r0)
	addd	$-2,(r1,r0)
	stord	(r1,r0),0x78(sp)
	loadd	0x60(sp),(r2,r1)
	addd	$4,(r2,r1)
	stord	(r2,r1),0x60(sp)
	loadd	0x50(sp),(r3,r2)
	addd	$1,(r3,r2)
	stord	(r3,r2),0x50(sp)
	loadd	0x88(sp),(r4,r3)
	addd	$-4,(r4,r3)
	stord	(r4,r3),0x88(sp)
	loadd	0x90(sp),(r5,r4)
	addd	$-4,(r5,r4)
	stord	(r5,r4),0x90(sp)
	loadw	0x48(sp),r7
	storw	r7,0x74(sp)
	loadw	0x68(sp),r10
	storw	r10,0x58(sp)
	loadw	0x166C(r12),r3
	storw	r3,0x80(sp)
	addw	$FFFF,r9
	loadd	0x78(sp),(r5,r4)
	loadw	0x1668(r5,r4),r5
	storw	r5,0x48(sp)
	storw	r5,0x166C(r12)
	cmpw	$1,r9
	bne	0000A664

l0000A85C:
	movw	$1,r11
	movw	r5,r6
	br	0000A6E6

l0000A864:
	addw	$1,r0
	storw	r0,0x98(sp)
	movxw	r0,(r3,r2)
	ashud	$2,(r3,r2)
	movd	(r5,r4),r13
	addd	(r3,r2),(r5,r4)
	br	0000A4CA

l0000A876:
	addd	r12,(r7,r6)
	addd	r12,(r3,r2)
	loadb	0xFB2(r7,r6),r4
	loadb	0xFB2(r3,r2),r2
	cmpb	r4,r2
	blo	0000A59A

l0000A888:
	loadw	0x40(sp),r8
	br	0000A59C

l0000A890:
	addd	r12,(r7,r6)
	addd	r12,(r3,r2)
	loadb	0xFB2(r7,r6),r4
	loadb	0xFB2(r3,r2),r2
	cmpb	r4,r2
	blo	0000A6BE

l0000A8A2:
	loadw	0x40(sp),r8
	br	0000A6C0

l0000A8AA:
	addd	r12,(r7,r6)
	addd	r12,(r3,r2)
	loadb	0xFB2(r7,r6),r4
	loadb	0xFB2(r3,r2),r2
	cmpb	r4,r2
	blo	0000A7C2

l0000A8BA:
	loadw	0x40(sp),r8
	br	0000A7C4

l0000A8C0:
	movxw	r8,(r3,r2)
	addd	r12,(r3,r2)
	loadd	0x50(sp),(r6,r5)
	loadb	0xFB2(r6,r5),r4
	loadb	0xFB2(r3,r2),r1
	cmpb	r4,r1
	blo	0000A7CC

l0000A8D6:
	br	0000A7E2

l0000A8D8:
	movxw	r8,(r3,r2)
	addd	r12,(r3,r2)
	loadd	0x68(sp),(r6,r5)
	loadb	(r6,r5),r4
	loadb	0xFB2(r3,r2),r1
	cmpb	r4,r1
	blo	0000A6CA

l0000A8EC:
	br	0000A6E0

l0000A8F0:
	movxw	r8,(r3,r2)
	addd	r12,(r3,r2)
	loadd	0x48(sp),(r6,r5)
	loadb	(r6,r5),r4
	loadb	0xFB2(r3,r2),r1
	cmpb	r4,r1
	blo	0000A5A6

l0000A904:
	br	0000A5BC

l0000A908:
	movw	r4,r1
	loadw	0x40(sp),r8
	br	0000A7C4

l0000A912:
	movw	r4,r1
	loadw	0x40(sp),r8
	br	0000A6C0

l0000A91C:
	movw	r4,r1
	loadw	0x40(sp),r8
	br	0000A59C

l0000A926:
	movb	$1,r0
	addb	r1,r0
	loadd	0x50(sp),(r2,r1)
	storb	r0,0xFB2(r2,r1)
	loadw	0x58(sp),r2
	storw	r2,2(r5,r4)
	storw	r2,2(r7,r6)
	addw	$1,r2
	storw	r2,0x68(sp)
	loadw	0x58(sp),r3
	storw	r3,0x166C(r12)
	cmpw	$1,r9
	bne	0000A77A

l0000A94E:
	storw	r9,0x1F5C(r12)
	loadw	0x74(sp),r0
	addw	$FFFD,r0
	storw	r0,0x1F60(r12)
	movxw	r0,(r1,r0)
	addd	$1434,(r1,r0)
	addd	(r1,r0),(r1,r0)
	addd	r12,(r1,r0)
	storw	r3,(r1,r0)
	loadd	0xA0(sp),(r1,r0)
	loadd	(r1,r0),(r2,r1)
	stord	(r2,r1),0x60(sp)
	loadd	0xA0(sp),(r3,r2)
	loadw	4(r3,r2),r3
	storw	r3,0x50(sp)
	loadd	0xA0(sp),(r5,r4)
	loadd	8(r5,r4),(r1,r0)
	loadd	(r1,r0),(r11,r10)
	stord	(r11,r10),0x88(sp)
	loadd	4(r1,r0),(r11,r10)
	stord	(r11,r10),0x90(sp)
	loadw	8(r1,r0),r11
	storw	r11,0x78(sp)
	loadw	0xC(r1,r0),r7
	movd	$0,(r3,r2)
	stord	(r3,r2),0x1628(r12)
	movd	$B14,(r1,r0)
	addd	r12,(r1,r0)
	stord	(r3,r2),4(r1,r0)
	stord	(r3,r2),8(r1,r0)
	stord	(r3,r2),0xC(r1,r0)
	stord	(r3,r2),0x10(r1,r0)
	stord	(r3,r2),0x14(r1,r0)
	stord	(r3,r2),0x18(r1,r0)
	stord	(r3,r2),0x38(r1,r0)
	loadd	0x60(sp),(r11,r10)
	addd	ra,(r11,r10)
	storw	$0,2(r11,r10)
	loadw	0x48(sp),r10
	cmpw	$23C,r10
	blt	0000ACD6

l0000A9CA:
	loadd	0x88(sp),(r11,r10)
	cmpd	$0,(r11,r10)
	beq	0000AE48

l0000A9D4:
	loadw	0x48(sp),r10
	movxw	r10,(r1,r0)
	addd	(r1,r0),(r1,r0)
	movd	(r11,r10),r12
	addd	(r1,r0),(r11,r10)
	loadw	0x70(sp),r0
	storw	r0,0x58(sp)
	storw	r7,0x68(sp)

l0000A9EC:
	loadw	0x1668(r11,r10),r0
	movxw	r0,(r3,r2)
	movd	(r5,r4),(r3,r2)
	ashud	$2,(r5,r4)
	stord	(r5,r4),0x40(sp)
	loadd	0x60(sp),(r5,r4)
	loadd	0x40(sp),(r7,r6)
	addd	(r7,r6),(r5,r4)
	loadw	2(r5,r4),r2
	movzw	r2,(r3,r2)
	ashud	$2,(r3,r2)
	loadd	0x60(sp),(r7,r6)
	addd	(r7,r6),(r3,r2)
	loadw	2(r3,r2),r2
	addw	$1,r2
	loadw	0x68(sp),r7
	cmpw	r7,r2
	ble	0000AA28

l0000AA1C:
	movw	r7,r2
	loadw	0x58(sp),r7
	addw	$1,r7
	storw	r7,0x58(sp)

l0000AA28:
	storw	r2,2(r5,r4)
	loadw	0x50(sp),r7
	cmpw	r7,r0
	bgt	0000AA94

l0000AA32:
	movxw	r2,(r7,r6)
	addd	(r7,r6),(r7,r6)
	addd	r12,(r7,r6)
	loadw	0x1628(r7,r6),r1
	addw	$1,r1
	storw	r1,0x1628(r7,r6)
	loadw	0x70(sp),r7
	loadw	0x78(sp),r1
	cmpw	r1,r0
	blt	0000AA5E

l0000AA4E:
	subw	r1,r0
	movxw	r0,(r1,r0)
	addd	(r1,r0),(r1,r0)
	loadd	0x90(sp),(r7,r6)
	addd	(r7,r6),(r1,r0)
	loadw	(r1,r0),r7
	addw	r7,r2

l0000AA5E:
	loadw	(r5,r4),r8
	movzw	r8,(r9,r8)
	movzw	r2,(r3,r2)
	movd	(r5,r4),(r9,r8)
	bal	ra,fn0000D358
	loadd	0x23F8(r12),(r3,r2)
	addd	(r3,r2),(r1,r0)
	stord	(r1,r0),0x23F8(r12)
	loadd	0x88(sp),(r1,r0)
	loadd	0x40(sp),(r3,r2)
	addd	(r3,r2),(r1,r0)
	loadw	2(r1,r0),r2
	addw	r7,r2
	movzw	r2,(r3,r2)
	movd	(r5,r4),(r9,r8)
	bal	ra,fn0000D358
	loadd	0x2400(r12),(r3,r2)
	addd	(r3,r2),(r1,r0)
	stord	(r1,r0),0x2400(r12)

l0000AA94:
	loadw	0x48(sp),r7
	addw	$1,r7
	storw	r7,0x48(sp)
	addd	$2,(r11,r10)
	cmpw	$23D,r7
	bne	0000A9EC

l0000AAA6:
	loadw	0x68(sp),r7

l0000AAAA:
	loadw	0x58(sp),r10
	cmpw	$0,r10
	beq	0000ACD6

l0000AAB4:
	movw	r10,r3
	movw	$FFFF,r11
	addw	r7,r11
	storw	r11,0x70(sp)
	movxw	r7,(r9,r8)
	movd	(r5,r4),(r9,r8)
	addd	(r9,r8),(r5,r4)
	addd	r12,(r5,r4)
	movw	$FFFE,r6
	addw	r7,r6
	movw	$FFFD,r10
	addw	r7,r10
	movw	$FFFC,r11
	addw	r7,r11
	movw	$FFFB,r0
	addw	r7,r0
	movw	$FFFA,r1
	addw	r7,r1
	storw	r1,0x48(sp)
	storw	r11,0x40(sp)
	movw	r10,r11
	movw	r6,r10
	storw	r0,0x58(sp)
	br	0000AC0E

l0000AAF8:
	movw	r10,r0
	loadw	0x1620(r5,r4),r2
	cmpw	$0,r2
	bne	0000ADCA

l0000AB04:
	movw	r11,r0
	loadw	0x161C(r5,r4),r2
	movw	r10,r6
	cmpw	$0,r2
	bne	0000ABDE

l0000AB10:
	loadw	0x40(sp),r0
	loadw	0x1618(r5,r4),r2
	movw	r11,r6
	cmpw	$0,r2
	bne	0000ABDE

l0000AB1E:
	loadw	0x58(sp),r0
	loadw	0x1614(r5,r4),r2
	cmpw	$0,r2
	bne	0000AE40

l0000AB2C:
	loadw	0x48(sp),r0
	loadw	0x1610(r5,r4),r2
	cmpw	$0,r2
	bne	0000AEE8

l0000AB3A:
	movw	$FFF9,r0
	addw	r7,r0
	movw	r0,r6
	loadw	0x160C(r5,r4),r2
	cmpw	$0,r2
	bne	0000AEF0

l0000AB4C:
	movw	$FFF8,r0
	addw	r7,r0
	movw	r0,r1
	loadw	0x1608(r5,r4),r2
	cmpw	$0,r2
	bne	0000ABDE

l0000AB5C:
	movw	$FFF7,r0
	addw	r7,r0
	movw	r0,r6
	loadw	0x1604(r5,r4),r2
	cmpw	$0,r2
	bne	0000AE26

l0000AB6E:
	movw	$FFF6,r1
	addw	r7,r1
	movw	r1,r0
	loadw	0x1600(r5,r4),r2
	cmpw	$0,r2
	bne	0000ABDE

l0000AB7E:
	movw	$FFF5,r0
	addw	r7,r0
	movw	r0,r6
	loadw	0x15FC(r5,r4),r2
	cmpw	$0,r2
	bne	0000AE26

l0000AB90:
	movw	$FFF4,r0
	addw	r7,r0
	movw	r0,r1
	loadw	0x15F8(r5,r4),r2
	cmpw	$0,r2
	bne	0000ABDE

l0000ABA0:
	movw	$FFF3,r0
	addw	r7,r0
	movw	r0,r6
	loadw	0x15F4(r5,r4),r2
	cmpw	$0,r2
	bne	0000AE26

l0000ABB2:
	movw	$FFF2,r0
	addw	r7,r0
	movw	r0,r1
	loadw	0x15F0(r5,r4),r2
	cmpw	$0,r2
	bne	0000ABDE

l0000ABC2:
	movw	$FFF1,r0
	addw	r7,r0
	movw	r0,r6
	loadw	0x15EC(r5,r4),r2
	cmpw	$0,r2
	bne	0000AE26

l0000ABD4:
	movw	$FFF0,r0
	addw	r7,r0
	loadw	0x15E8(r5,r4),r2

l0000ABDE:
	movxw	r0,(r1,r0)
	addd	$1418,(r1,r0)
	addd	(r1,r0),(r1,r0)
	addd	r12,(r1,r0)
	addw	$FFFF,r2
	storw	r2,(r1,r0)
	movxw	r6,(r1,r0)
	addd	(r1,r0),(r1,r0)
	addd	r12,(r1,r0)
	loadw	0x1628(r1,r0),r2
	addw	$2,r2
	storw	r2,0x1628(r1,r0)
	loadw	0x1628(r5,r4),r0
	addw	$FFFF,r0
	storw	r0,0x1628(r5,r4)
	addw	$FFFE,r3
	cmpw	$0,r3
	bge	0000AC22

l0000AC0E:
	movd	ra,(r9,r8)
	loadw	0x1624(r5,r4),r2
	cmpw	$0,r2
	beq	0000AAF8

l0000AC1A:
	movw	r7,r6
	loadw	0x70(sp),r0
	br	0000ABDE

l0000AC22:
	stord	ra,0x58(sp)
	cmpw	$0,r7
	beq	0000ACD6

l0000AC2A:
	stord	(r5,r4),0x68(sp)
	movw	$23D,r7
	storw	r7,0x48(sp)

l0000AC36:
	loadd	0x68(sp),(r11,r10)
	loadw	0x1628(r11,r10),r11
	storw	r11,0x40(sp)
	cmpw	$0,r11
	beq	0000ACB8

l0000AC46:
	loadw	0x48(sp),r7
	addw	$FFFF,r7
	movxw	r7,(r1,r0)
	addd	(r1,r0),(r1,r0)
	movd	(r11,r10),r12
	addd	(r1,r0),(r11,r10)
	loadw	0x58(sp),r0
	storw	r0,0x70(sp)

l0000AC5C:
	storw	r7,0x48(sp)
	loadw	0x1668(r11,r10),r0
	loadw	0x50(sp),r1
	cmpw	r1,r0
	bgt	0000ADC0

l0000AC6E:
	movxw	r0,(r1,r0)
	ashud	$2,(r1,r0)
	loadd	0x60(sp),(r9,r8)
	addd	(r1,r0),(r9,r8)
	loadw	2(r9,r8),r0
	loadw	0x70(sp),r2
	cmpw	r0,r2
	beq	0000ACA4

l0000AC82:
	movzw	r0,(r1,r0)
	loadd	0x58(sp),(r3,r2)
	subd	(r3,r2),(r1,r0)
	loadw	(r9,r8),r4
	movzw	r4,(r5,r4)
	bal	ra,fn0000D358
	loadd	0x23F8(r12),(r3,r2)
	addd	(r3,r2),(r1,r0)
	stord	(r1,r0),0x23F8(r12)
	loadw	0x58(sp),r3
	storw	r3,2(r9,r8)

l0000ACA4:
	loadw	0x40(sp),r4
	addw	$FFFF,r4
	storw	r4,0x40(sp)
	addd	$-2,(r11,r10)
	cmpw	$0,r4
	bne	0000ADC4

l0000ACB8:
	loadd	0x58(sp),(r11,r10)
	addd	$-1,(r11,r10)
	stord	(r11,r10),0x58(sp)
	loadd	0x68(sp),(r11,r10)
	addd	$-2,(r11,r10)
	stord	(r11,r10),0x68(sp)
	loadw	0x58(sp),r11
	cmpw	$0,r11
	bne	0000AC36

l0000ACD6:
	loadw	0x1628(r12),r0
	addw	r0,r0
	storw	r0,2(sp)
	loadw	0x162C(r12),r1
	addw	r1,r0
	addw	r0,r0
	storw	r0,4(sp)
	loadw	0x1630(r12),r1
	addw	r1,r0
	addw	r0,r0
	storw	r0,6(sp)
	loadw	0x1634(r12),r1
	addw	r1,r0
	addw	r0,r0
	storw	r0,8(sp)
	loadw	0x1638(r12),r1
	addw	r1,r0
	addw	r0,r0
	storw	r0,0xA(sp)
	loadw	0x163C(r12),r1
	addw	r1,r0
	addw	r0,r0
	storw	r0,0xC(sp)
	loadw	0x1640(r12),r1
	addw	r1,r0
	addw	r0,r0
	storw	r0,0xE(sp)
	loadw	0x1644(r12),r1
	addw	r1,r0
	addw	r0,r0
	storw	r0,0x10(sp)
	loadw	0x1648(r12),r1
	addw	r1,r0
	addw	r0,r0
	storw	r0,0x12(sp)
	loadw	0x164C(r12),r1
	addw	r1,r0
	addw	r0,r0
	storw	r0,0x14(sp)
	loadw	0x1650(r12),r1
	addw	r1,r0
	addw	r0,r0
	storw	r0,0x16(sp)
	loadw	0x1654(r12),r1
	addw	r1,r0
	addw	r0,r0
	storw	r0,0x18(sp)
	loadw	0x1658(r12),r1
	addw	r1,r0
	addw	r0,r0
	storw	r0,0x1A(sp)
	loadw	0x165C(r12),r1
	addw	r1,r0
	addw	r0,r0
	storw	r0,0x38(sp)
	loadw	0x1660(r12),r1
	addw	r1,r0
	addw	r0,r0
	storw	r0,0x3C(sp)
	loadw	0x98(sp),r7
	cmpw	$FFFF,r7
	beq	0000ADB8

l0000AD76:
	movxw	r7,(r5,r4)
	addd	$1,(r5,r4)
	ashud	$2,(r5,r4)
	addd	r13,(r5,r4)
	movw	$0,r8
	loadd	0x80(sp),(r7,r6)

l0000AD84:
	loadw	2(r7,r6),r1
	cmpw	$0,r1
	beq	0000ADB2

l0000AD8A:
	movxw	r1,(r11,r10)
	addd	(r11,r10),(r11,r10)
	addd	sp,(r11,r10)
	loadw	(r11,r10),r2
	movw	$1,r0
	addw	r2,r0
	storw	r0,(r11,r10)
	movw	r8,r3

l0000AD9A:
	movw	$1,r0
	andw	r2,r0
	orw	r3,r0
	lshw	$-15,r2
	movw	r0,r3
	addw	r0,r3
	addw	$FFFF,r1
	cmpw	$0,r1
	blt	0000AD9A

l0000ADAC:
	andw	$7FFF,r0
	storw	r0,(r7,r6)

l0000ADB2:
	addd	$4,(r7,r6)
	cmpd	(r5,r4),(r7,r6)
	bne	0000AD84

l0000ADB8:
	addd	$84,sp
	pop	$7,r7
	popret	$2,r13,ra

l0000ADC0:
	addd	$-2,(r11,r10)

l0000ADC4:
	addw	$FFFF,r7
	br	0000AC5C

l0000ADCA:
	loadw	0x70(sp),r6
	br	0000ABDE

l0000ADD2:
	storw	r6,0x98(sp)
	cmpd	$0,ra
	bne	0000A4A4

l0000ADDC:
	movw	$1,r2
	addw	r11,r2
	movxw	r2,(r3,r2)
	addd	(r3,r2),(r3,r2)
	addd	r12,(r3,r2)
	movw	$0,r4
	loadw	0x98(sp),r5
	cmpw	$1,r11
	blt	0000AE1C

l0000ADF0:
	cmpw	$1,r5
	bge	0000AE2C

l0000ADF4:
	movd	(r7,r6),r13
	movw	r4,r0

l0000ADF8:
	addw	$1,r11
	storw	r11,0x1F5C(r12)
	storw	r0,0x1668(r3,r2)
	storw	$1,(r7,r6)
	movxw	r0,(r1,r0)
	addd	r12,(r1,r0)
	storb	$0,0xFB2(r1,r0)
	loadd	0x23F8(r12),(r1,r0)
	addd	$-1,(r1,r0)
	stord	(r1,r0),0x23F8(r12)
	addd	$2,(r3,r2)
	cmpw	$1,r11
	bge	0000ADF0

l0000AE1C:
	storw	r5,0x98(sp)
	movw	r5,r7
	br	0000A504

l0000AE26:
	movw	r1,r6
	br	0000ABDE

l0000AE2C:
	addw	$1,r5
	movxw	r5,(r7,r6)
	ashud	$2,(r7,r6)
	addd	r13,(r7,r6)
	movw	r5,r0
	br	0000ADF8

l0000AE38:
	loadw	0x70(sp),r11
	br	0000A5BC

l0000AE40:
	loadw	0x40(sp),r6
	br	0000ABDE

l0000AE48:
	loadw	0x48(sp),r11
	movxw	r11,(r9,r8)
	addd	(r9,r8),(r9,r8)
	addd	r12,(r9,r8)
	loadw	0x70(sp),r10
	storw	r10,0x58(sp)
	loadd	0x60(sp),(r11,r10)
	storw	r7,0x40(sp)
	loadw	0x48(sp),r7

l0000AE66:
	loadw	0x1668(r9,r8),r5
	movxw	r5,(r1,r0)
	ashud	$2,(r1,r0)
	addd	(r11,r10),(r1,r0)
	loadw	2(r1,r0),r2
	movzw	r2,(r3,r2)
	ashud	$2,(r3,r2)
	addd	(r11,r10),(r3,r2)
	loadw	2(r3,r2),r4
	addw	$1,r4
	loadw	0x40(sp),r2
	cmpw	r2,r4
	ble	0000AE90

l0000AE84:
	loadw	0x58(sp),r3
	addw	$1,r3
	storw	r3,0x58(sp)
	movw	r2,r4

l0000AE90:
	storw	r4,2(r1,r0)
	loadw	0x50(sp),r6
	cmpw	r6,r5
	bgt	0000AED6

l0000AE9A:
	movxw	r4,(r3,r2)
	addd	(r3,r2),(r3,r2)
	addd	r12,(r3,r2)
	loadw	0x1628(r3,r2),r6
	addw	$1,r6
	storw	r6,0x1628(r3,r2)
	loadw	0x78(sp),r2
	cmpw	r2,r5
	blt	0000AEC2

l0000AEB2:
	subw	r2,r5
	movxw	r5,(r3,r2)
	addd	(r3,r2),(r3,r2)
	loadd	0x90(sp),(r6,r5)
	addd	(r6,r5),(r3,r2)
	loadw	(r3,r2),r2
	addw	r2,r4

l0000AEC2:
	loadw	(r1,r0),r2
	movzw	r2,(r3,r2)
	movzw	r4,(r5,r4)
	bal	ra,fn0000D358
	loadd	0x23F8(r12),(r3,r2)
	addd	(r3,r2),(r1,r0)
	stord	(r1,r0),0x23F8(r12)

l0000AED6:
	addw	$1,r7
	addd	$2,(r9,r8)
	cmpw	$23D,r7
	bne	0000AE66

l0000AEE0:
	loadw	0x40(sp),r7
	br	0000AAAA

l0000AEE8:
	loadw	0x58(sp),r6
	br	0000ABDE

l0000AEF0:
	loadw	0x48(sp),r6
	br	0000ABDE

l0000AEF8:
	movw	$0,r11
	movw	$FFFF,r10
	storw	r10,0x98(sp)
	br	0000A49E
0000AF04             00 00                                   ..          

;; fn0000AF06: 0000AF06
;;   Called from:
;;     0000475A (in fn000046AC)
;;     0000484A (in fn00004794)
fn0000AF06 proc
	push	$2,ra
	movd	$6A,(r1,r0)
	addd	(r3,r2),(r1,r0)
	stord	(r1,r0),0x15E0(r3,r2)
	movd	$F2A8,(r1,r0)
	stord	(r1,r0),0x15F0(r3,r2)
	movd	$95E,(r1,r0)
	addd	(r3,r2),(r1,r0)
	stord	(r1,r0),0x15F8(r3,r2)
	movd	$F298,(r1,r0)
	stord	(r1,r0),0x1608(r3,r2)
	movd	$A52,(r1,r0)
	addd	(r3,r2),(r1,r0)
	stord	(r1,r0),0x1610(r3,r2)
	movd	$F288,(r1,r0)
	stord	(r1,r0),0x1620(r3,r2)
	storw	$0,0x1208(r3,r2)
	storw	$0,0x120A(r3,r2)
	movd	ra,(r3,r2)
	movd	$478,(r5,r4)
	addd	(r3,r2),(r5,r4)
	movd	(r1,r0),(r3,r2)

l0000AF50:
	storw	$0,0x6A(r1,r0)
	addd	$4,(r1,r0)
	cmpd	(r1,r0),(r5,r4)
	bne	0000AF50

l0000AF5A:
	movd	$78,(r5,r4)
	addd	(r3,r2),(r5,r4)
	movd	(r1,r0),(r3,r2)

l0000AF62:
	storw	$0,0x95E(r1,r0)
	addd	$4,(r1,r0)
	cmpd	(r1,r0),(r5,r4)
	bne	0000AF62

l0000AF6C:
	movd	$4C,(r1,r0)
	addd	(r3,r2),(r1,r0)

l0000AF72:
	storw	$0,0xA52(ra)
	addd	$4,ra
	cmpd	(r1,r0),ra
	bne	0000AF72

l0000AF7C:
	storw	$1,0x46A(r3,r2)
	movd	$0,(r1,r0)
	stord	(r1,r0),0x2400(r3,r2)
	stord	(r1,r0),0x23F8(r3,r2)
	storw	$0,0x1204(r3,r2)
	storw	$0,0x11F6(r3,r2)
	popret	$2,ra

;; fn0000AF94: 0000AF94
;;   Called from:
;;     0000349A (in fn000033F8)
;;     000037BA (in fn000033F8)
;;     00004E54 (in fn00004CD4)
;;     0000B7BE (in fn0000B218)
fn0000AF94 proc
	push	$2,ra
	push	$7,r7
	movd	$12,r12
	addd	sp,r12
	movd	(r9,r8),(r3,r2)
	loadd	(r12),(r11,r10)
	loadw	0x2414(r3,r2),r12
	loadd	0x14(r3,r2),(r3,r2)
	movd	$1,ra
	addd	(r3,r2),ra
	loadd	8(r9,r8),(r1,r0)
	addd	(r3,r2),(r1,r0)
	movw	r6,r7
	movb	r12,r2
	ashuw	r2,r7
	loadw	0x2410(r9,r8),r2
	orw	r2,r7
	storw	r7,0x2410(r9,r8)
	cmpw	$D,r12
	blt	0000B058

l0000AFC4:
	movw	r12,r6
	addw	$3,r6
	storw	r6,0x2414(r9,r8)

l0000AFCC:
	cmpw	$8,r6
	blt	0000B03E

l0000AFD0:
	cmpw	$0,r6
	bge	0000AFE2

l0000AFD4:
	stord	ra,0x14(r9,r8)
	storb	r7,(r1,r0)

l0000AFD8:
	loadd	0x14(r9,r8),(r3,r2)
	movd	$1,ra
	addd	(r3,r2),ra
	loadd	8(r9,r8),(r1,r0)
	addd	(r3,r2),(r1,r0)

l0000AFE2:
	storw	$0,0x1208(r9,r8)
	storw	$0,0x120A(r9,r8)
	stord	ra,0x14(r9,r8)
	storb	r10,(r1,r0)
	loadd	8(r9,r8),(r1,r0)
	loadd	0x14(r9,r8),(r3,r2)
	movd	$1,ra
	addd	(r3,r2),ra
	stord	ra,0x14(r9,r8)
	addd	(r3,r2),(r1,r0)
	movw	r10,r2
	lshw	$-8,r2
	storb	r2,(r1,r0)
	loadd	8(r9,r8),(r1,r0)
	loadd	0x14(r9,r8),(r3,r2)
	movd	$1,ra
	addd	(r3,r2),ra
	stord	ra,0x14(r9,r8)
	addd	(r3,r2),(r1,r0)
	movb	r10,r2
	xorb	$FFFF,r2
	storb	r2,(r1,r0)
	loadd	8(r9,r8),(r1,r0)
	loadd	0x14(r9,r8),(r3,r2)
	movd	$1,ra
	addd	(r3,r2),ra
	stord	ra,0x14(r9,r8)
	addd	(r3,r2),(r1,r0)
	movw	r10,r2
	xorw	$FFFF,r2
	lshw	$-8,r2
	storb	r2,(r1,r0)
	loadd	8(r9,r8),(r3,r2)
	loadd	0x14(r9,r8),(r1,r0)
	addd	(r1,r0),(r3,r2)
	push	$2,r10
	bal	ra,fn0000DB24
	loadd	0x14(r9,r8),(r1,r0)
	addd	(r1,r0),(r11,r10)
	stord	(r11,r10),0x14(r9,r8)
	addd	$4,sp
	pop	$7,r7
	popret	$2,ra

l0000B03E:
	stord	ra,0x14(r9,r8)
	storb	r7,(r1,r0)
	loadw	0x2410(r9,r8),r6
	lshw	$-8,r6
	loadd	8(r9,r8),(r1,r0)
	loadd	0x14(r9,r8),(r3,r2)
	movd	$1,ra
	addd	(r3,r2),ra
	stord	ra,0x14(r9,r8)
	addd	(r3,r2),(r1,r0)
	storb	r6,(r1,r0)
	br	0000AFD8

l0000B058:
	stord	ra,0x14(r9,r8)
	storb	r7,(r1,r0)
	loadw	0x2410(r9,r8),r7
	lshw	$-8,r7
	loadd	8(r9,r8),(r1,r0)
	loadd	0x14(r9,r8),(r3,r2)
	movd	$1,ra
	addd	(r3,r2),ra
	stord	ra,0x14(r9,r8)
	addd	(r3,r2),(r1,r0)
	storb	r7,(r1,r0)
	loadw	0x2414(r9,r8),r0
	movw	$10,r1
	movb	r0,r2
	subb	r1,r2
	movw	r6,r7
	lshw	r2,r7
	storw	r7,0x2410(r9,r8)
	movw	$FFF3,r6
	addw	r0,r6
	storw	r6,0x2414(r9,r8)
	loadd	0x14(r9,r8),(r3,r2)
	movd	$1,ra
	addd	(r3,r2),ra
	loadd	8(r9,r8),(r1,r0)
	addd	(r3,r2),(r1,r0)
	br	0000AFCC
0000B09A                               00 00                       ..    

;; fn0000B09C: 0000B09C
;;   Called from:
;;     000034E2 (in fn000033F8)
;;     000037D0 (in fn000033F8)
;;     00004E68 (in fn00004CD4)
;;     00004F1E (in fn00004CD4)
;;     0000504C (in fn00004CD4)
;;     000050EA (in fn00004CD4)
;;     0000514A (in fn00004CD4)
;;     000051AC (in fn00004CD4)
;;     0000544E (in fn00004CD4)
;;     00005570 (in fn00004CD4)
;;     000056F2 (in fn00004CD4)
;;     000057BC (in fn00004CD4)
;;     0000596A (in fn00004CD4)
;;     00005B22 (in fn00004CD4)
;;     00005BCE (in fn00004CD4)
;;     00005CB2 (in fn00004CD4)
;;     00005DBA (in fn00004CD4)
;;     00005ED0 (in fn00004CD4)
fn0000B09C proc
	push	$2,ra
	push	$1,r7
	loadw	0x2414(r3,r2),r0
	cmpw	$10,r0
	beq	0000B0DA

l0000B0AA:
	cmpw	$7,r0
	bge	0000B0D6

l0000B0AE:
	loadw	0x2410(r3,r2),r6
	loadd	8(r3,r2),(r1,r0)
	loadd	0x14(r3,r2),(r5,r4)
	movd	$1,ra
	addd	(r5,r4),ra
	stord	ra,0x14(r3,r2)
	addd	(r5,r4),(r1,r0)
	storb	r6,(r1,r0)
	loadw	0x2410(r3,r2),r0
	lshw	$-8,r0
	storw	r0,0x2410(r3,r2)
	loadw	0x2414(r3,r2),r0
	addw	$FFF8,r0
	storw	r0,0x2414(r3,r2)

l0000B0D6:
	pop	$1,r7
	popret	$2,ra

l0000B0DA:
	loadw	0x2410(r3,r2),r6
	loadd	8(r3,r2),(r1,r0)
	loadd	0x14(r3,r2),(r5,r4)
	movd	$1,ra
	addd	(r5,r4),ra
	stord	ra,0x14(r3,r2)
	addd	(r5,r4),(r1,r0)
	storb	r6,(r1,r0)
	loadw	0x2410(r3,r2),r4
	lshw	$-8,r4
	loadd	8(r3,r2),(r1,r0)
	loadd	0x14(r3,r2),ra
	movd	$1,(r7,r6)
	addd	ra,(r7,r6)
	stord	(r7,r6),0x14(r3,r2)
	addd	ra,(r1,r0)
	storb	r4,(r1,r0)
	storw	$0,0x1208(r3,r2)
	storw	$0,0x120A(r3,r2)
	pop	$1,r7
	popret	$2,ra

;; fn0000B10C: 0000B10C
;;   Called from:
;;     00005D24 (in fn00004CD4)
fn0000B10C proc
	push	$2,ra
	push	$3,r7
	loadw	0x2414(r3,r2),r0
	movw	$2,r4
	movw	r4,r5
	ashuw	r0,r5
	loadw	0x2410(r3,r2),r1
	orw	r5,r1
	storw	r1,0x2410(r3,r2)
	cmpw	$D,r0
	bge	0000B1A4

l0000B128:
	loadd	8(r3,r2),ra
	loadd	0x14(r3,r2),(r7,r6)
	movd	$1,(r9,r8)
	addd	(r7,r6),(r9,r8)
	stord	(r9,r8),0x14(r3,r2)
	addd	(r7,r6),ra
	storb	r1,(ra)
	loadw	0x2410(r3,r2),r5
	lshw	$-8,r5
	loadd	8(r3,r2),(r1,r0)
	loadd	0x14(r3,r2),ra
	movd	$1,(r7,r6)
	addd	ra,(r7,r6)
	stord	(r7,r6),0x14(r3,r2)
	addd	ra,(r1,r0)
	storb	r5,(r1,r0)
	loadw	0x2414(r3,r2),r0
	movw	$10,r1
	movb	r0,r5
	subb	r1,r5
	lshw	r5,r4
	movw	r4,r1
	storw	r4,0x2410(r3,r2)
	addw	$FFF3,r0
	storw	r0,0x2414(r3,r2)
	cmpw	$9,r0
	blt	0000B1B0

l0000B16C:
	addw	$7,r0
	storw	r0,0x2414(r3,r2)
	cmpw	$10,r0
	beq	0000B1EA

l0000B178:
	cmpw	$7,r0
	bge	0000B1A0

l0000B17C:
	loadd	8(r3,r2),(r5,r4)
	loadd	0x14(r3,r2),(r7,r6)
	movd	$1,(r9,r8)
	addd	(r7,r6),(r9,r8)
	stord	(r9,r8),0x14(r3,r2)
	addd	(r7,r6),(r5,r4)
	storb	r1,(r5,r4)
	loadw	0x2410(r3,r2),r0
	lshw	$-8,r0
	storw	r0,0x2410(r3,r2)
	loadw	0x2414(r3,r2),r0
	addw	$FFF8,r0
	storw	r0,0x2414(r3,r2)

l0000B1A0:
	pop	$3,r7
	popret	$2,ra

l0000B1A4:
	addw	$3,r0
	storw	r0,0x2414(r3,r2)
	cmpw	$9,r0
	bge	0000B16C

l0000B1B0:
	loadd	8(r3,r2),(r5,r4)
	loadd	0x14(r3,r2),(r7,r6)
	movd	$1,(r9,r8)
	addd	(r7,r6),(r9,r8)
	stord	(r9,r8),0x14(r3,r2)
	addd	(r7,r6),(r5,r4)
	storb	r1,(r5,r4)
	loadw	0x2410(r3,r2),r4
	lshw	$-8,r4
	loadd	8(r3,r2),(r1,r0)
	loadd	0x14(r3,r2),(r7,r6)
	movd	$1,(r9,r8)
	addd	(r7,r6),(r9,r8)
	stord	(r9,r8),0x14(r3,r2)
	addd	(r7,r6),(r1,r0)
	storb	r4,(r1,r0)
	loadw	0x2414(r3,r2),r0
	storw	$0,0x1208(r3,r2)
	addw	$FFF7,r0
	storw	r0,0x2414(r3,r2)
	movw	$0,r1
	cmpw	$10,r0
	bne	0000B178

l0000B1EA:
	loadd	8(r3,r2),(r5,r4)
	loadd	0x14(r3,r2),(r7,r6)
	movd	$1,(r9,r8)
	addd	(r7,r6),(r9,r8)
	stord	(r9,r8),0x14(r3,r2)
	addd	(r7,r6),(r5,r4)
	storb	r1,(r5,r4)
	loadw	0x2410(r3,r2),r4
	lshw	$-8,r4
	loadd	8(r3,r2),(r1,r0)
	loadd	0x14(r3,r2),(r7,r6)
	movd	$1,(r9,r8)
	addd	(r7,r6),(r9,r8)
	stord	(r9,r8),0x14(r3,r2)
	addd	(r7,r6),(r1,r0)
	storb	r4,(r1,r0)
	storw	$0,0x1208(r3,r2)
	storw	$0,0x120A(r3,r2)
	pop	$3,r7
	popret	$2,ra

;; fn0000B218: 0000B218
;;   Called from:
;;     00005196 (in fn00004CD4)
;;     000056DC (in fn00004CD4)
;;     000057A6 (in fn00004CD4)
;;     00005954 (in fn00004CD4)
;;     00005DA4 (in fn00004CD4)
;;     00005EBA (in fn00004CD4)
fn0000B218 proc
	push	$2,r13,ra
	push	$7,r7
	addd	$-16,sp
	movd	$26,r12
	addd	sp,r12
	movd	(r9,r8),(r3,r2)
	storw	r4,(sp)
	movw	r5,r7
	loadd	(r12),r12
	storw	r6,4(sp)
	movd	$4,(r1,r0)
	addd	r12,(r1,r0)
	stord	(r1,r0),8(sp)
	movw	r4,r0
	orw	r5,r0
	cmpw	$0,r0
	sne	r0
	storb	r0,6(sp)
	loadw	0xC4(r3,r2),r0
	cmpw	$0,r0
	bge	0000B7A0

l0000B24A:
	loadd	(r3,r2),ra
	loadw	0x58(ra),r0
	cmpw	$2,r0
	beq	0000B6AC

l0000B256:
	movd	$AF0,(r5,r4)
	addd	(r9,r8),(r5,r4)
	movd	(r3,r2),(r9,r8)
	bal	ra,fn0000A416
	movd	$AFC,(r5,r4)
	addd	(r9,r8),(r5,r4)
	movd	(r3,r2),(r9,r8)
	bal	ra,fn0000A416
	loadw	0x15E8(r9,r8),r6
	movd	$6A,r13
	addd	(r9,r8),r13
	loadw	0xD8(r9,r8),r0
	cmpw	$0,r0
	beq	0000B6A2

l0000B282:
	movw	$4,r5
	movw	$7,r1

l0000B286:
	movxw	r6,(r11,r10)
	movd	$1,(r3,r2)
	addd	(r11,r10),(r3,r2)
	ashud	$2,(r3,r2)
	addd	r13,(r3,r2)
	movw	$FFFF,r4
	storw	r4,2(r3,r2)
	cmpw	$0,r6
	bgt	0000B2F2

l0000B298:
	movd	$70,(r3,r2)
	addd	(r9,r8),(r3,r2)
	ashud	$2,(r11,r10)
	addd	$10,(r11,r10)
	movd	ra,r13
	addd	(r11,r10),ra
	movw	$0,r6
	movw	$3,r11
	movw	$8A,r10
	storw	r7,2(sp)

l0000B2B0:
	loadw	(r3,r2),r7
	addw	$1,r6
	cmpw	r6,r1
	ble	0000B722

l0000B2BA:
	cmpw	r7,r0
	beq	0000B2E8

l0000B2BE:
	cmpw	r6,r5
	ble	0000B722

l0000B2C4:
	movxw	r0,(r5,r4)
	ashud	$2,(r5,r4)
	addd	(r9,r8),(r5,r4)
	loadw	0x14A4(r5,r4),r1
	addw	r1,r6
	storw	r6,0x14A4(r5,r4)

l0000B2D4:
	cmpw	$0,r7
	beq	0000B6E4

l0000B2DA:
	cmpw	r7,r0
	beq	0000B76C

l0000B2E0:
	movw	r0,r4
	movw	$4,r5
	movw	$7,r1
	movw	$0,r6

l0000B2E8:
	addd	$4,(r3,r2)
	movw	r7,r0
	cmpd	(r3,r2),ra
	bne	0000B2B0

l0000B2F0:
	loadw	2(sp),r7

l0000B2F2:
	loadw	0x1600(r9,r8),r6
	movd	$95E,(r2,r1)
	addd	(r9,r8),(r2,r1)
	stord	(r2,r1),0xC(sp)
	loadw	0x12C0(r9,r8),r0
	cmpw	$0,r0
	beq	0000B844

l0000B308:
	movw	$4,r5
	movw	$7,r1

l0000B30C:
	movxw	r6,(r11,r10)
	movd	$1,(r3,r2)
	addd	(r11,r10),(r3,r2)
	ashud	$2,(r3,r2)
	loadd	0xC(sp),ra
	addd	ra,(r3,r2)
	movw	$FFFF,r4
	storw	r4,2(r3,r2)
	cmpw	$0,r6
	bgt	0000B378

l0000B320:
	movd	$964,(r3,r2)
	addd	(r9,r8),(r3,r2)
	ashud	$2,(r11,r10)
	addd	$10,(r11,r10)
	addd	(r11,r10),ra
	movw	$0,r6
	movw	$3,r11
	movw	$8A,r10
	storw	r7,2(sp)

l0000B336:
	loadw	(r3,r2),r7
	addw	$1,r6
	cmpw	r1,r6
	bge	0000B6FC

l0000B340:
	cmpw	r7,r0
	beq	0000B36E

l0000B344:
	cmpw	r5,r6
	bge	0000B6FC

l0000B34A:
	movxw	r0,(r5,r4)
	ashud	$2,(r5,r4)
	addd	(r9,r8),(r5,r4)
	loadw	0x14A4(r5,r4),r1
	addw	r1,r6
	storw	r6,0x14A4(r5,r4)

l0000B35A:
	cmpw	$0,r7
	beq	0000B6F0

l0000B360:
	cmpw	r7,r0
	beq	0000B778

l0000B366:
	movw	r0,r4
	movw	$4,r5
	movw	$7,r1
	movw	$0,r6

l0000B36E:
	addd	$4,(r3,r2)
	movw	r7,r0
	cmpd	ra,(r3,r2)
	bne	0000B336

l0000B376:
	loadw	2(sp),r7

l0000B378:
	movd	$B08,(r5,r4)
	addd	(r9,r8),(r5,r4)
	movd	(r3,r2),(r9,r8)
	bal	ra,fn0000A416
	loadw	0x1520(r9,r8),r0
	cmpw	$0,r0
	bne	0000B954

l0000B38E:
	loadw	0x14B0(r9,r8),r0
	cmpw	$0,r0
	bne	0000B98C

l0000B398:
	loadw	0x1518(r9,r8),r0
	cmpw	$0,r0
	bne	0000B97A

l0000B3A2:
	loadw	0x14B8(r9,r8),r0
	cmpw	$0,r0
	bne	0000B984

l0000B3AC:
	loadw	0x1510(r9,r8),r0
	cmpw	$0,r0
	bne	0000B972

l0000B3B6:
	loadw	0x14C0(r9,r8),r0
	cmpw	$0,r0
	bne	0000B9AE

l0000B3C0:
	loadw	0x1508(r9,r8),r0
	cmpw	$0,r0
	bne	0000B99E

l0000B3CA:
	loadw	0x14C8(r9,r8),r0
	cmpw	$0,r0
	bne	0000B9A6

l0000B3D4:
	loadw	0x1500(r9,r8),r0
	cmpw	$0,r0
	bne	0000B996

l0000B3DE:
	loadw	0x14D0(r9,r8),r0
	cmpw	$0,r0
	bne	0000B9C6

l0000B3E8:
	loadw	0x14F8(r9,r8),r0
	cmpw	$0,r0
	bne	0000B9B6

l0000B3F2:
	loadw	0x14D8(r9,r8),r0
	cmpw	$0,r0
	bne	0000B9BE

l0000B3FC:
	loadw	0x14F0(r9,r8),r0
	cmpw	$0,r0
	bne	0000B9D6

l0000B406:
	loadw	0x14E0(r9,r8),r0
	cmpw	$0,r0
	bne	0000B9DE

l0000B410:
	loadw	0x14E8(r9,r8),r0
	cmpw	$0,r0
	bne	0000B9CE

l0000B41A:
	loadw	0x14A8(r9,r8),r0
	cmpw	$0,r0
	bne	0000B96A

l0000B424:
	movd	$9,(r1,r0)
	storw	$2,2(sp)

l0000B42C:
	loadd	0x23F8(r9,r8),(r3,r2)
	addd	$14,(r3,r2)
	addd	(r1,r0),(r3,r2)
	stord	(r3,r2),0x23F8(r9,r8)
	addd	$10,(r3,r2)
	lshd	$-29,(r3,r2)
	loadd	0x2400(r9,r8),ra
	addd	$10,ra
	lshd	$-29,ra
	movd	(r1,r0),(r3,r2)
	cmpd	(r3,r2),ra
	bhs	0000B44C

l0000B44A:
	movd	(r1,r0),ra

l0000B44C:
	loadd	8(sp),(r5,r4)
	cmpd	(r1,r0),(r5,r4)
	sls	r0
	cmpw	$0,r0
	beq	0000B45E

l0000B456:
	loadb	6(sp),r5
	cmpb	$0,r5
	bne	0000B7B4

l0000B45E:
	loadw	0x2414(r9,r8),r4
	loadw	0x2410(r9,r8),r5
	loadw	0xC8(r9,r8),r0
	cmpw	$4,r0
	seq	r0
	cmpw	$0,r0
	bne	0000B87E

l0000B474:
	cmpd	(r3,r2),ra
	sls	r0
	cmpw	$0,r0
	bne	0000B87E

l0000B47E:
	loadw	4(sp),r1
	addw	$4,r1
	movw	r1,r10
	ashuw	r4,r10
	orw	r5,r10
	storw	r10,0x2410(r9,r8)
	cmpw	$D,r4
	bge	0000B908

l0000B492:
	loadd	8(r9,r8),(r3,r2)
	loadd	0x14(r9,r8),(r5,r4)
	movd	$1,(r7,r6)
	addd	(r5,r4),(r7,r6)
	stord	(r7,r6),0x14(r9,r8)
	addd	(r5,r4),(r3,r2)
	storb	r10,(r3,r2)
	loadw	0x2410(r9,r8),r10
	lshw	$-8,r10
	loadd	8(r9,r8),(r3,r2)
	loadd	0x14(r9,r8),(r5,r4)
	movd	$1,(r7,r6)
	addd	(r5,r4),(r7,r6)
	stord	(r7,r6),0x14(r9,r8)
	addd	(r5,r4),(r3,r2)
	storb	r10,(r3,r2)
	loadw	0x2414(r9,r8),r4
	movw	$10,r2
	subw	r4,r2
	subb	r2,r0
	movw	r1,r10
	lshw	r0,r10
	storw	r10,0x2410(r9,r8)
	addw	$FFF3,r4
	storw	r4,0x2414(r9,r8)

l0000B4D0:
	loadw	0x1600(r9,r8),r12
	loadw	0x15E8(r9,r8),ra
	movw	ra,r1
	addw	$FF00,r1
	movw	r1,r0
	ashuw	r4,r0
	orw	r10,r0
	storw	r0,0x2410(r9,r8)
	cmpw	$B,r4
	bge	0000B8FE

l0000B4F0:
	loadd	8(r9,r8),(r3,r2)
	loadd	0x14(r9,r8),(r5,r4)
	movd	$1,(r7,r6)
	addd	(r5,r4),(r7,r6)
	stord	(r7,r6),0x14(r9,r8)
	addd	(r5,r4),(r3,r2)
	storb	r0,(r3,r2)
	loadw	0x2410(r9,r8),r0
	lshw	$-8,r0
	loadd	8(r9,r8),(r3,r2)
	loadd	0x14(r9,r8),(r5,r4)
	movd	$1,(r7,r6)
	addd	(r5,r4),(r7,r6)
	stord	(r7,r6),0x14(r9,r8)
	addd	(r5,r4),(r3,r2)
	storb	r0,(r3,r2)
	loadw	0x2414(r9,r8),r4
	movw	$10,r0
	movb	r4,r5
	subb	r0,r5
	lshw	r5,r1
	movw	r1,r0
	storw	r1,0x2410(r9,r8)
	addw	$FFF5,r4
	storw	r4,0x2414(r9,r8)

l0000B52E:
	movw	r12,r1
	ashuw	r4,r1
	orw	r1,r0
	storw	r0,0x2410(r9,r8)
	cmpw	$B,r4
	bge	0000B8F4

l0000B540:
	loadd	8(r9,r8),(r3,r2)
	loadd	0x14(r9,r8),(r5,r4)
	movd	$1,(r7,r6)
	addd	(r5,r4),(r7,r6)
	stord	(r7,r6),0x14(r9,r8)
	addd	(r5,r4),(r3,r2)
	storb	r0,(r3,r2)
	loadw	0x2410(r9,r8),r6
	lshw	$-8,r6
	loadd	8(r9,r8),(r1,r0)
	loadd	0x14(r9,r8),(r3,r2)
	movd	$1,(r5,r4)
	addd	(r3,r2),(r5,r4)
	stord	(r5,r4),0x14(r9,r8)
	addd	(r3,r2),(r1,r0)
	storb	r6,(r1,r0)
	loadw	0x2414(r9,r8),r4
	movw	$10,r0
	movb	r4,r1
	subb	r0,r1
	movw	r12,r2
	lshw	r1,r2
	movw	r2,r0
	storw	r2,0x2410(r9,r8)
	addw	$FFF5,r4
	storw	r4,0x2414(r9,r8)

l0000B580:
	loadw	2(sp),r1
	addw	$FFFD,r1
	movw	r1,r2
	ashuw	r4,r2
	orw	r2,r0
	storw	r0,0x2410(r9,r8)
	cmpw	$C,r4
	bge	0000B8EA

l0000B596:
	loadd	8(r9,r8),(r3,r2)
	loadd	0x14(r9,r8),(r5,r4)
	movd	$1,(r7,r6)
	addd	(r5,r4),(r7,r6)
	stord	(r7,r6),0x14(r9,r8)
	addd	(r5,r4),(r3,r2)
	storb	r0,(r3,r2)
	loadw	0x2410(r9,r8),r0
	lshw	$-8,r0
	loadd	8(r9,r8),(r3,r2)
	loadd	0x14(r9,r8),(r5,r4)
	movd	$1,(r7,r6)
	addd	(r5,r4),(r7,r6)
	stord	(r7,r6),0x14(r9,r8)
	addd	(r5,r4),(r3,r2)
	storb	r0,(r3,r2)
	loadw	0x2414(r9,r8),r4
	movw	$10,r0
	movb	r4,r3
	subb	r0,r3
	lshw	r3,r1
	movw	r1,r0
	storw	r1,0x2410(r9,r8)
	addw	$FFF4,r4
	storw	r4,0x2414(r9,r8)

l0000B5D4:
	movd	$FB26,(r11,r10)
	movb	$10,r2
	movw	$0,r1
	movw	$10,r7
	storw	r12,8(sp)
	movw	r1,r6
	movzb	r2,(r3,r2)
	movxw	r2,(r3,r2)
	addd	$660,(r3,r2)
	ashud	$2,(r3,r2)
	addd	(r9,r8),(r3,r2)
	loadw	4(r3,r2),r5
	storw	r5,(sp)
	movw	r5,r1
	ashuw	r4,r1
	orw	r1,r0
	storw	r0,0x2410(r9,r8)
	cmpw	$D,r4
	bge	0000B66C

l0000B604:
	loadd	8(r9,r8),(r3,r2)
	loadd	0x14(r9,r8),(r5,r4)
	movd	$1,r12
	addd	(r5,r4),r12
	stord	r12,0x14(r9,r8)
	addd	(r5,r4),(r3,r2)
	storb	r0,(r3,r2)
	loadw	0x2410(r9,r8),r0
	lshw	$-8,r0
	movw	r0,r12
	loadd	8(r9,r8),(r1,r0)
	loadd	0x14(r9,r8),(r3,r2)
	movd	$1,(r5,r4)
	addd	(r3,r2),(r5,r4)
	stord	(r5,r4),0x14(r9,r8)
	addd	(r3,r2),(r1,r0)
	storb	r12,(r1,r0)
	loadw	0x2414(r9,r8),r4
	movb	r4,r0
	subb	r7,r0
	loadw	(sp),r1
	lshw	r0,r1
	movw	r1,r0
	storw	r1,0x2410(r9,r8)
	addw	$FFF3,r4
	storw	r4,0x2414(r9,r8)
	addw	$1,r6
	loadw	2(sp),r2
	cmpw	r2,r6
	bgt	0000B67A

l0000B64A:
	loadb	1(r11,r10),r2
	addd	$1,(r11,r10)
	movzb	r2,(r3,r2)
	movxw	r2,(r3,r2)
	addd	$660,(r3,r2)
	ashud	$2,(r3,r2)
	addd	(r9,r8),(r3,r2)
	loadw	4(r3,r2),r5
	storw	r5,(sp)
	movw	r5,r1
	ashuw	r4,r1
	orw	r1,r0
	storw	r0,0x2410(r9,r8)
	cmpw	$D,r4
	blt	0000B604

l0000B66C:
	addw	$3,r4
	storw	r4,0x2414(r9,r8)
	addw	$1,r6
	loadw	2(sp),r3
	cmpw	r3,r6
	ble	0000B64A

l0000B67A:
	loadw	8(sp),r12
	movw	ra,r6
	movd	(r5,r4),r13
	movd	(r3,r2),(r9,r8)
	bal	ra,fn00009C04
	movw	r12,r6
	loadd	0xC(sp),(r5,r4)
	movd	(r3,r2),(r9,r8)
	bal	ra,fn00009C04
	loadd	0xC(sp),(r5,r4)
	push	$2,r4
	movd	(r5,r4),r13
	movd	(r3,r2),(r9,r8)
	bal	ra,fn0000A0E8
	addd	$4,sp
	br	0000B7C4

l0000B6A2:
	movw	$3,r5
	movw	$8A,r1
	br	0000B286

l0000B6AC:
	movd	r13,(r3,r2)
	movd	$80,(r11,r10)
	addd	(r3,r2),(r11,r10)
	movd	(r1,r0),(r3,r2)
	movd	$F3FFC07F,(r3,r2)
	br	0000B6C8

l0000B6BE:
	lshd	$-31,(r3,r2)
	addd	$4,(r1,r0)
	cmpd	(r11,r10),(r1,r0)
	beq	0000B912

l0000B6C8:
	movd	$1,(r5,r4)
	andd	(r3,r2),(r5,r4)
	cmpd	$0,(r5,r4)
	beq	0000B6BE

l0000B6D2:
	loadw	0xD4(r1,r0),r4
	cmpw	$0,r4
	beq	0000B6BE

l0000B6DA:
	movw	$0,r0

l0000B6DC:
	storw	r0,0x58(ra)
	br	0000B256

l0000B6E4:
	movw	r7,r6
	movw	r0,r4
	movw	r11,r5
	movw	r10,r1
	br	0000B2E8

l0000B6F0:
	movw	r7,r6
	movw	r0,r4
	movw	r11,r5
	movw	r10,r1
	br	0000B36E

l0000B6FC:
	cmpw	$0,r0
	beq	0000B75A

l0000B700:
	cmpw	r4,r0
	beq	0000B714

l0000B704:
	movxw	r0,(r5,r4)
	ashud	$2,(r5,r4)
	addd	(r9,r8),(r5,r4)
	loadw	0x14A4(r5,r4),r1
	addw	$1,r1
	storw	r1,0x14A4(r5,r4)

l0000B714:
	loadw	0x1524(r9,r8),r1
	addw	$1,r1
	storw	r1,0x1524(r9,r8)
	br	0000B35A

l0000B722:
	cmpw	$0,r0
	beq	0000B748

l0000B726:
	cmpw	r4,r0
	beq	0000B73A

l0000B72A:
	movxw	r0,(r5,r4)
	ashud	$2,(r5,r4)
	addd	(r9,r8),(r5,r4)
	loadw	0x14A4(r5,r4),r1
	addw	$1,r1
	storw	r1,0x14A4(r5,r4)

l0000B73A:
	loadw	0x1524(r9,r8),r1
	addw	$1,r1
	storw	r1,0x1524(r9,r8)
	br	0000B2D4

l0000B748:
	cmpw	$A,r6
	blt	0000B784

l0000B74C:
	loadw	0x152C(r9,r8),r1
	addw	$1,r1
	storw	r1,0x152C(r9,r8)
	br	0000B2D4

l0000B75A:
	cmpw	$A,r6
	blt	0000B792

l0000B75E:
	loadw	0x152C(r9,r8),r1
	addw	$1,r1
	storw	r1,0x152C(r9,r8)
	br	0000B35A

l0000B76C:
	movw	r7,r4
	movw	r11,r5
	movw	$6,r1
	movw	$0,r6
	br	0000B2E8

l0000B778:
	movw	r7,r4
	movw	r11,r5
	movw	$6,r1
	movw	$0,r6
	br	0000B36E

l0000B784:
	loadw	0x1534(r9,r8),r1
	addw	$1,r1
	storw	r1,0x1534(r9,r8)
	br	0000B2D4

l0000B792:
	loadw	0x1534(r9,r8),r1
	addw	$1,r1
	storw	r1,0x1534(r9,r8)
	br	0000B35A

l0000B7A0:
	movd	$5,(r1,r0)
	addd	r12,(r1,r0)
	loadd	8(sp),ra
	cmpd	(r1,r0),ra
	sls	r0
	cmpw	$0,r0
	beq	0000B876

l0000B7AE:
	loadb	6(sp),r0
	cmpb	$0,r0
	beq	0000B876

l0000B7B4:
	push	$2,r12
	loadw	8(sp),r6
	loadw	4(sp),r4
	movw	r7,r5
	movd	(r3,r2),(r9,r8)
	bal	ra,fn0000AF94
	addd	$4,sp

l0000B7C4:
	movd	(r3,r2),(r9,r8)
	movd	$478,(r5,r4)
	addd	(r9,r8),(r5,r4)
	movd	(r1,r0),(r9,r8)

l0000B7CE:
	storw	$0,0x6A(r1,r0)
	addd	$4,(r1,r0)
	cmpd	(r5,r4),(r1,r0)
	bne	0000B7CE

l0000B7D8:
	movd	$78,(r5,r4)
	addd	(r9,r8),(r5,r4)
	movd	(r1,r0),(r9,r8)

l0000B7E0:
	storw	$0,0x95E(r1,r0)
	addd	$4,(r1,r0)
	cmpd	(r1,r0),(r5,r4)
	bne	0000B7E0

l0000B7EA:
	movd	$4C,(r1,r0)
	addd	(r9,r8),(r1,r0)

l0000B7F0:
	storw	$0,0xA52(r3,r2)
	addd	$4,(r3,r2)
	cmpd	(r1,r0),(r3,r2)
	bne	0000B7F0

l0000B7FA:
	storw	$1,0x46A(r9,r8)
	movd	$0,(r1,r0)
	stord	(r1,r0),0x2400(r9,r8)
	stord	(r1,r0),0x23F8(r9,r8)
	storw	$0,0x1204(r9,r8)
	storw	$0,0x11F6(r9,r8)
	loadw	4(sp),r5
	cmpw	$0,r5
	beq	0000B83C

l0000B816:
	loadw	0x2414(r9,r8),r0
	cmpw	$8,r0
	blt	0000B84E

l0000B81E:
	cmpw	$0,r0
	bge	0000B834

l0000B822:
	loadw	0x2410(r9,r8),r4
	loadd	8(r9,r8),(r1,r0)
	loadd	0x14(r9,r8),(r3,r2)
	movd	$1,(r7,r6)
	addd	(r3,r2),(r7,r6)
	stord	(r7,r6),0x14(r9,r8)
	addd	(r3,r2),(r1,r0)
	storb	r4,(r1,r0)

l0000B834:
	storw	$0,0x1208(r9,r8)
	storw	$0,0x120A(r9,r8)

l0000B83C:
	addd	$16,sp
	pop	$7,r7
	popret	$2,r13,ra

l0000B844:
	movw	$3,r5
	movw	$8A,r1
	br	0000B30C

l0000B84E:
	loadw	0x2410(r9,r8),r4
	loadd	8(r9,r8),(r1,r0)
	loadd	0x14(r9,r8),(r3,r2)
	movd	$1,(r7,r6)
	addd	(r3,r2),(r7,r6)
	stord	(r7,r6),0x14(r9,r8)
	addd	(r3,r2),(r1,r0)
	storb	r4,(r1,r0)
	loadw	0x2410(r9,r8),r2
	lshw	$-8,r2
	loadd	8(r9,r8),(r1,r0)
	loadd	0x14(r9,r8),(r5,r4)
	movd	$1,(r7,r6)
	addd	(r5,r4),(r7,r6)
	stord	(r7,r6),0x14(r9,r8)
	addd	(r5,r4),(r1,r0)
	storb	r2,(r1,r0)
	br	0000B834

l0000B876:
	loadw	0x2414(r9,r8),r4
	loadw	0x2410(r9,r8),r5

l0000B87E:
	loadw	4(sp),r1
	addw	$2,r1
	movw	r1,r10
	ashuw	r4,r10
	orw	r5,r10
	storw	r10,0x2410(r9,r8)
	cmpw	$D,r4
	bge	0000B8E2

l0000B890:
	loadd	8(r9,r8),(r3,r2)
	loadd	0x14(r9,r8),(r5,r4)
	movd	$1,(r7,r6)
	addd	(r5,r4),(r7,r6)
	stord	(r7,r6),0x14(r9,r8)
	addd	(r5,r4),(r3,r2)
	storb	r10,(r3,r2)
	loadw	0x2410(r9,r8),r0
	lshw	$-8,r0
	loadd	8(r9,r8),(r3,r2)
	loadd	0x14(r9,r8),(r5,r4)
	movd	$1,(r7,r6)
	addd	(r5,r4),(r7,r6)
	stord	(r7,r6),0x14(r9,r8)
	addd	(r5,r4),(r3,r2)
	storb	r0,(r3,r2)
	loadw	0x2414(r9,r8),r0
	movw	$10,r2
	movb	r0,r3
	subb	r2,r3
	lshw	r3,r1
	storw	r1,0x2410(r9,r8)
	addw	$FFF3,r0
	storw	r0,0x2414(r9,r8)

l0000B8CC:
	movd	$F62E,(r1,r0)
	push	$2,r0
	movd	$F6A6,(r5,r4)
	movd	(r3,r2),(r9,r8)
	bal	ra,fn0000A0E8
	addd	$4,sp
	br	0000B7C4

l0000B8E2:
	addw	$3,r4
	storw	r4,0x2414(r9,r8)
	br	0000B8CC

l0000B8EA:
	addw	$4,r4
	storw	r4,0x2414(r9,r8)
	br	0000B5D4

l0000B8F4:
	addw	$5,r4
	storw	r4,0x2414(r9,r8)
	br	0000B580

l0000B8FE:
	addw	$5,r4
	storw	r4,0x2414(r9,r8)
	br	0000B52E

l0000B908:
	addw	$3,r4
	storw	r4,0x2414(r9,r8)
	br	0000B4D0

l0000B912:
	loadw	0x11C(r9,r8),r1
	movw	$1,r0
	cmpw	$0,r1
	bne	0000B6DC

l0000B91E:
	loadw	0x124(r9,r8),r1
	cmpw	$0,r1
	bne	0000B6DC

l0000B928:
	loadw	0x13C(r9,r8),r1
	cmpw	$0,r1
	bne	0000B6DC

l0000B932:
	movd	$380,(r3,r2)
	addd	(r9,r8),(r3,r2)
	br	0000B942

l0000B93A:
	addd	$4,r13
	cmpd	r13,(r3,r2)
	beq	0000B6DC

l0000B942:
	loadw	0x1D4(r13),r0
	cmpw	$0,r0
	beq	0000B93A

l0000B94A:
	movw	$1,r0
	storw	r0,0x58(ra)
	br	0000B256

l0000B954:
	movw	$12,r0
	storw	r0,2(sp)
	movw	r0,r3

l0000B95C:
	movxw	r3,(r1,r0)
	addd	$1,(r1,r0)
	movd	(r3,r2),(r1,r0)
	addd	(r1,r0),(r3,r2)
	addd	(r3,r2),(r1,r0)
	br	0000B42C

l0000B96A:
	storw	$3,2(sp)
	loadw	2(sp),r3
	br	0000B95C

l0000B972:
	storw	$E,2(sp)
	loadw	2(sp),r3
	br	0000B95C

l0000B97A:
	movw	$10,r2
	storw	r2,2(sp)
	movw	r2,r3
	br	0000B95C

l0000B984:
	storw	$F,2(sp)
	loadw	2(sp),r3
	br	0000B95C

l0000B98C:
	movw	$11,r1
	storw	r1,2(sp)
	movw	r1,r3
	br	0000B95C

l0000B996:
	storw	$A,2(sp)
	loadw	2(sp),r3
	br	0000B95C

l0000B99E:
	storw	$C,2(sp)
	loadw	2(sp),r3
	br	0000B95C

l0000B9A6:
	storw	$B,2(sp)
	loadw	2(sp),r3
	br	0000B95C

l0000B9AE:
	storw	$D,2(sp)
	loadw	2(sp),r3
	br	0000B95C

l0000B9B6:
	storw	$8,2(sp)
	loadw	2(sp),r3
	br	0000B95C

l0000B9BE:
	storw	$7,2(sp)
	loadw	2(sp),r3
	br	0000B95C

l0000B9C6:
	storw	$9,2(sp)
	loadw	2(sp),r3
	br	0000B95C

l0000B9CE:
	storw	$4,2(sp)
	loadw	2(sp),r3
	br	0000B95C

l0000B9D6:
	storw	$6,2(sp)
	loadw	2(sp),r3
	br	0000B95C

l0000B9DE:
	storw	$5,2(sp)
	loadw	2(sp),r3
	br	0000B95C
0000B9E6                   00 00 1E 01 27 01 02 9F F6 11       ....'.....
0000B9F0 06 5F E2 AF F8 11 68 55 68 61 8E 61 4E D0 E2 AF ._....hUha.aN...
0000BA00 F0 11 10 32 02 DF F6 11 6E 61 5E F0 04 52 09 13 ...2....na^..R..
0000BA10 02 9F 04 12 10 32 02 DF 04 12 94 32 50 5F 60 05 .....2.....2P_`.
0000BA20 2E F3 60 61 00 B0 00 5D 00 5F 20 4C 20 61 50 9F ..`a...]._ L aP.
0000BA30 6E 04 15 32 50 DF 6E 04 B4 52 FF 00 BB 11 94 49 n..2P.n..R.....I
0000BA40 B4 32 00 01 44 5F 00 05 2E F4 04 61 04 B0 00 5D .2..D_.....a...]
0000BA50 00 5E 20 4C 20 61 40 9F 5E 09 14 32 40 DF 5E 09 .^ L a@.^..2@.^.
0000BA60 02 9F F4 11 90 32 12 9F F6 11 10 53 00 08 27 02 .....2.....S..'.
0000BA70 1E 03 40 5F 40 05 2E F4 04 61 04 B0 00 5D E9 1E ..@_@....a...]..
0000BA80 50 5F 20 4C 20 61 40 9F 6A 00 14 32 40 DF 6A 00 P_ L a@.j..2@.j.
0000BA90 02 9F F4 11 90 32 12 9F F6 11 10 53 00 08 27 02 .....2.....S..'.
0000BAA0 1E 03 00 00 00 05 EC E4 EE 0A 70 00 00 02 14 00 ..........p.....
0000BAB0 EE 0A 20 5A 20 3B 00 5E 20 4C 20 05 50 FC 20 61 .. Z ;.^ L .P. a
0000BAC0 00 A0 EE 0A 1E 01 42 5B 54 5F 22 5F 00 C0 B8 1E ......B[T_"_....
0000BAD0 1E 03 00 00 1E 01 42 55 00 C0 C4 1E 1E 03 00 00 ......BU........

;; fn0000BAE0: 0000BAE0
;;   Called from:
;;     0000C0F6 (in fn0000C0EE)
fn0000BAE0 proc
	push	$2,r13,ra
	push	$7,r7
	addd	$-56,sp
	movd	$4E,(r1,r0)
	addd	sp,(r1,r0)
	movd	r12,(r5,r4)
	loadd	(r1,r0),(r9,r8)
	stord	(r9,r8),0x50(sp)
	movd	r13,(r3,r2)
	lshd	$-16,r13
	stord	r13,0x40(sp)
	movd	$FFFF,(r9,r8)
	andd	(r3,r2),(r9,r8)
	stord	(r9,r8),(sp)
	loadd	0x50(sp),r13
	cmpd	$1,r13
	beq	0000BC62

l0000BB12:
	cmpd	$0,(r5,r4)
	beq	0000C0C4

l0000BB18:
	cmpd	$F,r13
	bhs	0000BC96

l0000BB1E:
	cmpd	$15AF,r13
	bhs	0000C0D8

l0000BB26:
	loadd	(sp),(r9,r8)
	loadd	0x50(sp),r13

l0000BB2C:
	addd	$-5552,r13
	stord	r13,0x58(sp)
	movd	$15B0,(r1,r0)
	addd	r12,(r1,r0)
	stord	(r1,r0),0x48(sp)

l0000BB3E:
	loadb	(r12),r0
	movzb	r0,(r1,r0)
	movzw	r0,(r1,r0)
	movd	(r3,r2),(r1,r0)
	addd	(r9,r8),(r3,r2)
	stord	(r3,r2),(sp)
	loadb	1(r12),r0
	movzb	r0,(r1,r0)
	movzw	r0,(r1,r0)
	addd	(r1,r0),(r3,r2)
	stord	(r3,r2),0x60(sp)
	loadb	2(r12),r2
	movzb	r2,(r3,r2)
	movzw	r2,(r3,r2)
	loadd	0x60(sp),(r5,r4)
	addd	(r3,r2),(r5,r4)
	stord	(r5,r4),4(sp)
	loadb	3(r12),r2
	movzb	r2,(r3,r2)
	movzw	r2,(r3,r2)
	addd	(r3,r2),(r5,r4)
	stord	(r5,r4),8(sp)
	loadb	4(r12),r2
	movzb	r2,(r3,r2)
	movzw	r2,(r3,r2)
	addd	(r3,r2),(r5,r4)
	stord	(r5,r4),0xC(sp)
	loadb	5(r12),r2
	movzb	r2,(r3,r2)
	movzw	r2,(r3,r2)
	addd	(r3,r2),(r5,r4)
	stord	(r5,r4),0x10(sp)
	loadb	6(r12),r2
	movzb	r2,(r3,r2)
	movzw	r2,(r3,r2)
	addd	(r3,r2),(r5,r4)
	stord	(r5,r4),0x14(sp)
	loadb	7(r12),r2
	movzb	r2,(r3,r2)
	movzw	r2,(r3,r2)
	addd	(r3,r2),(r5,r4)
	stord	(r5,r4),0x18(sp)
	loadb	8(r12),r2
	movzb	r2,(r3,r2)
	movzw	r2,(r3,r2)
	addd	(r3,r2),(r5,r4)
	stord	(r5,r4),0x38(sp)
	loadb	9(r12),r13
	movzb	r13,r13
	movzw	r13,r13
	addd	r13,(r5,r4)
	stord	(r5,r4),0x68(sp)
	loadb	0xA(r12),ra
	movzb	ra,ra
	movzw	ra,ra
	addd	(r5,r4),ra
	loadb	0xB(r12),r10
	movzb	r10,(r11,r10)
	movzw	r10,(r11,r10)
	addd	ra,(r11,r10)
	loadb	0xC(r12),r6
	movzb	r6,(r7,r6)
	movzw	r6,(r7,r6)
	addd	(r11,r10),(r7,r6)
	loadb	0xD(r12),r4
	movzb	r4,(r5,r4)
	movzw	r4,(r5,r4)
	addd	(r7,r6),(r5,r4)
	loadb	0xE(r12),r2
	movzb	r2,(r3,r2)
	movzw	r2,(r3,r2)
	addd	(r5,r4),(r3,r2)
	loadb	0xF(r12),r8
	movzb	r8,(r9,r8)
	movzw	r8,(r9,r8)
	addd	(r3,r2),(r9,r8)
	loadd	0x60(sp),(r1,r0)
	loadd	(sp),r13
	addd	r13,(r1,r0)
	loadd	4(sp),r13
	addd	r13,(r1,r0)
	loadd	8(sp),r13
	addd	r13,(r1,r0)
	loadd	0xC(sp),r13
	addd	r13,(r1,r0)
	loadd	0x10(sp),r13
	addd	r13,(r1,r0)
	loadd	0x14(sp),r13
	addd	r13,(r1,r0)
	loadd	0x18(sp),r13
	addd	r13,(r1,r0)
	loadd	0x38(sp),r13
	addd	r13,(r1,r0)
	stord	(r1,r0),(sp)
	loadd	0x68(sp),r13
	addd	r13,(r1,r0)
	addd	ra,(r1,r0)
	addd	(r11,r10),(r1,r0)
	addd	(r7,r6),(r1,r0)
	addd	(r5,r4),(r1,r0)
	addd	(r3,r2),(r1,r0)
	addd	(r9,r8),(r1,r0)
	loadd	0x40(sp),r13
	addd	(r1,r0),r13
	stord	r13,0x40(sp)
	addd	$16,r12
	loadd	0x48(sp),(r1,r0)
	cmpd	r12,(r1,r0)
	bne	0000BB3E

l0000BC32:
	movd	$FFF1,(r5,r4)
	movd	(r3,r2),(r9,r8)
	bal	ra,fn0000D4EC
	movd	(r9,r8),(r1,r0)
	movd	$FFF1,(r5,r4)
	loadd	0x40(sp),(r3,r2)
	bal	ra,fn0000D4EC
	stord	(r1,r0),0x40(sp)
	loadd	0x58(sp),r13
	cmpd	$15AF,r13
	bhs	0000BE0A

l0000BC5A:
	stord	r13,0x50(sp)
	br	0000BB2C

l0000BC62:
	loadb	(r5,r4),r0
	movzb	r0,(r1,r0)
	movzw	r0,(r3,r2)
	addd	(r9,r8),(r3,r2)
	cmpd	$FFF0,(r3,r2)
	blo	0000C0CE

l0000BC74:
	loadd	0x40(sp),(r1,r0)
	addd	(r3,r2),(r1,r0)
	cmpd	$FFF0,(r1,r0)
	bhs	0000BC88

l0000BC82:
	addd	$FFFF000F,(r1,r0)

l0000BC88:
	ashud	$16,(r1,r0)
	ord	(r3,r2),(r1,r0)
	addd	$56,sp
	pop	$7,r7
	popret	$2,r13,ra

l0000BC96:
	cmpd	$0,r13
	beq	0000BDDA

l0000BC9C:
	loadb	(r5,r4),r0
	movzb	r0,(r1,r0)
	movzw	r0,(r1,r0)
	loadd	(sp),(r9,r8)
	addd	(r1,r0),(r9,r8)
	stord	(r9,r8),(sp)
	loadd	0x40(sp),(r1,r0)
	addd	(r9,r8),(r1,r0)
	stord	(r1,r0),0x40(sp)
	cmpd	$1,r13
	beq	0000BDDA

l0000BCB8:
	loadb	1(r5,r4),r0
	movzb	r0,(r1,r0)
	movzw	r0,(r1,r0)
	addd	(r1,r0),(r9,r8)
	stord	(r9,r8),(sp)
	loadd	0x40(sp),(r2,r1)
	addd	(r9,r8),(r2,r1)
	stord	(r2,r1),0x40(sp)
	cmpd	$2,r13
	beq	0000BDDA

l0000BCD2:
	movd	(r3,r2),(r2,r1)
	loadb	2(r5,r4),r0
	movzb	r0,(r1,r0)
	movzw	r0,(r1,r0)
	addd	(r1,r0),(r9,r8)
	stord	(r9,r8),(sp)
	addd	(r9,r8),(r3,r2)
	stord	(r3,r2),0x40(sp)
	cmpd	$3,r13
	beq	0000BDDA

l0000BCE8:
	loadb	3(r5,r4),r0
	movzb	r0,(r1,r0)
	movzw	r0,(r1,r0)
	addd	(r1,r0),(r9,r8)
	stord	(r9,r8),(sp)
	addd	(r9,r8),(r3,r2)
	stord	(r3,r2),0x40(sp)
	cmpd	$4,r13
	beq	0000BDDA

l0000BCFC:
	loadb	4(r5,r4),r0
	movzb	r0,(r1,r0)
	movzw	r0,(r1,r0)
	addd	(r1,r0),(r9,r8)
	stord	(r9,r8),(sp)
	addd	(r9,r8),(r3,r2)
	stord	(r3,r2),0x40(sp)
	cmpd	$5,r13
	beq	0000BDDA

l0000BD10:
	loadb	5(r5,r4),r0
	movzb	r0,(r1,r0)
	movzw	r0,(r1,r0)
	addd	(r1,r0),(r9,r8)
	stord	(r9,r8),(sp)
	addd	(r9,r8),(r3,r2)
	stord	(r3,r2),0x40(sp)
	cmpd	$6,r13
	beq	0000BDDA

l0000BD24:
	loadb	6(r5,r4),r0
	movzb	r0,(r1,r0)
	movzw	r0,(r1,r0)
	addd	(r1,r0),(r9,r8)
	stord	(r9,r8),(sp)
	addd	(r9,r8),(r3,r2)
	stord	(r3,r2),0x40(sp)
	cmpd	$7,r13
	beq	0000BDDA

l0000BD38:
	loadb	7(r5,r4),r0
	movzb	r0,(r1,r0)
	movzw	r0,(r1,r0)
	addd	(r1,r0),(r9,r8)
	stord	(r9,r8),(sp)
	addd	(r9,r8),(r3,r2)
	stord	(r3,r2),0x40(sp)
	cmpd	$8,r13
	beq	0000BDDA

l0000BD4C:
	loadb	8(r5,r4),r0
	movzb	r0,(r1,r0)
	movzw	r0,(r1,r0)
	addd	(r1,r0),(r9,r8)
	stord	(r9,r8),(sp)
	addd	(r9,r8),(r3,r2)
	stord	(r3,r2),0x40(sp)
	cmpd	$9,r13
	beq	0000BDDA

l0000BD62:
	loadb	9(r5,r4),r0
	movzb	r0,(r1,r0)
	movzw	r0,(r1,r0)
	addd	(r1,r0),(r9,r8)
	stord	(r9,r8),(sp)
	addd	(r9,r8),(r3,r2)
	stord	(r3,r2),0x40(sp)
	cmpd	$A,r13
	beq	0000BDDA

l0000BD76:
	loadb	0xA(r5,r4),r0
	movzb	r0,(r1,r0)
	movzw	r0,(r1,r0)
	addd	(r1,r0),(r9,r8)
	stord	(r9,r8),(sp)
	addd	(r9,r8),(r3,r2)
	stord	(r3,r2),0x40(sp)
	cmpd	$B,r13
	beq	0000BDDA

l0000BD8C:
	loadb	0xB(r5,r4),r0
	movzb	r0,(r1,r0)
	movzw	r0,(r1,r0)
	addd	(r1,r0),(r9,r8)
	stord	(r9,r8),(sp)
	addd	(r9,r8),(r3,r2)
	stord	(r3,r2),0x40(sp)
	cmpd	$C,r13
	beq	0000BDDA

l0000BDA0:
	loadb	0xC(r5,r4),r0
	movzb	r0,(r1,r0)
	movzw	r0,(r1,r0)
	addd	(r1,r0),(r9,r8)
	stord	(r9,r8),(sp)
	addd	(r9,r8),(r3,r2)
	stord	(r3,r2),0x40(sp)
	cmpd	$D,r13
	beq	0000BDDA

l0000BDB4:
	loadb	0xD(r5,r4),r0
	movzb	r0,(r1,r0)
	movzw	r0,(r1,r0)
	addd	(r1,r0),(r9,r8)
	stord	(r9,r8),(sp)
	addd	(r9,r8),(r3,r2)
	stord	(r3,r2),0x40(sp)
	cmpd	$E,r13
	beq	0000BDDA

l0000BDC8:
	loadb	0xE(r5,r4),r0
	movzb	r0,(r1,r0)
	movzw	r0,(r1,r0)
	addd	(r1,r0),(r9,r8)
	stord	(r9,r8),(sp)
	addd	(r9,r8),(r3,r2)
	stord	(r3,r2),0x40(sp)

l0000BDDA:
	loadd	(sp),(r9,r8)
	cmpd	$FFF0,(r9,r8)
	bhs	0000BDEC

l0000BDE4:
	addd	$FFFF000F,(r9,r8)
	stord	(r9,r8),(sp)

l0000BDEC:
	movd	$FFF1,(r5,r4)
	loadd	0x40(sp),(r3,r2)
	bal	ra,fn0000D4EC
	movw	r0,r2
	movd	$0,(r1,r0)
	movw	r2,r1
	ord	(r9,r8),(r1,r0)
	addd	$56,sp
	pop	$7,r7
	popret	$2,r13,ra

l0000BE0A:
	stord	(r9,r8),(sp)
	cmpd	$0,r13
	beq	0000C0B6

l0000BE12:
	cmpd	$F,r13
	bhs	0000C0E0

l0000BE18:
	loadd	0x58(sp),(r1,r0)
	addd	$-16,(r1,r0)
	movd	(r3,r2),(r1,r0)
	lshd	$-28,(r3,r2)
	stord	(r3,r2),0x60(sp)
	movd	(r1,r0),(r3,r2)
	addd	$1,(r1,r0)
	ashud	$4,(r1,r0)
	movd	(r4,r3),r12
	addd	(r1,r0),(r4,r3)
	stord	(r4,r3),0x50(sp)

l0000BE36:
	loadb	(r12),r0
	movzb	r0,(r1,r0)
	movzw	r0,(r1,r0)
	loadd	(sp),(r9,r8)
	addd	(r1,r0),(r9,r8)
	stord	(r9,r8),0x68(sp)
	loadb	1(r12),r6
	movzb	r6,(r7,r6)
	movzw	r6,(r7,r6)
	addd	(r9,r8),(r7,r6)
	loadb	2(r12),r4
	movzb	r4,(r5,r4)
	movzw	r4,(r5,r4)
	addd	(r7,r6),(r5,r4)
	loadb	3(r12),r2
	movzb	r2,(r3,r2)
	movzw	r2,(r3,r2)
	addd	(r5,r4),(r3,r2)
	loadb	4(r12),r10
	movzb	r10,(r11,r10)
	movzw	r10,(r11,r10)
	addd	(r3,r2),(r11,r10)
	loadb	5(r12),r8
	movzb	r8,(r9,r8)
	movzw	r8,ra
	addd	(r11,r10),ra
	loadb	6(r12),r8
	movzb	r8,(r9,r8)
	movzw	r8,r13
	addd	ra,r13
	loadb	7(r12),r8
	movzb	r8,(r1,r0)
	movzw	r0,(r1,r0)
	movd	(r9,r8),(r1,r0)
	addd	r13,(r9,r8)
	stord	(r9,r8),4(sp)
	loadb	8(r12),r8
	movzb	r8,(r1,r0)
	movzw	r0,(r9,r8)
	loadd	4(sp),(r1,r0)
	addd	(r9,r8),(r1,r0)
	stord	(r1,r0),8(sp)
	loadb	9(r12),r8
	movzb	r8,(r9,r8)
	movzw	r8,(r1,r0)
	loadd	8(sp),(r9,r8)
	addd	(r1,r0),(r9,r8)
	stord	(r9,r8),0xC(sp)
	loadb	0xA(r12),r8
	movzb	r8,(r9,r8)
	movzw	r8,(r1,r0)
	loadd	0xC(sp),(r9,r8)
	addd	(r1,r0),(r9,r8)
	stord	(r9,r8),0x10(sp)
	loadb	0xB(r12),r8
	movzb	r8,(r9,r8)
	movzw	r8,(r1,r0)
	loadd	0x10(sp),(r9,r8)
	addd	(r1,r0),(r9,r8)
	stord	(r9,r8),0x14(sp)
	loadb	0xC(r12),r8
	movzb	r8,(r9,r8)
	movzw	r8,(r1,r0)
	loadd	0x14(sp),(r9,r8)
	addd	(r1,r0),(r9,r8)
	stord	(r9,r8),0x18(sp)
	loadb	0xD(r12),r8
	movzb	r8,(r9,r8)
	movzw	r8,(r1,r0)
	loadd	0x18(sp),(r9,r8)
	addd	(r1,r0),(r9,r8)
	stord	(r9,r8),0x38(sp)
	loadb	0xE(r12),r8
	movzb	r8,(r9,r8)
	movzw	r8,(r1,r0)
	loadd	0x38(sp),(r9,r8)
	addd	(r1,r0),(r9,r8)
	stord	(r9,r8),0x48(sp)
	loadb	0xF(r12),r8
	movzb	r8,(r9,r8)
	movzw	r8,(r1,r0)
	loadd	0x48(sp),(r9,r8)
	addd	(r1,r0),(r9,r8)
	stord	(r9,r8),(sp)
	loadd	0x68(sp),(r1,r0)
	addd	(r7,r6),(r1,r0)
	addd	(r5,r4),(r1,r0)
	addd	(r3,r2),(r1,r0)
	addd	(r11,r10),(r1,r0)
	addd	ra,(r1,r0)
	addd	r13,(r1,r0)
	loadd	4(sp),r13
	addd	r13,(r1,r0)
	loadd	8(sp),(r3,r2)
	addd	(r3,r2),(r1,r0)
	loadd	0xC(sp),(r4,r3)
	addd	(r4,r3),(r1,r0)
	loadd	0x10(sp),(r5,r4)
	addd	(r5,r4),(r1,r0)
	loadd	0x14(sp),(r9,r8)
	addd	(r9,r8),(r1,r0)
	loadd	0x18(sp),r13
	addd	r13,(r1,r0)
	loadd	0x38(sp),(r9,r8)
	addd	(r1,r0),(r9,r8)
	loadd	0x48(sp),(r1,r0)
	addd	(r1,r0),(r9,r8)
	loadd	(sp),(r2,r1)
	addd	(r2,r1),(r9,r8)
	loadd	0x40(sp),r13
	addd	(r9,r8),r13
	stord	r13,0x40(sp)
	addd	$16,r12
	loadd	0x50(sp),(r1,r0)
	cmpd	r12,(r1,r0)
	bne	0000BE36

l0000BF3C:
	loadd	0x58(sp),(r3,r2)
	addd	$-17,(r3,r2)
	loadd	0x60(sp),(r1,r0)
	ashud	$4,(r1,r0)
	subd	(r3,r2),(r1,r0)
	loadd	0x58(sp),(r1,r0)
	andd	$F,(r1,r0)
	cmpd	$0,(r1,r0)
	beq	0000C098

l0000BF5E:
	loadb	(r12),r0
	movzb	r0,(r1,r0)
	movzw	r0,(r1,r0)
	loadd	(sp),(r9,r8)
	addd	(r1,r0),(r9,r8)
	stord	(r9,r8),(sp)
	loadd	0x40(sp),(r1,r0)
	addd	(r9,r8),(r1,r0)
	stord	(r1,r0),0x40(sp)
	cmpd	$0,(r3,r2)
	beq	0000C098

l0000BF7A:
	movd	(r5,r4),(r1,r0)
	loadb	1(r12),r0
	movzb	r0,(r1,r0)
	movzw	r0,(r1,r0)
	addd	(r1,r0),(r9,r8)
	stord	(r9,r8),(sp)
	addd	(r9,r8),(r5,r4)
	stord	(r5,r4),0x40(sp)
	cmpd	$1,(r3,r2)
	beq	0000C098

l0000BF92:
	loadb	2(r12),r0
	movzb	r0,(r1,r0)
	movzw	r0,(r1,r0)
	addd	(r1,r0),(r9,r8)
	stord	(r9,r8),(sp)
	addd	(r9,r8),(r5,r4)
	stord	(r5,r4),0x40(sp)
	cmpd	$2,(r3,r2)
	beq	0000C098

l0000BFA6:
	loadb	3(r12),r0
	movzb	r0,(r1,r0)
	movzw	r0,(r1,r0)
	addd	(r1,r0),(r9,r8)
	stord	(r9,r8),(sp)
	addd	(r9,r8),(r5,r4)
	stord	(r5,r4),0x40(sp)
	cmpd	$3,(r3,r2)
	beq	0000C098

l0000BFBA:
	loadb	4(r12),r0
	movzb	r0,(r1,r0)
	movzw	r0,(r1,r0)
	addd	(r1,r0),(r9,r8)
	stord	(r9,r8),(sp)
	addd	(r9,r8),(r5,r4)
	stord	(r5,r4),0x40(sp)
	cmpd	$4,(r3,r2)
	beq	0000C098

l0000BFCE:
	loadb	5(r12),r0
	movzb	r0,(r1,r0)
	movzw	r0,(r1,r0)
	addd	(r1,r0),(r9,r8)
	stord	(r9,r8),(sp)
	addd	(r9,r8),(r5,r4)
	stord	(r5,r4),0x40(sp)
	cmpd	$5,(r3,r2)
	beq	0000C098

l0000BFE2:
	loadb	6(r12),r0
	movzb	r0,(r1,r0)
	movzw	r0,(r1,r0)
	addd	(r1,r0),(r9,r8)
	stord	(r9,r8),(sp)
	addd	(r9,r8),(r5,r4)
	stord	(r5,r4),0x40(sp)
	cmpd	$6,(r3,r2)
	beq	0000C098

l0000BFF6:
	loadb	7(r12),r0
	movzb	r0,(r1,r0)
	movzw	r0,(r1,r0)
	addd	(r1,r0),(r9,r8)
	stord	(r9,r8),(sp)
	addd	(r9,r8),(r5,r4)
	stord	(r5,r4),0x40(sp)
	cmpd	$7,(r3,r2)
	beq	0000C098

l0000C00A:
	loadb	8(r12),r0
	movzb	r0,(r1,r0)
	movzw	r0,(r1,r0)
	addd	(r1,r0),(r9,r8)
	stord	(r9,r8),(sp)
	addd	(r9,r8),(r5,r4)
	stord	(r5,r4),0x40(sp)
	cmpd	$8,(r3,r2)
	beq	0000C098

l0000C01E:
	loadb	9(r12),r0
	movzb	r0,(r1,r0)
	movzw	r0,(r1,r0)
	addd	(r1,r0),(r9,r8)
	stord	(r9,r8),(sp)
	addd	(r9,r8),(r5,r4)
	stord	(r5,r4),0x40(sp)
	cmpd	$9,(r3,r2)
	beq	0000C098

l0000C034:
	loadb	0xA(r12),r0
	movzb	r0,(r1,r0)
	movzw	r0,(r1,r0)
	addd	(r1,r0),(r9,r8)
	stord	(r9,r8),(sp)
	addd	(r9,r8),(r5,r4)
	stord	(r5,r4),0x40(sp)
	cmpd	$A,(r3,r2)
	beq	0000C098

l0000C048:
	loadb	0xB(r12),r0
	movzb	r0,(r1,r0)
	movzw	r0,(r1,r0)
	addd	(r1,r0),(r9,r8)
	stord	(r9,r8),(sp)
	addd	(r9,r8),(r5,r4)
	stord	(r5,r4),0x40(sp)
	cmpd	$B,(r3,r2)
	beq	0000C098

l0000C05E:
	loadb	0xC(r12),r0
	movzb	r0,(r1,r0)
	movzw	r0,(r1,r0)
	addd	(r1,r0),(r9,r8)
	stord	(r9,r8),(sp)
	addd	(r9,r8),(r5,r4)
	stord	(r5,r4),0x40(sp)
	cmpd	$C,(r3,r2)
	beq	0000C098

l0000C072:
	loadb	0xD(r12),r0
	movzb	r0,(r1,r0)
	movzw	r0,(r1,r0)
	addd	(r1,r0),(r9,r8)
	stord	(r9,r8),(sp)
	addd	(r9,r8),(r5,r4)
	stord	(r5,r4),0x40(sp)
	cmpd	$D,(r3,r2)
	beq	0000C098

l0000C086:
	loadb	0xE(r12),r0
	movzb	r0,(r1,r0)
	movzw	r0,(r1,r0)
	addd	(r1,r0),(r9,r8)
	stord	(r9,r8),(sp)
	addd	(r9,r8),(r5,r4)
	stord	(r5,r4),0x40(sp)

l0000C098:
	movd	$FFF1,(r5,r4)
	loadd	(sp),(r3,r2)
	bal	ra,fn0000D4EC
	stord	(r1,r0),(sp)
	movd	$FFF1,(r5,r4)
	loadd	0x40(sp),(r3,r2)
	bal	ra,fn0000D4EC
	stord	(r1,r0),0x40(sp)
	loadd	(sp),(r9,r8)

l0000C0B6:
	ashud	$16,(r1,r0)
	ord	(r9,r8),(r1,r0)
	addd	$56,sp
	pop	$7,r7
	popret	$2,r13,ra

l0000C0C4:
	movd	$1,(r1,r0)
	addd	$56,sp
	pop	$7,r7
	popret	$2,r13,ra

l0000C0CE:
	addd	$FFFF000F,(r3,r2)
	br	0000BC74

l0000C0D8:
	stord	r13,0x58(sp)
	br	0000BE18

l0000C0E0:
	loadd	0x50(sp),(r3,r2)
	addd	$-5553,(r3,r2)
	br	0000BF5E
0000C0EC                                     00 00                   ..  

;; fn0000C0EE: 0000C0EE
;;   Called from:
;;     00003376 (in fn000030F2)
;;     000036C8 (in fn000033F8)
;;     00003914 (in fn000033F8)
;;     0000474C (in fn000046AC)
;;     0000483C (in fn00004794)
;;     00005038 (in fn00004CD4)
fn0000C0EE proc
	push	$2,ra
	push	$1,r7
	movzw	r6,(r7,r6)
	push	$2,r6
	bal	ra,fn0000BAE0
	addd	$4,sp
	pop	$1,r7
	popret	$2,ra
0000C100 00 00 9D 01 58 01 28 55 4A 55 06 52 60 14 C0 05 ....X.(UJU.R`...
0000C110 FF FF 14 00 2C B0 6D 5E D4 55 C2 55 00 C0 3C 12 ....,.m^.U.U..<.
0000C120 02 55 00 05 FF FF 14 00 A0 B0 0C 61 08 4B 14 00 .U.........a.K..
0000C130 D8 C0 0A 4B 8A 61 40 05 F1 FF 00 C0 B2 13 0A 61 ...K.a@........a
0000C140 20 05 F1 FF A2 61 0C 56 0F 11 90 54 C0 61 90 00  ....a.V...T.a..
0000C150 00 00 F0 FF B5 10 70 00 FF FF 0E 00 C0 61 92 00 ......p......a..
0000C160 01 00 E1 FF B5 10 72 00 FF FF 0F 00 A2 61 92 00 ......r......a..
0000C170 00 00 F0 FF B4 10 22 00 FF FF 0F 00 02 4D 14 00 ......"......M..
0000C180 20 90 58 02 9D 03 00 05 F0 FF EA 1E 90 54 58 02  .X..........TX.
0000C190 9D 03 00 00 9D 01 58 01 28 55 4A 55 06 52 60 14 ......X.(UJU.R`.
0000C1A0 C0 05 FF FF 14 00 2C B0 6D 5E D4 55 C2 55 00 C0 ......,.m^.U.U..
0000C1B0 AA 11 02 55 00 05 FF FF 14 00 A0 B0 0C 61 08 4B ...U.........a.K
0000C1C0 14 00 D8 C0 0A 4B 8A 61 40 05 F1 FF 00 C0 20 13 .....K.a@..... .
0000C1D0 0A 61 20 05 F1 FF A2 61 0C 56 0F 11 90 54 C0 61 .a ....a.V...T.a
0000C1E0 90 00 00 00 F0 FF B5 10 70 00 FF FF 0E 00 C0 61 ........p......a
0000C1F0 92 00 01 00 E1 FF B5 10 72 00 FF FF 0F 00 A2 61 ........r......a
0000C200 92 00 00 00 F0 FF B4 10 22 00 FF FF 0F 00 02 4D ........"......M
0000C210 14 00 20 90 58 02 9D 03 00 05 F0 FF EA 1E 90 54 .. .X..........T
0000C220 58 02 9D 03                                     X...            

;; fn0000C224: 0000C224
;;   Called from:
;;     0000CB04 (in fn0000CAF8)
fn0000C224 proc
	push	$2,r13,ra
	push	$7,r7
	movd	$16,r12
	addd	sp,r12
	loadd	(r12),r12
	movd	(r1,r0),(r3,r2)
	xord	$FFFFFFFF,(r1,r0)
	cmpd	$0,r12
	beq	0000C27E

l0000C23C:
	movd	$3,(r3,r2)
	andd	(r5,r4),(r3,r2)
	cmpd	$0,(r3,r2)
	beq	0000C288

l0000C246:
	movd	$FC78,ra
	br	0000C258

l0000C24C:
	movd	(r5,r4),r13
	movd	$3,(r3,r2)
	andd	r13,(r3,r2)
	cmpd	$0,(r3,r2)
	beq	0000C28A

l0000C258:
	movd	$1,r13
	addd	(r5,r4),r13
	loadb	(r5,r4),r2
	movzb	r2,(r3,r2)
	movzw	r2,(r3,r2)
	xord	(r1,r0),(r3,r2)
	andd	$FF,(r3,r2)
	ashud	$2,(r3,r2)
	addd	ra,(r3,r2)
	loadd	(r3,r2),(r3,r2)
	lshd	$-24,(r1,r0)
	xord	(r3,r2),(r1,r0)
	addd	$-1,r12
	cmpd	$0,r12
	bne	0000C24C

l0000C27E:
	xord	$FFFFFFFF,(r1,r0)
	pop	$7,r7
	popret	$2,r13,ra

l0000C288:
	movd	r13,(r5,r4)

l0000C28A:
	cmpd	$1F,r12
	bhs	0000C55C

l0000C292:
	movd	(r11,r10),r13
	movd	$FFE0,(r3,r2)
	addd	r12,(r3,r2)
	andd	$FFFFFFE0,(r3,r2)
	addd	$32,(r3,r2)
	addd	(r3,r2),r13
	movd	$FC78,ra

l0000C2AA:
	loadd	(r11,r10),(r3,r2)
	xord	(r3,r2),(r1,r0)
	movd	(r3,r2),(r1,r0)
	lshd	$-16,(r3,r2)
	andd	$FF,(r3,r2)
	addd	$256,(r3,r2)
	ashud	$2,(r3,r2)
	addd	ra,(r3,r2)
	loadd	(r3,r2),(r7,r6)
	movd	$FF,(r3,r2)
	andd	(r1,r0),(r3,r2)
	addd	$768,(r3,r2)
	ashud	$2,(r3,r2)
	addd	ra,(r3,r2)
	movd	(r5,r4),(r1,r0)
	lshd	$-8,(r5,r4)
	ashud	$2,(r5,r4)
	addd	ra,(r5,r4)
	loadd	(r3,r2),(r3,r2)
	loadd	(r5,r4),(r5,r4)
	xord	(r3,r2),(r5,r4)
	loadd	4(r11,r10),(r3,r2)
	xord	(r5,r4),(r3,r2)
	lshd	$-24,(r1,r0)
	andd	$FF,(r1,r0)
	addd	$512,(r1,r0)
	ashud	$2,(r1,r0)
	addd	ra,(r1,r0)
	loadd	(r1,r0),(r5,r4)
	xord	(r5,r4),(r3,r2)
	xord	(r3,r2),(r7,r6)
	movd	(r1,r0),(r7,r6)
	lshd	$-16,(r1,r0)
	andd	$FF,(r1,r0)
	addd	$256,(r1,r0)
	ashud	$2,(r1,r0)
	addd	ra,(r1,r0)
	loadd	(r1,r0),(r9,r8)
	movd	$FF,(r1,r0)
	andd	(r7,r6),(r1,r0)
	addd	$768,(r1,r0)
	ashud	$2,(r1,r0)
	addd	ra,(r1,r0)
	movd	(r3,r2),(r7,r6)
	lshd	$-8,(r3,r2)
	ashud	$2,(r3,r2)
	addd	ra,(r3,r2)
	loadd	(r1,r0),(r1,r0)
	loadd	(r3,r2),(r3,r2)
	xord	(r1,r0),(r3,r2)
	loadd	8(r11,r10),(r1,r0)
	xord	(r3,r2),(r1,r0)
	lshd	$-24,(r7,r6)
	andd	$FF,(r7,r6)
	addd	$512,(r7,r6)
	ashud	$2,(r7,r6)
	addd	ra,(r7,r6)
	loadd	(r7,r6),(r3,r2)
	xord	(r3,r2),(r1,r0)
	xord	(r1,r0),(r9,r8)
	movd	(r1,r0),(r9,r8)
	lshd	$-16,(r1,r0)
	andd	$FF,(r1,r0)
	addd	$256,(r1,r0)
	ashud	$2,(r1,r0)
	addd	ra,(r1,r0)
	loadd	(r1,r0),(r7,r6)
	movd	$FF,(r1,r0)
	andd	(r9,r8),(r1,r0)
	addd	$768,(r1,r0)
	ashud	$2,(r1,r0)
	addd	ra,(r1,r0)
	movd	(r3,r2),(r9,r8)
	lshd	$-8,(r3,r2)
	ashud	$2,(r3,r2)
	addd	ra,(r3,r2)
	loadd	(r1,r0),(r1,r0)
	loadd	(r3,r2),(r5,r4)
	xord	(r5,r4),(r1,r0)
	loadd	0xC(r11,r10),(r5,r4)
	xord	(r1,r0),(r5,r4)
	lshd	$-24,(r9,r8)
	andd	$FF,(r9,r8)
	addd	$512,(r9,r8)
	ashud	$2,(r9,r8)
	addd	ra,(r9,r8)
	loadd	(r9,r8),(r1,r0)
	xord	(r1,r0),(r5,r4)
	xord	(r5,r4),(r7,r6)
	movd	(r1,r0),(r7,r6)
	lshd	$-16,(r1,r0)
	andd	$FF,(r1,r0)
	addd	$256,(r1,r0)
	ashud	$2,(r1,r0)
	addd	ra,(r1,r0)
	loadd	(r1,r0),(r9,r8)
	movd	$FF,(r1,r0)
	andd	(r7,r6),(r1,r0)
	addd	$768,(r1,r0)
	ashud	$2,(r1,r0)
	addd	ra,(r1,r0)
	movd	(r5,r4),(r7,r6)
	lshd	$-8,(r5,r4)
	ashud	$2,(r5,r4)
	addd	ra,(r5,r4)
	loadd	(r1,r0),(r1,r0)
	loadd	(r5,r4),(r3,r2)
	xord	(r3,r2),(r1,r0)
	loadd	0x10(r11,r10),(r3,r2)
	xord	(r1,r0),(r3,r2)
	lshd	$-24,(r7,r6)
	andd	$FF,(r7,r6)
	addd	$512,(r7,r6)
	ashud	$2,(r7,r6)
	addd	ra,(r7,r6)
	loadd	(r7,r6),(r1,r0)
	xord	(r1,r0),(r3,r2)
	xord	(r3,r2),(r9,r8)
	movd	(r1,r0),(r9,r8)
	lshd	$-16,(r1,r0)
	andd	$FF,(r1,r0)
	addd	$256,(r1,r0)
	ashud	$2,(r1,r0)
	addd	ra,(r1,r0)
	loadd	(r1,r0),(r7,r6)
	movd	$FF,(r1,r0)
	andd	(r9,r8),(r1,r0)
	addd	$768,(r1,r0)
	ashud	$2,(r1,r0)
	addd	ra,(r1,r0)
	movd	(r3,r2),(r9,r8)
	lshd	$-8,(r3,r2)
	ashud	$2,(r3,r2)
	addd	ra,(r3,r2)
	loadd	(r1,r0),(r1,r0)
	loadd	(r3,r2),(r5,r4)
	xord	(r5,r4),(r1,r0)
	loadd	0x14(r11,r10),(r5,r4)
	xord	(r1,r0),(r5,r4)
	lshd	$-24,(r9,r8)
	andd	$FF,(r9,r8)
	addd	$512,(r9,r8)
	ashud	$2,(r9,r8)
	addd	ra,(r9,r8)
	loadd	(r9,r8),(r1,r0)
	xord	(r1,r0),(r5,r4)
	xord	(r5,r4),(r7,r6)
	movd	(r1,r0),(r7,r6)
	lshd	$-16,(r1,r0)
	andd	$FF,(r1,r0)
	addd	$256,(r1,r0)
	ashud	$2,(r1,r0)
	addd	ra,(r1,r0)
	loadd	(r1,r0),(r9,r8)
	movd	$FF,(r1,r0)
	andd	(r7,r6),(r1,r0)
	addd	$768,(r1,r0)
	ashud	$2,(r1,r0)
	addd	ra,(r1,r0)
	movd	(r5,r4),(r7,r6)
	lshd	$-8,(r5,r4)
	ashud	$2,(r5,r4)
	addd	ra,(r5,r4)
	loadd	(r1,r0),(r1,r0)
	loadd	(r5,r4),(r3,r2)
	xord	(r3,r2),(r1,r0)
	loadd	0x18(r11,r10),(r3,r2)
	xord	(r1,r0),(r3,r2)
	lshd	$-24,(r7,r6)
	andd	$FF,(r7,r6)
	addd	$512,(r7,r6)
	ashud	$2,(r7,r6)
	addd	ra,(r7,r6)
	loadd	(r7,r6),(r1,r0)
	xord	(r1,r0),(r3,r2)
	xord	(r3,r2),(r9,r8)
	movd	(r1,r0),(r9,r8)
	lshd	$-16,(r1,r0)
	andd	$FF,(r1,r0)
	addd	$256,(r1,r0)
	ashud	$2,(r1,r0)
	addd	ra,(r1,r0)
	loadd	(r1,r0),(r7,r6)
	movd	$FF,(r1,r0)
	andd	(r9,r8),(r1,r0)
	addd	$768,(r1,r0)
	ashud	$2,(r1,r0)
	addd	ra,(r1,r0)
	movd	(r5,r4),(r9,r8)
	lshd	$-8,(r5,r4)
	ashud	$2,(r5,r4)
	addd	ra,(r5,r4)
	loadd	(r1,r0),(r1,r0)
	loadd	(r5,r4),(r3,r2)
	xord	(r3,r2),(r1,r0)
	loadd	0x38(r11,r10),(r3,r2)
	xord	(r1,r0),(r3,r2)
	lshd	$-24,(r9,r8)
	andd	$FF,(r9,r8)
	addd	$512,(r9,r8)
	ashud	$2,(r9,r8)
	addd	ra,(r9,r8)
	loadd	(r9,r8),(r1,r0)
	xord	(r1,r0),(r3,r2)
	xord	(r7,r6),(r3,r2)
	movd	(r1,r0),(r3,r2)
	lshd	$-16,(r1,r0)
	andd	$FF,(r1,r0)
	addd	$256,(r1,r0)
	ashud	$2,(r1,r0)
	addd	ra,(r1,r0)
	loadd	(r1,r0),(r7,r6)
	movd	$FF,(r1,r0)
	andd	(r3,r2),(r1,r0)
	addd	$768,(r1,r0)
	ashud	$2,(r1,r0)
	addd	ra,(r1,r0)
	movd	(r5,r4),(r3,r2)
	lshd	$-8,(r5,r4)
	ashud	$2,(r5,r4)
	addd	ra,(r5,r4)
	loadd	(r1,r0),(r1,r0)
	loadd	(r5,r4),(r5,r4)
	xord	(r5,r4),(r1,r0)
	lshd	$-24,(r3,r2)
	andd	$FF,(r3,r2)
	addd	$512,(r3,r2)
	ashud	$2,(r3,r2)
	addd	ra,(r3,r2)
	loadd	(r3,r2),(r5,r4)
	xord	(r5,r4),(r1,r0)
	xord	(r7,r6),(r1,r0)
	addd	$32,(r11,r10)
	cmpd	r13,(r11,r10)
	bne	0000C2AA

l0000C556:
	andd	$1F,r12

l0000C55C:
	cmpd	$3,r12
	bhs	0000C80C

l0000C562:
	loadd	(r13),(r3,r2)
	xord	(r3,r2),(r1,r0)
	movd	$FC78,(r11,r10)
	movd	(r3,r2),(r1,r0)
	lshd	$-16,(r3,r2)
	andd	$FF,(r3,r2)
	addd	$256,(r3,r2)
	ashud	$2,(r3,r2)
	addd	(r11,r10),(r3,r2)
	loadd	(r3,r2),(r9,r8)
	movd	(r3,r2),(r1,r0)
	lshd	$-8,(r3,r2)
	ashud	$2,(r3,r2)
	addd	(r11,r10),(r3,r2)
	movd	$FF,(r5,r4)
	andd	(r1,r0),(r5,r4)
	addd	$768,(r5,r4)
	ashud	$2,(r5,r4)
	addd	(r11,r10),(r5,r4)
	loadd	(r3,r2),(r3,r2)
	loadd	(r5,r4),(r7,r6)
	xord	(r7,r6),(r3,r2)
	lshd	$-24,(r1,r0)
	andd	$FF,(r1,r0)
	addd	$512,(r1,r0)
	ashud	$2,(r1,r0)
	addd	(r11,r10),(r1,r0)
	loadd	(r1,r0),(r1,r0)
	xord	(r3,r2),(r1,r0)
	xord	(r9,r8),(r1,r0)
	movd	$FFFC,ra
	addd	r12,ra
	cmpd	$3,ra
	bhs	0000C7FC

l0000C5C6:
	loadd	4(r13),(r3,r2)
	xord	(r3,r2),(r1,r0)
	movd	(r3,r2),(r1,r0)
	lshd	$-16,(r3,r2)
	andd	$FF,(r3,r2)
	addd	$256,(r3,r2)
	ashud	$2,(r3,r2)
	addd	(r11,r10),(r3,r2)
	loadd	(r3,r2),(r9,r8)
	movd	(r3,r2),(r1,r0)
	lshd	$-8,(r3,r2)
	ashud	$2,(r3,r2)
	addd	(r11,r10),(r3,r2)
	movd	$FF,(r5,r4)
	andd	(r1,r0),(r5,r4)
	addd	$768,(r5,r4)
	ashud	$2,(r5,r4)
	addd	(r11,r10),(r5,r4)
	loadd	(r3,r2),(r3,r2)
	loadd	(r5,r4),(r7,r6)
	xord	(r7,r6),(r3,r2)
	lshd	$-24,(r1,r0)
	andd	$FF,(r1,r0)
	addd	$512,(r1,r0)
	ashud	$2,(r1,r0)
	addd	(r11,r10),(r1,r0)
	loadd	(r1,r0),(r1,r0)
	xord	(r3,r2),(r1,r0)
	xord	(r9,r8),(r1,r0)
	movd	$FFF8,(r3,r2)
	addd	r12,(r3,r2)
	cmpd	$3,(r3,r2)
	bhs	0000C7FC

l0000C626:
	loadd	8(r13),(r3,r2)
	xord	(r3,r2),(r1,r0)
	movd	(r3,r2),(r1,r0)
	lshd	$-16,(r3,r2)
	andd	$FF,(r3,r2)
	addd	$256,(r3,r2)
	ashud	$2,(r3,r2)
	addd	(r11,r10),(r3,r2)
	loadd	(r3,r2),(r9,r8)
	movd	(r3,r2),(r1,r0)
	lshd	$-8,(r3,r2)
	ashud	$2,(r3,r2)
	addd	(r11,r10),(r3,r2)
	movd	$FF,(r5,r4)
	andd	(r1,r0),(r5,r4)
	addd	$768,(r5,r4)
	ashud	$2,(r5,r4)
	addd	(r11,r10),(r5,r4)
	loadd	(r3,r2),(r3,r2)
	loadd	(r5,r4),(r7,r6)
	xord	(r7,r6),(r3,r2)
	lshd	$-24,(r1,r0)
	andd	$FF,(r1,r0)
	addd	$512,(r1,r0)
	ashud	$2,(r1,r0)
	addd	(r11,r10),(r1,r0)
	loadd	(r1,r0),(r1,r0)
	xord	(r3,r2),(r1,r0)
	xord	(r9,r8),(r1,r0)
	movd	$FFF4,(r3,r2)
	addd	r12,(r3,r2)
	cmpd	$3,(r3,r2)
	bhs	0000C7FC

l0000C686:
	loadd	0xC(r13),(r7,r6)
	xord	(r1,r0),(r7,r6)
	movd	(r1,r0),(r7,r6)
	lshd	$-16,(r1,r0)
	andd	$FF,(r1,r0)
	addd	$256,(r1,r0)
	ashud	$2,(r1,r0)
	addd	(r11,r10),(r1,r0)
	loadd	(r1,r0),(r9,r8)
	movd	(r1,r0),(r7,r6)
	lshd	$-8,(r1,r0)
	ashud	$2,(r1,r0)
	addd	(r11,r10),(r1,r0)
	movd	$FF,(r5,r4)
	andd	(r7,r6),(r5,r4)
	addd	$768,(r5,r4)
	ashud	$2,(r5,r4)
	addd	(r11,r10),(r5,r4)
	loadd	(r1,r0),(r1,r0)
	loadd	(r5,r4),(r3,r2)
	xord	(r1,r0),(r3,r2)
	movd	(r1,r0),(r7,r6)
	lshd	$-24,(r1,r0)
	andd	$FF,(r1,r0)
	addd	$512,(r1,r0)
	ashud	$2,(r1,r0)
	addd	(r11,r10),(r1,r0)
	loadd	(r1,r0),(r1,r0)
	xord	(r3,r2),(r1,r0)
	xord	(r9,r8),(r1,r0)
	movd	$FFF0,(r3,r2)
	addd	r12,(r3,r2)
	cmpd	$3,(r3,r2)
	bhs	0000C7FC

l0000C6E8:
	loadd	0x10(r13),(r7,r6)
	xord	(r1,r0),(r7,r6)
	movd	(r1,r0),(r7,r6)
	lshd	$-16,(r1,r0)
	andd	$FF,(r1,r0)
	addd	$256,(r1,r0)
	ashud	$2,(r1,r0)
	addd	(r11,r10),(r1,r0)
	loadd	(r1,r0),(r9,r8)
	movd	(r1,r0),(r7,r6)
	lshd	$-8,(r1,r0)
	ashud	$2,(r1,r0)
	addd	(r11,r10),(r1,r0)
	movd	$FF,(r5,r4)
	andd	(r7,r6),(r5,r4)
	addd	$768,(r5,r4)
	ashud	$2,(r5,r4)
	addd	(r11,r10),(r5,r4)
	loadd	(r1,r0),(r1,r0)
	loadd	(r5,r4),(r3,r2)
	xord	(r1,r0),(r3,r2)
	movd	(r1,r0),(r7,r6)
	lshd	$-24,(r1,r0)
	andd	$FF,(r1,r0)
	addd	$512,(r1,r0)
	ashud	$2,(r1,r0)
	addd	(r11,r10),(r1,r0)
	loadd	(r1,r0),(r1,r0)
	xord	(r3,r2),(r1,r0)
	xord	(r9,r8),(r1,r0)
	movd	$FFEC,(r3,r2)
	addd	r12,(r3,r2)
	cmpd	$3,(r3,r2)
	bhs	0000C7FC

l0000C748:
	loadd	0x14(r13),(r7,r6)
	xord	(r1,r0),(r7,r6)
	movd	(r1,r0),(r7,r6)
	lshd	$-16,(r1,r0)
	andd	$FF,(r1,r0)
	addd	$256,(r1,r0)
	ashud	$2,(r1,r0)
	addd	(r11,r10),(r1,r0)
	loadd	(r1,r0),(r9,r8)
	movd	(r1,r0),(r7,r6)
	lshd	$-8,(r1,r0)
	ashud	$2,(r1,r0)
	addd	(r11,r10),(r1,r0)
	movd	$FF,(r5,r4)
	andd	(r7,r6),(r5,r4)
	addd	$768,(r5,r4)
	ashud	$2,(r5,r4)
	addd	(r11,r10),(r5,r4)
	loadd	(r1,r0),(r1,r0)
	loadd	(r5,r4),(r3,r2)
	xord	(r1,r0),(r3,r2)
	movd	(r1,r0),(r7,r6)
	lshd	$-24,(r1,r0)
	andd	$FF,(r1,r0)
	addd	$512,(r1,r0)
	ashud	$2,(r1,r0)
	addd	(r11,r10),(r1,r0)
	loadd	(r1,r0),(r1,r0)
	xord	(r3,r2),(r1,r0)
	xord	(r9,r8),(r1,r0)
	movd	$FFE8,(r3,r2)
	addd	r12,(r3,r2)
	cmpd	$3,(r3,r2)
	bhs	0000C7FC

l0000C7A8:
	loadd	0x18(r13),(r3,r2)
	xord	(r3,r2),(r1,r0)
	movd	(r3,r2),(r1,r0)
	lshd	$-16,(r3,r2)
	andd	$FF,(r3,r2)
	addd	$256,(r3,r2)
	ashud	$2,(r3,r2)
	addd	(r11,r10),(r3,r2)
	loadd	(r3,r2),(r9,r8)
	movd	$FF,(r5,r4)
	andd	(r1,r0),(r5,r4)
	addd	$768,(r5,r4)
	ashud	$2,(r5,r4)
	addd	(r11,r10),(r5,r4)
	movd	(r3,r2),(r1,r0)
	lshd	$-8,(r3,r2)
	ashud	$2,(r3,r2)
	addd	(r11,r10),(r3,r2)
	loadd	(r5,r4),(r7,r6)
	loadd	(r3,r2),(r3,r2)
	xord	(r7,r6),(r3,r2)
	lshd	$-24,(r1,r0)
	andd	$FF,(r1,r0)
	addd	$512,(r1,r0)
	ashud	$2,(r1,r0)
	addd	(r1,r0),(r11,r10)
	loadd	(r11,r10),(r1,r0)
	xord	(r3,r2),(r1,r0)
	xord	(r9,r8),(r1,r0)

l0000C7FC:
	andd	$FFFFFFFC,ra
	addd	$4,ra
	addd	ra,r13
	andd	$3,r12

l0000C80C:
	cmpd	$0,r12
	beq	0000C27E

l0000C812:
	movd	$FC78,(r5,r4)
	loadb	(r13),r2
	movzb	r2,(r3,r2)
	movzw	r2,(r3,r2)
	xord	(r1,r0),(r3,r2)
	andd	$FF,(r3,r2)
	ashud	$2,(r3,r2)
	addd	(r5,r4),(r3,r2)
	loadd	(r3,r2),(r9,r8)
	lshd	$-24,(r1,r0)
	xord	(r9,r8),(r1,r0)
	cmpd	$1,r12
	beq	0000C27E

l0000C838:
	loadb	1(r13),r2
	movzb	r2,(r3,r2)
	movzw	r2,(r3,r2)
	xord	(r1,r0),(r3,r2)
	andd	$FF,(r3,r2)
	ashud	$2,(r3,r2)
	addd	(r5,r4),(r3,r2)
	loadd	(r3,r2),(r9,r8)
	lshd	$-24,(r1,r0)
	xord	(r9,r8),(r1,r0)
	cmpd	$2,r12
	beq	0000C27E

l0000C85A:
	loadb	2(r13),r2
	movzb	r2,(r3,r2)
	movzw	r2,(r3,r2)
	xord	(r1,r0),(r3,r2)
	andd	$FF,(r3,r2)
	ashud	$2,(r3,r2)
	addd	(r3,r2),(r5,r4)
	loadd	(r5,r4),(r3,r2)
	lshd	$-24,(r1,r0)
	xord	(r3,r2),(r1,r0)
	xord	$FFFFFFFF,(r1,r0)
	pop	$7,r7
	popret	$2,r13,ra
0000C880 00 00 9D 01 67 01 BF 60 F0 FE 2E 55 4F EF 0C 01 ....g..`...UO...
0000C890 6F DF 04 01 06 52 D0 18 2E 02 70 00 B8 ED 20 83 o....R....p... .
0000C8A0 0F E0 F0 55 FF DF 08 01 1F DF 0A 01 B4 54 7C 00 ...U.........T|.
0000C8B0 F4 61 F2 55 10 54 02 E2 00 61 42 60 42 57 1C 1F .a.U.T...aB`BW..
0000C8C0 BD 54 80 00 FD 61 D8 55 0F 9F 08 01 0F DF 00 01 .T...a.U........
0000C8D0 1F 9F 0A 01 1F DF 02 01 AF AF 00 01 0A A0 06 55 ...............U
0000C8E0 00 56 00 11 06 54 F2 55 14 54 14 00 04 B0 04 56 .V...T.U.T.....V
0000C8F0 00 18 40 01 42 A0 14 00 46 A0 F0 4B 42 60 00 56 ..@.B...F..KB`.V
0000C900 14 1F 68 E0 4A 60 48 60 AD 57 19 1E AF EF 00 01 ..h.J`H`.W......
0000C910 BA 54 00 01 FA 61 8F 9F 08 01 9F 9F 0A 01 DC 55 .T...a.........U
0000C920 0C A0 06 55 00 56 00 11 06 54 D2 55 14 54 14 00 ...U.V...T.U.T..
0000C930 04 B0 04 56 00 18 16 01 42 A0 14 00 46 A0 F0 4B ...V....B...F..K
0000C940 42 60 00 56 14 1F 68 E0 4C 60 48 60 AC 57 19 1E B`.V..h.L`H`.W..
0000C950 DA 55 8F 9F 08 01 9F 9F 0A 01 08 A0 06 55 00 56 .U...........U.V
0000C960 0F 10 06 54 F2 55 14 54 14 00 04 B0 04 56 0B 14 ...T.U.T.....V..
0000C970 42 A0 14 00 46 A0 F0 4B 42 60 00 56 15 1F 6A E0 B...F..KB`.V..j.
0000C980 48 60 4A 60 0F AF 00 01 08 57 18 1E 0F 9F 04 01 H`J`.....W......
0000C990 10 22 00 52 18 16 1F 9F 04 01 F1 43 1F DF 06 01 .".R.......C....
0000C9A0 01 52 09 12 AF 9F 08 01 BF 9F 0A 01 D8 55 08 A0 .R...........U..
0000C9B0 06 55 00 56 0F 10 06 54 D2 55 14 54 14 00 04 B0 .U.V...T.U.T....
0000C9C0 04 56 0D 12 42 A0 14 00 46 A0 F0 4B 42 60 00 56 .V..B...F..KB`.V
0000C9D0 15 1F 6A E0 48 60 4A 60 8C 57 1A 1E 0F 9F 06 01 ..j.H`J`.W......
0000C9E0 10 22 00 52 18 15 0F 9F 04 01 E0 43 0F DF 04 01 .".R.......C....
0000C9F0 00 52 1F 1A 0F AF 0C 01 14 00 E0 A0 BF 60 10 01 .R...........`..
0000CA00 67 02 9D 03 F0 4B 42 60 00 56 1E 1A 6A E0 48 60 g....KB`.V..j.H`
0000CA10 4A 60 0F AF 00 01 08 57 11 1A E9 1B F0 4B 42 60 J`.....W.....KB`
0000CA20 00 56 1C 1C 6A E0 48 60 4A 60 8C 57 11 1C E7 1D .V..j.H`J`.W....
0000CA30 F0 4B 42 60 00 56 10 18 B3 FE 68 E0 4A 60 48 60 .KB`.V....h.J`H`
0000CA40 AD 57 10 18 9B FE E0 18 C7 FE F0 4B 42 60 00 56 .W.........KB`.V
0000CA50 10 18 DD FE 68 E0 4C 60 48 60 AC 57 10 18 C5 FE ....h.L`H`.W....
0000CA60 E0 18 F1 FE 0E 56 08 19 04 54 D0 55 12 54 14 00 .....V...T.U.T..
0000CA70 E2 B0 02 56 0A 10 20 A0 14 00 24 A0 FE 4B 40 60 ...V.. ...$..K@`
0000CA80 0E 56 15 1F 4E 55 E8 18 FE 4B 40 60 0E 56 1F 1E .V..NU...K@`.V..
0000CA90 4E 55 E2 18 0E 56 08 1A 04 54 F0 55 12 54 14 00 NU...V...T.U.T..
0000CAA0 E2 B0 02 56 0A 10 20 A0 14 00 24 A0 FE 4B 40 60 ...V.. ...$..K@`
0000CAB0 0E 56 15 1F 4E 55 E8 19 FE 4B 40 60 0E 56 1F 1E .V..NU...K@`.V..
0000CAC0 4E 55 E2 19 20 55 BF 60 10 01 67 02 9D 03 00 05 NU.. U.`..g.....
0000CAD0 78 FC EE 0A 1E 01 1C 01 8C 54 FC 61 0C A0 04 56 x........T.a...V
0000CAE0 07 10 10 01 FF C0 41 F7 4F 60 1C 02 1E 03 40 5B ......A.O`....@[
0000CAF0 51 5B 1C 02 1E 03 00 00                         Q[......        

;; fn0000CAF8: 0000CAF8
;;   Called from:
;;     00003388 (in fn000030F2)
;;     00003830 (in fn000033F8)
;;     00003928 (in fn000033F8)
;;     00004780 (in fn000046AC)
;;     000048E6 (in fn00004794)
;;     000050BA (in fn00004CD4)
;;     0000525C (in fn00004CD4)
;;     000053BE (in fn00004CD4)
;;     00005436 (in fn00004CD4)
;;     000054EE (in fn00004CD4)
;;     00005562 (in fn00004CD4)
;;     00005A9C (in fn00004CD4)
;;     00005B14 (in fn00004CD4)
;;     00005BBA (in fn00004CD4)
fn0000CAF8 proc
	push	$2,ra
	push	$1,r7
	cmpd	$0,(r5,r4)
	beq	0000CB0E

l0000CB00:
	movzw	r6,(r7,r6)
	push	$2,r6
	bal	ra,fn0000C224
	addd	$4,sp
	pop	$1,r7
	popret	$2,ra

l0000CB0E:
	movw	r4,r0
	movw	r5,r1
	pop	$1,r7
	popret	$2,ra
0000CB16                   00 00 1E 01 FF C0 69 FD 1E 03       ......i...
0000CB20 1E 01 FF C0 61 FD 1E 03 9D 01 67 01 BF 60 A8 FF ....a.....g..`..
0000CB30 28 55 C2 AF 1C 00 02 A0 0F E0 02 92 B0 32 FB FF (U...........2..
0000CB40 00 5F 2F A0 02 61 2F E8 D8 A6 08 98 04 3B 44 5F ._/..a/......;D_
0000CB50 D6 55 14 00 46 C0 6F EF 2C 00 B0 32 FF FE 00 5F .U..F.o.,..2..._
0000CB60 D2 55 02 61 2F EA 3C 9F 1E 00 3F D5 4C 9F 20 00 .U.a/.<...?.L. .
0000CB70 4F DF 30 00 5C 9F 22 00 5F D4 6C AF 24 00 6F E6 O.0.\."._.l.$.o.
0000CB80 AC AF 28 00 5C 9F 2C 00 EC AF 34 00 0C AF 38 00 ..(.\.,...4...8.
0000CB90 0F E2 1C 9F 3E 00 10 5A 02 5B 12 45 21 5B 91 32 ....>..Z.[.E![.2
0000CBA0 2C 9F 3C 00 20 45 90 32 03 5F 3F EC 4F 94 F4 49 ,.<. E.2._?.O..I
0000CBB0 4F DF 38 00 6F 94 B6 22 FE FF 6F DF 20 00 62 5F O.8.o.."..o. .b_
0000CBC0 2F EF 1C 00 6F A6 26 61 6F EF 34 00 12 5F 2F EF /...o.&ao.4.._/.
0000CBD0 28 00 3F 95 4F 94 43 33 3F DF 32 00 6F A6 26 60 (.?.O.C3?.2.o.&`
0000CBE0 6F EF 3C 00 94 32 4F DF 22 00 40 5F 10 60 2F A6 o.<..2O.".@_.`/.
0000CBF0 02 61 2F EF 40 00 56 5B 8F EF 24 00 7F A0 E6 52 .a/.@.V[..$....R
0000CC00 A0 11 07 B1 00 5D 00 5F 82 5A 62 33 20 48 27 B0 .....]._.Zb3 H'.
0000CC10 22 5D 22 5F 62 48 20 61 0A 61 B6 32 10 00 27 60 "]"_bH a.a.2..'`
0000CC20 2F AC 14 00 A2 B0 22 4C E2 61 12 B0 02 91 22 B1 /....."L.a....".
0000CC30 23 5D 04 58 24 39 4A 47 36 3B 12 5D 02 52 0F 12 #].X$9JG6;.].R..
0000CC40 B3 58 10 00 13 21 03 50 1C 13 B3 58 40 00 13 21 .X...!.P...X@..!
0000CC50 03 50 10 18 E0 01 14 5A EC 10 B3 58 10 00 13 21 .P.....Z...X...!
0000CC60 03 50 1F 12 B3 58 40 00 13 21 03 50 10 18 C6 01 .P...X@..!.P....
0000CC70 41 5B 21 45 12 5B 92 32 22 5F 14 00 A2 B0 00 5F A[!E.[.2"_....._
0000CC80 02 61 22 4C E2 61 12 B0 02 91 22 B1 23 5D 05 58 .a"L.a....".#].X
0000CC90 25 39 5A 47 36 3B 12 5D 02 52 10 1E 0D F0 1D 60 %9ZG6;.].R.....`
0000CCA0 0F A8 07 57 40 08 00 52 06 10 1F AA 1D 57 40 08 ...W@..R.....W@.
0000CCB0 00 52 16 1A 7F E0 65 5B 8F AF 24 00 E0 18 92 01 .R....e[..$.....
0000CCC0 F1 20 01 50 04 11 14 5D 64 53 B8 10 27 B0 22 5D . .P...]dS..'."]
0000CCD0 22 5F 62 48 2A 61 86 32 17 60 92 5A 12 45 92 2A "_bH*a.2.`.Z.E.*
0000CCE0 A2 23 20 33 05 58 15 39 5A 47 46 3B E6 52 B0 18 .# 3.X.9ZGF;.R..
0000CCF0 B2 01 4F AF 28 00 14 00 A4 B0 24 4C 1F A2 14 61 ..O.(.....$L...a
0000CD00 34 B0 24 91 14 B1 14 5D 05 58 15 39 5A 47 46 3B 4.$....].X.9ZGF;
0000CD10 34 5D B1 58 10 00 31 21 01 50 17 12 B3 20 40 00 4].X..1!.P... @.
0000CD20 03 50 10 18 D4 01 11 5A E6 10 B3 20 40 00 03 50 .P.....Z... @..P
0000CD30 10 18 C6 01 15 5B 45 45 54 5B 94 32 44 5F 14 00 .....[EET[.2D_..
0000CD40 A4 B0 22 5F 24 61 24 4C 2F A2 24 61 34 B0 24 91 .."_$a$L/.$a4.$.
0000CD50 44 B1 45 5D 09 58 49 39 9A 47 56 3B 34 5D B5 58 D.E].XI9.GV;4].X
0000CD60 10 00 35 21 05 50 02 1E F1 58 31 21 13 5D 63 53 ..5!.P...X1!.]cS
0000CD70 BD 10 47 B0 44 5D 44 5F 64 48 4A 61 89 5A 69 33 ..G.D]D_dHJa.Zi3
0000CD80 93 53 A0 18 D2 02 17 60 96 5B 94 5A 14 45 94 2A .S.....`.[.Z.E.*
0000CD90 A4 23 49 5B 29 33 02 58 12 39 2A 47 36 3B D2 55 .#I[)3.X.9*G6;.U
0000CDA0 4F AF 2C 00 14 00 42 C0 29 53 B0 18 5E 02 95 5B O.,...B.)S..^..[
0000CDB0 25 3B 5F DF 4E 00 1F 9F 30 00 51 53 56 10 2C 9F %;_.N...0.QSV.,.
0000CDC0 9C 1B 02 52 10 18 8E 03 2F 94 02 52 10 18 40 01 ...R..../..R..@.
0000CDD0 2F 95 3F 9F 4E 00 32 3B 24 5F 1F A6 41 61 1F EF /.?.N.2;$_..Aa..
0000CDE0 54 00 30 53 A0 18 8C 03 4F AF 54 00 D2 55 20 52 T.0S....O.T..U R
0000CDF0 B3 11 AF E0 14 B0 1D F0 14 B1 1D F1 39 54 49 61 ............9TIa
0000CE00 32 54 D2 61 14 B2 1D F2 B0 32 FD FF 2D 55 94 55 2T.a.....2..-U.U
0000CE10 20 52 A1 1F AF A0 2D 55 00 52 00 18 87 FE 14 B0  R....-U.R......
0000CE20 12 F0 20 52 10 18 46 03 2D 60 04 B1 02 F1 E0 18 .. R..F.-`......
0000CE30 73 FE 7F E0 65 5B 8F AF 24 00 B1 20 20 00 01 50 s...e[..$..  ..P
0000CE40 11 14 00 05 BA E7 08 EC B0 5A 51 3F 0C D2 50 5B .........ZQ?..P[
0000CE50 D0 49 00 5F 2F A0 14 00 02 C0 20 55 75 22 12 5A .I._/..... Uu".Z
0000CE60 52 45 92 32 22 5F 14 00 2A B0 08 E0 D8 E6 3F A8 RE.2"_..*.....?.
0000CE70 03 57 BC 12 14 00 03 C0 30 55 50 32 08 D2 6F AA .W......0UP2..o.
0000CE80 6D 57 4C 12 0F 9A D1 55 10 3B B0 32 01 01 08 D8 mWL....U.;.2....
0000CE90 AC EF 28 00 5C DF 2C 00 BF 60 58 00 67 02 9D 03 ..(.\.,..`X.g...
0000CEA0 27 B1 22 5D 22 5F 81 5A 61 33 12 48 47 B0 44 5D '."]"_.Za3.HG.D]
0000CEB0 44 5F 64 48 42 61 2A 61 B6 32 10 00 27 60 E0 18 D_dHBa*a.2..'`..
0000CEC0 35 FE B0 5A 3F 3F 0C D2 E3 1C 4F 98 04 3B 40 5B 5..Z??....O..;@[
0000CED0 50 32 08 D2 6F AA 6D 57 56 1D 60 55 14 00 D0 C0 P2..o.mWV.`U....
0000CEE0 B0 32 01 01 08 D8 AC EF 28 00 5C DF 2C 00 BF 60 .2......(.\.,..`
0000CEF0 58 00 67 02 9D 03 7F E0 65 5B 8F AF 24 00 00 05 X.g.....e[..$...
0000CF00 D6 E7 08 EC B0 5A 51 3F 0C D2 E2 1A 1F 9F 4E 00 .....ZQ?......N.
0000CF10 12 53 50 18 56 01 2F 9F 32 00 12 3B 22 5F 4F A6 .SP.V./.2..;"_O.
0000CF20 24 61 4F EF 54 00 5F 94 51 3B 1F DF 4E 00 10 53 $aO.T._.Q;..N..S
0000CF30 B0 18 B9 FE 10 3B 24 54 24 61 1F A6 14 61 4D 57 .....;$T$a...aMW
0000CF40 51 08 22 54 D2 61 4F AF 54 00 24 57 52 08 13 59 Q."T.aO.T.$WR..Y
0000CF50 23 25 5F 9F 4E 00 C5 52 A2 08 32 21 02 50 00 18 #%_.N..R..2!.P..
0000CF60 AE 03 2F AF 54 00 14 00 D2 90 62 00 FF FF FF FF ../.T.....b.....
0000CF70 12 20 02 50 00 18 98 03 F5 49 5F D0 DF EF 44 00 . .P.....I_...D.
0000CF80 2F AF 54 00 0F C3 3A 00 24 55 0F DF 48 00 6F DF /.T...:.$U..H.o.
0000CF90 4A 00 9F DF 4C 00 D0 55 6F 9F 3A 00 92 90 90 D0 J...L..Uo.:.....
0000CFA0 16 32 20 60 22 60 9F 90 96 53 49 1F 4F EF 54 00 .2 `"`...SI.O.T.
0000CFB0 0F 9F 48 00 6F 9F 4A 00 9F 9F 4C 00 1F 9F 4E 00 ..H.o.J...L...N.
0000CFC0 B1 22 FE FF 14 5F 42 55 D2 61 2F EF 44 00 2F AF ."..._BU.a/.D./.
0000CFD0 54 00 42 61 4F 9F 4E 00 14 53 00 18 F4 02 41 5B T.BaO.N..S....A[
0000CFE0 22 B0 3F AF 44 00 23 F0 91 32 14 5F 11 54 41 61 ".?.D.#..2._.TAa
0000CFF0 D1 61 1F E0 2F 94 02 53 40 18 5E 02 1F A6 1F EF .a../..S@.^.....
0000D000 54 00 DF A0 E0 18 E5 FD 92 5F D4 55 14 00 24 C0 T........_.U..$.
0000D010 42 55 D4 55 AF E0 E2 10 D4 55 29 55 12 B0 1D F0 BU.U.....U)U....
0000D020 12 B1 1D F1 3D 60 12 B2 14 F2 B0 32 FD FF 32 60 ....=`.....2..2`
0000D030 20 52 A3 1F 92 55 AF A0 00 52 00 18 67 FC 12 B3  R...U...R..g...
0000D040 14 F3 20 52 10 18 06 01 5D 54 4D 61 02 B4 04 F4 .. R....]TMa....
0000D050 E0 18 51 FC 47 B1 44 5D 44 5F 94 48 4A 61 B6 32 ..Q.G.D]D_.HJa.2
0000D060 10 00 27 60 E0 18 27 FD 12 3B 22 5F 4F A6 24 61 ..'`..'..;"_O.$a
0000D070 4F EF 54 00 5F 9F 4E 00 50 53 B0 18 6F FD 50 3B O.T._.N.PS..o.P;
0000D080 24 54 24 61 1F A6 14 61 4D 57 51 08 22 54 D2 61 $T$a...aMWQ."T.a
0000D090 4F AF 54 00 24 57 52 08 12 25 5F 9F 4E 00 C5 52 O.T.$WR..%_.N..R
0000D0A0 A3 08 32 21 02 50 00 18 30 02 2F AF 54 00 14 00 ..2!.P..0./.T...
0000D0B0 D2 90 62 00 FF FF FF FF 12 20 02 50 00 18 1A 02 ..b...... .P....
0000D0C0 52 5B B2 32 FE FF F2 49 12 32 2F D0 DF EF 44 00 R[.2...I.2/...D.
0000D0D0 2F AF 54 00 0F C3 3A 00 24 55 0F DF 48 00 6F DF /.T...:.$U..H.o.
0000D0E0 4A 00 9F DF 4C 00 D0 55 6F 9F 3A 00 92 90 90 D0 J...L..Uo.:.....
0000D0F0 16 32 20 60 22 60 9F 90 96 53 49 1F 91 5B 4F EF .2 `"`...SI..[O.
0000D100 54 00 0F 9F 48 00 6F 9F 4A 00 9F 9F 4C 00 11 33 T...H.o.J...L..3
0000D110 14 5F 42 55 D2 61 2F EF 44 00 2F AF 54 00 42 61 ._BU.a/.D./.T.Ba
0000D120 4F 9F 4E 00 14 53 07 17 41 5B 22 B0 3F AF 44 00 O.N..S..A[".?.D.
0000D130 23 F0 91 32 12 5F 12 60 2D 61 92 5F D4 55 14 00 #..2._.`-a._.U..
0000D140 24 C0 4F EF 54 00 E0 18 A3 FC 4D 54 4D 61 E0 18 $.O.T.....MTMa..
0000D150 53 FB 7F E0 65 5B 8F AF 24 00 00 05 EC E7 08 EC S...e[..$.......
0000D160 B0 5A 51 3F 0C D2 E0 18 E9 FC 1D 60 E0 18 35 FB .ZQ?.......`..5.
0000D170 30 3B 22 54 42 61 4F A6 42 61 2D 57 51 08 22 54 0;"TBaO.Ba-WQ."T
0000D180 D2 61 4F AF 54 00 24 57 52 08 12 25 5F 9F 4E 00 .aO.T.$WR..%_.N.
0000D190 C5 52 A3 08 32 21 02 50 01 14 2F AF 54 00 14 00 .R..2!.P../.T...
0000D1A0 D2 90 62 00 FF FF FF FF 12 20 02 50 07 13 52 5B ..b...... .P..R[
0000D1B0 B2 32 FE FF F2 49 12 32 2F D0 DF EF 44 00 1F AF .2...I.2/...D...
0000D1C0 54 00 1F EF 50 00 1F 94 4F AF 54 00 0F DF 48 00 T...P...O.T...H.
0000D1D0 42 55 6F DF 4A 00 16 5B 9F DF 3A 00 9F 9F 4E 00 BUo.J..[..:...N.
0000D1E0 9F DF 4C 00 D0 55 92 90 90 D0 16 32 20 60 22 60 ..L..U.....2 `"`
0000D1F0 9F 90 96 53 49 1F 4F EF 54 00 0F 9F 48 00 6F 9F ...SI.O.T...H.o.
0000D200 4A 00 9F 9F 3A 00 1F 9F 4C 00 1F DF 4E 00 1F 90 J...:...L...N...
0000D210 E0 18 FF FE 41 5B 91 32 EE 18 4F AF 54 00 DF E0 ....A[.2..O.T...
0000D220 1F 9F 4E 00 91 32 12 5F 12 60 42 61 0F DF 44 00 ..N..2._.`Ba..D.
0000D230 6F DF 3A 00 1F DF 48 00 D0 55 64 B0 60 F0 14 60 o.:...H..Ud.`..`
0000D240 10 60 42 57 1B 1F 0F 9F 44 00 6F 9F 3A 00 1F 9F .`BW....D.o.:...
0000D250 48 00 E0 18 E3 FE 20 3B 32 54 42 61 D2 61 4F A6 H..... ;2TBa.aO.
0000D260 24 57 51 08 2F A0 4F AF 3C 00 42 57 52 08 21 25 $WQ./.O.<.BWR.!%
0000D270 5F 94 C5 52 A2 08 21 21 01 50 04 16 2F A0 DF A6 _..R..!!.P../...
0000D280 14 00 D2 90 62 00 FF FF FF FF 12 20 02 50 0A 15 ....b...... .P..
0000D290 2F A0 04 5A 1D 90 12 D0 14 32 22 60 2D 60 1F 9F /..Z.....2"`-`..
0000D2A0 38 00 14 53 48 1F 2F A0 4F AF 1C 00 42 61 5F 94 8..SH./.O...Ba_.
0000D2B0 DF 9F 20 00 D5 53 05 10 4F AF 34 00 14 B0 12 F0 .. ..S..O.4.....
0000D2C0 1F 9F 22 00 1D 5F 1D 60 2F A0 E0 18 6F FE 41 5B ..".._.`/...o.A[
0000D2D0 91 32 E0 18 19 FD 4F AF 54 00 DF E0 1F 9F 4E 00 .2....O.T.....N.
0000D2E0 91 32 12 5F 12 60 42 61 7F EF 44 00 6F DF 3A 00 .2._.`Ba..D.o.:.
0000D2F0 D6 55 84 B0 86 F0 14 60 16 60 6F E0 42 57 1A 1F .U.....`.`o.BW..
0000D300 7F AF 44 00 6F 9F 3A 00 E0 18 2D FE 4F AF 54 00 ..D.o.:...-.O.T.
0000D310 DF E0 1F 9F 4E 00 91 32 12 5F 12 60 42 61 7F EF ....N..2._.`Ba..
0000D320 44 00 6F DF 3A 00 D6 55 84 B0 86 F0 14 60 16 60 D.o.:..U.....`.`
0000D330 6F E0 42 57 1A 1F 7F AF 44 00 6F 9F 3A 00 E0 18 o.BW....D.o.:...
0000D340 AD FC 2F A6 4F A0 DF AF 40 00 12 B0 14 F0 12 60 ../.O...@......`
0000D350 14 60 2D 57 1B 1F E5 1B                         .`-W....        

;; fn0000D358: 0000D358
;;   Called from:
;;     0000AA66 (in fn0000A416)
;;     0000AA86 (in fn0000A416)
;;     0000AC90 (in fn0000A416)
;;     0000AEC8 (in fn0000A416)
fn0000D358 proc
	movw	r4,r0
	movw	r2,r1
	muluw	r1,(r1,r0)
	mulw	r2,r5
	mulw	r3,r4
	addw	r4,r1
	addw	r5,r1
	jr	ra
0000D368                         11 5A 23 53 5F 10 03 52         .Z#S_..R
0000D370 6D 10 33 33 11 33 32 53 A0 08 00 52 05 11 01 52 m.33.32S...R...R
0000D380 10 08 00 52 01 11 03 52 75 1F 20 5B 05 5A 30 53 ...R...Ru. [.Z0S
0000D390 43 10 30 3B 15 27 F1 49 F3 49 01 52 19 1F 04 52 C.0;.'.I.I.R...R
0000D3A0 12 10 50 5B EE 0A 01 52 11 1F 15 5B 20 5B E8 1F ..P[...R...[ [..
0000D3B0 05 5A 52 53 66 12 03 52 75 10 00 5A 30 3B 03 5B .ZRSf..Ru..Z0;.[
0000D3C0 15 2A 24 5B 11 5A 23 53 5D 10 33 33 11 33 23 53 .*$[.Z#S].33.3#S
0000D3D0 40 08 00 52 0A 11 01 52 10 08 00 52 06 11 03 52 @..R...R...R...R
0000D3E0 75 1F 00 5A 34 53 43 10 34 3B 10 27 F1 49 F3 49 u..Z4SC.4;.'.I.I
0000D3F0 01 52 19 1F 05 52 04 10 01 5A 01 3B 10 5B EE 0A .R...R...Z.;.[..
0000D400 25 3B 52 5B 15 5A E8 1D 01 52 1C 1E 10 5B E3 1F %;R[.Z...R...[..
0000D410 05 5A 52 53 74 10 25 3B 52 5B 15 5A 30 5B 10 43 .ZRSt.%;R[.Z0[.C
0000D420 03 2B 03 3B 20 5B 11 5A 23 53 5D 10 33 33 11 33 .+.; [.Z#S].33.3
0000D430 32 53 A4 08 04 52 04 11 01 52 14 08 04 52 00 11 2S...R...R...R..
0000D440 03 52 75 1F 03 53 A2 10 30 3B F1 49 F3 49 01 52 .Ru..S..0;.I.I.R
0000D450 1A 1F 05 52 04 10 01 5A 01 3B 10 5B EE 0A 01 52 ...R...Z.;.[...R
0000D460 12 1F E8 1F                                     ....            

;; fn0000D464: 0000D464
;;   Called from:
;;     00006344 (in fn00006226)
fn0000D464 proc
	movw	r2,r4
	movw	$1,r1
	cmpw	r3,r2
	bls	0000D488

l0000D46C:
	cmpw	$0,r3
	bgt	0000D488

l0000D470:
	addw	r3,r3
	addw	r1,r1
	cmpw	r2,r3
	slo	r0
	cmpw	$0,r0
	beq	0000D49C

l0000D47C:
	cmpw	$0,r1
	sne	r0
	cmpw	$0,r0
	beq	0000D49C

l0000D484:
	cmpw	$0,r3
	ble	0000D470

l0000D488:
	movw	$0,r0

l0000D48A:
	cmpw	r4,r3
	bhi	0000D492

l0000D48E:
	subw	r3,r4
	orw	r1,r0

l0000D492:
	lshw	$-15,r1
	lshw	$-15,r3
	cmpw	$0,r1
	bne	0000D48A

l0000D49A:
	jr	ra

l0000D49C:
	cmpw	$0,r1
	bne	0000D488

l0000D4A0:
	movw	r1,r0
	jr	ra

;; fn0000D4A4: 0000D4A4
;;   Called from:
;;     00004FB6 (in fn00004CD4)
fn0000D4A4 proc
	movw	r2,r0
	movw	$1,r1
	cmpw	r3,r2
	bls	0000D4C8

l0000D4AC:
	cmpw	$0,r3
	bgt	0000D4C8

l0000D4B0:
	addw	r3,r3
	addw	r1,r1
	cmpw	r2,r3
	slo	r4
	cmpw	$0,r4
	beq	0000D4D8

l0000D4BC:
	cmpw	$0,r1
	sne	r4
	cmpw	$0,r4
	beq	0000D4D8

l0000D4C4:
	cmpw	$0,r3
	ble	0000D4B0

l0000D4C8:
	cmpw	r0,r3
	bhi	0000D4CE

l0000D4CC:
	subw	r3,r0

l0000D4CE:
	lshw	$-15,r1
	lshw	$-15,r3
	cmpw	$0,r1
	bne	0000D4C8

l0000D4D6:
	jr	ra

l0000D4D8:
	cmpw	$0,r1
	bne	0000D4C8

l0000D4DC:
	jr	ra
0000D4DE                                           00 00               ..
0000D4E0 1E 01 06 5A 00 C0 14 00 1E 03 00 00             ...Z........    

;; fn0000D4EC: 0000D4EC
;;   Called from:
;;     0000BC38 (in fn0000BAE0)
;;     0000BC46 (in fn0000BAE0)
;;     0000BDF4 (in fn0000BAE0)
;;     0000C09E (in fn0000BAE0)
;;     0000C0AC (in fn0000BAE0)
fn0000D4EC proc
	push	$2,ra
	movw	$1,r6
	bal	ra,fn0000D4F8
	popret	$2,ra
0000D4F6                   00 00                               ..        

;; fn0000D4F8: 0000D4F8
;;   Called from:
;;     0000D4F0 (in fn0000D4EC)
fn0000D4F8 proc
	push	$2,ra
	push	$2,r8
	movd	$1,(r9,r8)
	cmpd	(r5,r4),(r3,r2)
	bls	0000D522

l0000D502:
	cmpd	$0,(r5,r4)
	bgt	0000D522

l0000D506:
	addd	(r5,r4),(r5,r4)
	addd	(r9,r8),(r9,r8)
	cmpd	(r3,r2),(r5,r4)
	slo	r0
	cmpw	$0,r0
	beq	0000D544

l0000D512:
	movw	r8,r0
	orw	r9,r0
	cmpw	$0,r0
	sne	r0
	cmpw	$0,r0
	beq	0000D544

l0000D51E:
	cmpd	$0,(r5,r4)
	ble	0000D506

l0000D522:
	movd	(r1,r0),(r3,r2)
	movd	$0,ra

l0000D526:
	cmpd	(r1,r0),(r5,r4)
	bhi	0000D532

l0000D52A:
	subd	(r1,r0),(r5,r4)
	ord	(r9,r8),ra

l0000D532:
	lshd	$-31,(r9,r8)
	lshd	$-31,(r5,r4)
	cmpd	$0,(r9,r8)
	bne	0000D526

l0000D53A:
	cmpw	$0,r6
	bne	0000D540

l0000D53E:
	movd	(r1,r0),ra

l0000D540:
	pop	$2,r8
	popret	$2,ra

l0000D544:
	cmpd	$0,(r9,r8)
	bne	0000D522

l0000D548:
	movd	ra,(r9,r8)
	movd	(r1,r0),(r3,r2)
	br	0000D53A
0000D54E                                           00 00               ..
0000D550 1D 01 FD 55 00 2C DF 55 1D 02 EE 0A 1D 01 BF 60 ...U.,.U.......`
0000D560 FC FF FD 55 80 54 D0 61 00 A0 0D E0 00 2C DF 55 ...U.T.a.....,.U
0000D570 4F 60 1D 02 EE 0A 00 00                         O`......        

;; fn0000D578: 0000D578
;;   Called from:
;;     000003BE (in fn03B0)
fn0000D578 proc
	push	$2,r13
	addd	$-8,sp
	movd	r13,sp
	movd	$C,(r1,r0)
	addd	r13,(r1,r0)
	loadd	(r1,r0),(r3,r2)
	stord	(r3,r2),(r13)
	loadd	4(r1,r0),(r1,r0)
	stord	(r1,r0),4(r13)
	nop
	movd	sp,r13
	addd	$8,sp
	pop	$2,r13
	jr	ra
0000D596                   00 00 1D 01 BF 60 F8 FF FD 55       .....`...U
0000D5A0 C0 54 D0 61 20 A0 2D E0 00 A2 0D E2 00 2C DF 55 .T.a .-......,.U
0000D5B0 8F 60 1D 02 EE 0A 00 00 1D 01 BF 60 F4 FF FD 55 .`.........`...U
0000D5C0 B0 54 10 00 D0 61 20 A0 2D E0 20 A2 2D E2 00 A4 .T...a .-. .-...
0000D5D0 0D E4 00 2C DF 55 CF 60 1D 02 EE 0A 1D 01 BF 60 ...,.U.`.......`
0000D5E0 F8 FF FD 55 C0 54 D0 61 20 A0 2D E0 00 A2 0D E2 ...U.T.a .-.....
0000D5F0 00 2C DF 55 8F 60 1D 02 EE 0A 00 00 1D 01 BF 60 .,.U.`.........`
0000D600 FC FF FD 55 80 54 D0 61 00 A1 0D E0 00 2C DF 55 ...U.T.a.....,.U
0000D610 4F 60 1D 02 EE 0A 00 00 1D 01 BF 60 F8 FF FD 55 O`.........`...U
0000D620 2D E0 4D E2 00 2C DF 55 8F 60 1D 02 EE 0A 00 00 -.M..,.U.`......
0000D630 1D 01 BF 60 F4 FF FD 55 B0 54 10 00 D0 61 2D E0 ...`...U.T...a-.
0000D640 4D E2 00 A0 0D E4 00 2C DF 55 CF 60 1D 02 EE 0A M......,.U.`....
0000D650 1D 01 BF 60 F4 FF FD 55 B0 54 10 00 D0 61 2D E0 ...`...U.T...a-.
0000D660 4D E2 00 A0 0D E4 00 2C DF 55 CF 60 1D 02 EE 0A M......,.U.`....
0000D670 1D 01 BF 60 F0 FF FD 55 B0 54 14 00 D0 61 2D E0 ...`...U.T...a-.
0000D680 4D E2 20 A0 2D E4 00 A2 0D E6 00 2C DF 55 BF 60 M. .-......,.U.`
0000D690 10 00 1D 02 EE 0A 00 00 1D 01 BF 60 F4 FF FD 55 ...........`...U
0000D6A0 B0 54 10 00 D0 61 2D E0 4D E2 00 A0 0D E4 00 2C .T...a-.M......,
0000D6B0 DF 55 CF 60 1D 02 EE 0A 1D 01 BF 60 F4 FF FD 55 .U.`.......`...U
0000D6C0 2D D0 3D E2 5D E4 00 2C DF 55 CF 60 1D 02 EE 0A -.=.]..,.U.`....
0000D6D0 1D 01 BF 60 F8 FF FD 55 C0 54 D0 61 20 A0 2D E0 ...`...U.T.a .-.
0000D6E0 00 A2 0D E2 00 2C DF 55 8F 60 1D 02 EE 0A 00 00 .....,.U.`......
0000D6F0 1D 01 BF 60 FC FF FD 55 80 54 D0 61 00 A0 0D E0 ...`...U.T.a....
0000D700 00 2C DF 55 4F 60 1D 02 EE 0A 00 00 1D 01 BF 60 .,.UO`.........`
0000D710 F8 FF FD 55 C0 54 D0 61 20 A0 2D E0 00 A2 0D E2 ...U.T.a .-.....
0000D720 00 2C DF 55 8F 60 1D 02 EE 0A 00 00 1D 01 BF 60 .,.U.`.........`
0000D730 F4 FF FD 55 B0 54 10 00 D0 61 2D E0 4D E2 00 A0 ...U.T...a-.M...
0000D740 0D E4 00 2C DF 55 CF 60 1D 02 EE 0A 1D 01 BF 60 ...,.U.`.......`
0000D750 F8 FF FD 55 2D E0 4D E2 00 2C DF 55 8F 60 1D 02 ...U-.M..,.U.`..
0000D760 EE 0A 00 00 1D 01 BF 60 F4 FF FD 55 B0 54 10 00 .......`...U.T..
0000D770 D0 61 2D E0 4D E2 00 A0 0D E4 00 2C DF 55 CF 60 .a-.M......,.U.`
0000D780 1D 02 EE 0A 1D 01 BF 60 F4 FF FD 55 2D E0 4D D2 .......`...U-.M.
0000D790 5D E4 00 2C DF 55 CF 60 1D 02 EE 0A 1D 01 BF 60 ]..,.U.`.......`
0000D7A0 FC FF FD 55 2D E0 00 2C DF 55 4F 60 1D 02 EE 0A ...U-..,.UO`....
0000D7B0 1D 01 BF 60 F8 FF FD 55 2D D0 3D E2 00 2C DF 55 ...`...U-.=..,.U
0000D7C0 8F 60 1D 02 EE 0A 00 00 1D 01 BF 60 FC FF FD 55 .`.........`...U
0000D7D0 2D E0 00 2C DF 55 4F 60 1D 02 EE 0A 1D 01 BF 60 -..,.UO`.......`
0000D7E0 FC FF FD 55 2D E0 00 2C DF 55 4F 60 1D 02 EE 0A ...U-..,.UO`....
0000D7F0 1D 01 FD 55 00 2C DF 55 1D 02 EE 0A 1D 01 BF 60 ...U.,.U.......`
0000D800 F8 FF FD 55 2D E0 4D E2 00 2C DF 55 8F 60 1D 02 ...U-.M..,.U.`..
0000D810 EE 0A 00 00 1D 01 BF 60 FC FF FD 55 2D E0 00 2C .......`...U-..,
0000D820 DF 55 4F 60 1D 02 EE 0A 1D 01 BF 60 F8 FF FD 55 .UO`.......`...U
0000D830 2D D0 3D E2 00 2C DF 55 8F 60 1D 02 EE 0A 00 00 -.=..,.U.`......
0000D840 1D 01 BF 60 F8 FF FD 55 2D D0 3D E2 00 2C DF 55 ...`...U-.=..,.U
0000D850 8F 60 1D 02 EE 0A 00 00 1D 01 BF 60 FC FF FD 55 .`.........`...U
0000D860 2D D0 00 2C DF 55 4F 60 1D 02 EE 0A 1D 01 BF 60 -..,.UO`.......`
0000D870 F8 FF FD 55 2D E0 4D E2 00 2C DF 55 8F 60 1D 02 ...U-.M..,.U.`..
0000D880 EE 0A 00 00 1D 01 BF 60 FC FF FD 55 2D E0 00 2C .......`...U-..,
0000D890 DF 55 4F 60 1D 02 EE 0A 1D 01 BF 60 F0 FF FD 55 .UO`.......`...U
0000D8A0 B0 54 14 00 D0 61 2D E0 4D E2 20 A0 2D E4 00 A2 .T...a-.M. .-...
0000D8B0 0D E6 00 2C DF 55 BF 60 10 00 1D 02 EE 0A 00 00 ...,.U.`........
0000D8C0 1D 01 BF 60 F0 FF FD 55 B0 54 14 00 D0 61 2D E0 ...`...U.T...a-.
0000D8D0 4D E2 20 A0 2D E4 00 A2 0D E6 00 2C DF 55 BF 60 M. .-......,.U.`
0000D8E0 10 00 1D 02 EE 0A 00 00 1D 01 BF 60 FC FF FD 55 ...........`...U
0000D8F0 2D E0 00 2C DF 55 4F 60 1D 02 EE 0A 1D 01 BF 60 -..,.UO`.......`
0000D900 FC FF FD 55 2D E0 00 2C DF 55 4F 60 1D 02 EE 0A ...U-..,.UO`....
0000D910 1D 01 BF 60 FC FF FD 55 2D E0 00 2C DF 55 4F 60 ...`...U-..,.UO`
0000D920 1D 02 EE 0A 1D 01 BF 60 FC FF FD 55 2D E0 00 2C .......`...U-..,
0000D930 DF 55 4F 60 1D 02 EE 0A 1D 01 BF 60 FC FF FD 55 .UO`.......`...U
0000D940 2D E0 00 2C DF 55 4F 60 1D 02 EE 0A 1D 01 BF 60 -..,.UO`.......`
0000D950 FC FF FD 55 2D E0 00 2C DF 55 4F 60 1D 02 EE 0A ...U-..,.UO`....
0000D960 1D 01 BF 60 FC FF FD 55 2D E0 00 2C DF 55 4F 60 ...`...U-..,.UO`
0000D970 1D 02 EE 0A                                     ....            

;; fn0000D974: 0000D974
;;   Called from:
;;     000003C4 (in fn03B0)
fn0000D974 proc
	addd	$-4,sp
	movd	r13,sp
	storw	r2,(r13)
	nop
	movd	sp,r13
	addd	$4,sp
	jr	ra
0000D984             1D 01 BF 60 F8 FF FD 55 2D E0 4D E2     ...`...U-.M.
0000D990 00 2C DF 55 8F 60 1D 02 EE 0A 00 00             .,.U.`......    

;; fn0000D99C: 0000D99C
;;   Called from:
;;     00000C0A (in fn00000BEC)
;;     00001B9A (in fn00001B74)
;;     00001BA0 (in fn00001B74)
;;     00001BBC (in fn00001B74)
;;     00001BCA (in fn00001B74)
;;     00001C88 (in fn00001BEC)
;;     00001CA4 (in fn00001BEC)
;;     00001CAA (in fn00001BEC)
;;     00002E5C (in fn00002D76)
;;     00002E62 (in fn00002D76)
;;     00002E72 (in fn00002D76)
;;     00002E86 (in fn00002D76)
fn0000D99C proc
	push	$2,r13
	addd	$-4,sp
	movd	r13,sp
	stord	(r3,r2),(r13)
	nop
	movd	sp,r13
	addd	$4,sp
	pop	$2,r13
	jr	ra

;; fn0000D9B0: 0000D9B0
;;   Called from:
;;     00000C5A (in fn00000BEC)
;;     00001BFA (in fn00001BEC)
;;     00001C1A (in fn00001BEC)
fn0000D9B0 proc
	push	$2,r13
	addd	$-4,sp
	movd	r13,sp
	stord	(r3,r2),(r13)
	nop
	movd	sp,r13
	addd	$4,sp
	pop	$2,r13
	jr	ra
0000D9C4             1D 01 BF 60 F8 FF FD 55 2D E0 4D E2     ...`...U-.M.
0000D9D0 00 2C DF 55 8F 60 1D 02 EE 0A 00 00 1D 01 BF 60 .,.U.`.........`
0000D9E0 FC FF FD 55 2D E0 00 2C DF 55 4F 60 1D 02 EE 0A ...U-..,.UO`....
0000D9F0 1D 01 BF 60 F4 FF FD 55 2D E0 4D E2 6D D4 00 2C ...`...U-.M.m..,
0000DA00 DF 55 CF 60 1D 02 EE 0A 1D 01 BF 60 F4 FF FD 55 .U.`.......`...U
0000DA10 2D E0 4D E2 6D D4 00 2C DF 55 CF 60 1D 02 EE 0A -.M.m..,.U.`....
0000DA20 1D 01 FD 55 00 2C DF 55 1D 02 EE 0A 1D 01 BF 60 ...U.,.U.......`
0000DA30 FC FF FD 55 2D E0 00 2C DF 55 4F 60 1D 02 EE 0A ...U-..,.UO`....
0000DA40 1D 01 BF 60 FC FF FD 55 2D D0 00 2C DF 55 4F 60 ...`...U-..,.UO`
0000DA50 1D 02 EE 0A 1D 01 BF 60 FC FF FD 55 2D E0 00 2C .......`...U-..,
0000DA60 DF 55 4F 60 1D 02 EE 0A 1D 01 BF 60 FC FF FD 55 .UO`.......`...U
0000DA70 2D E0 00 2C DF 55 4F 60 1D 02 EE 0A 1D 01 BF 60 -..,.UO`.......`
0000DA80 F4 FF FD 55 2D E0 4D E2 6D D4 00 2C DF 55 CF 60 ...U-.M.m..,.U.`
0000DA90 1D 02 EE 0A 1D 01 BF 60 FC FF FD 55 2D E0 00 2C .......`...U-..,
0000DAA0 DF 55 4F 60 1D 02 EE 0A 1D 01 BF 60 FC FF FD 55 .UO`.......`...U
0000DAB0 2D E0 00 2C DF 55 4F 60 1D 02 EE 0A 1D 01 BF 60 -..,.UO`.......`
0000DAC0 FC FF FD 55 2D E0 00 2C DF 55 4F 60 1D 02 EE 0A ...U-..,.UO`....
0000DAD0 00 2C DF 55 EE 0A 00 00 1D 01 BF 60 FC FF FD 55 .,.U.......`...U
0000DAE0 2D D0 00 2C DF 55 4F 60 1D 02 EE 0A 1D 01 BF 60 -..,.UO`.......`
0000DAF0 FC FF FD 55 80 54 D0 61 00 A0 0D E0 00 2C DF 55 ...U.T.a.....,.U
0000DB00 4F 60 1D 02 EE 0A 00 00 1D 01 BF 60 FC FF FD 55 O`.........`...U
0000DB10 80 54 D0 61 00 A1 0D E0 00 2C DF 55 4F 60 1D 02 .T.a.....,.UO`..
0000DB20 EE 0A 00 00                                     ....            

;; fn0000DB24: 0000DB24
;;   Called from:
;;     000031A2 (in fn000030F2)
;;     00003328 (in fn000030F2)
;;     00003502 (in fn000033F8)
;;     00003548 (in fn000033F8)
;;     000035B4 (in fn000033F8)
;;     0000363A (in fn000033F8)
;;     000036F6 (in fn000033F8)
;;     000037EC (in fn000033F8)
;;     0000384A (in fn000033F8)
;;     00003886 (in fn000033F8)
;;     000038C0 (in fn000033F8)
;;     00004E82 (in fn00004CD4)
;;     00004F38 (in fn00004CD4)
;;     00005104 (in fn00004CD4)
;;     000051CA (in fn00004CD4)
;;     00005226 (in fn00004CD4)
;;     00005408 (in fn00004CD4)
;;     00005468 (in fn00004CD4)
;;     000054C0 (in fn00004CD4)
;;     0000558A (in fn00004CD4)
;;     000055E6 (in fn00004CD4)
;;     00005712 (in fn00004CD4)
;;     000057DA (in fn00004CD4)
;;     00005988 (in fn00004CD4)
;;     00005B3C (in fn00004CD4)
;;     00005BE8 (in fn00004CD4)
;;     00005CCC (in fn00004CD4)
;;     0000B02E (in fn0000AF94)
fn0000DB24 proc
	push	$2,r13
	addd	$-12,sp
	movd	r13,sp
	movd	$10,(r1,r0)
	addd	r13,(r1,r0)
	stord	(r3,r2),(r13)
	stord	(r5,r4),4(r13)
	loadd	(r1,r0),(r1,r0)
	stord	(r1,r0),8(r13)
	nop
	movd	sp,r13
	addd	$12,sp
	pop	$2,r13
	jr	ra

;; fn0000DB44: 0000DB44
;;   Called from:
;;     00001F50 (in fn00001F0C)
;;     00003276 (in fn000030F2)
;;     000033C0 (in fn000030F2)
;;     000033E2 (in fn000030F2)
;;     00004874 (in fn00004794)
;;     00005F00 (in fn00004CD4)
;;     00006446 (in fn00006226)
fn0000DB44 proc
	push	$2,r13
	addd	$-12,sp
	movd	r13,sp
	stord	(r3,r2),(r13)
	storw	r4,4(r13)
	stord	(r6,r5),8(r13)
	nop
	movd	sp,r13
	addd	$12,sp
	pop	$2,r13
	jr	ra
0000DB5C                                     1D 01 BF 60             ...`
0000DB60 F4 FF FD 55 2D E0 4D D2 5D E4 00 2C DF 55 CF 60 ...U-.M.]..,.U.`
0000DB70 1D 02 EE 0A                                     ....            

;; fn0000DB74: 0000DB74
;;   Called from:
;;     00000C46 (in fn00000BEC)
;;     00000C50 (in fn00000BEC)
fn0000DB74 proc
	push	$2,r13
	addd	$-4,sp
	movd	r13,sp
	stord	(r3,r2),(r13)
	nop
	movd	sp,r13
	addd	$4,sp
	pop	$2,r13
	jr	ra
0000DB88                         1D 01 BF 60 F8 FF FD 55         ...`...U
0000DB90 2D E0 4D E2 00 2C DF 55 8F 60 1D 02 EE 0A 00 00 -.M..,.U.`......
0000DBA0 1D 01 BF 60 F8 FF FD 55 2D E0 4D E2 00 2C DF 55 ...`...U-.M..,.U
0000DBB0 8F 60 1D 02 EE 0A 00 00 1D 01 BF 60 F8 FF FD 55 .`.........`...U
0000DBC0 2D E0 4D E2 00 2C DF 55 8F 60 1D 02 EE 0A 00 00 -.M..,.U.`......
0000DBD0 1D 01 BF 60 F4 FF FD 55 B0 54 10 00 D0 61 2D E0 ...`...U.T...a-.
0000DBE0 4D E2 00 A0 0D E4 00 2C DF 55 CF 60 1D 02 EE 0A M......,.U.`....

;; fn0000DBF0: 0000DBF0
;;   Called from:
;;     00000C6A (in fn00000BEC)
fn0000DBF0 proc
	push	$2,r13
	addd	$-8,sp
	movd	r13,sp
	stord	(r3,r2),(r13)
	stord	(r5,r4),4(r13)
	nop
	movd	sp,r13
	addd	$8,sp
	pop	$2,r13
	jr	ra
0000DC06                   00 00 1D 01 BF 60 F4 FF FD 55       .....`...U
0000DC10 B0 54 10 00 D0 61 2D E0 4D E2 00 A0 0D E4 00 2C .T...a-.M......,
0000DC20 DF 55 CF 60 1D 02 EE 0A                         .U.`....        

;; fn0000DC28: 0000DC28
;;   Called from:
;;     00000C7C (in fn00000BEC)
fn0000DC28 proc
	push	$2,r13
	addd	$-8,sp
	movd	r13,sp
	stord	(r3,r2),(r13)
	stord	(r5,r4),4(r13)
	nop
	movd	sp,r13
	addd	$8,sp
	pop	$2,r13
	jr	ra
0000DC3E                                           00 00               ..
0000DC40 1D 01 BF 60 F4 FF FD 55 B0 54 10 00 D0 61 2D E0 ...`...U.T...a-.
0000DC50 4D E2 00 A0 0D E4 00 2C DF 55 CF 60 1D 02 EE 0A M......,.U.`....
0000DC60 1D 01 BF 60 F8 FF FD 55 2D E0 4D E2 00 2C DF 55 ...`...U-.M..,.U
0000DC70 8F 60 1D 02 EE 0A 00 00 1D 01 BF 60 F4 FF FD 55 .`.........`...U
0000DC80 B0 54 10 00 D0 61 2D E0 4D E2 00 A0 0D E4 00 2C .T...a-.M......,
0000DC90 DF 55 CF 60 1D 02 EE 0A 1D 01 BF 60 F8 FF FD 55 .U.`.......`...U
0000DCA0 2D E0 4D E2 00 2C DF 55 8F 60 1D 02 EE 0A 00 00 -.M..,.U.`......
0000DCB0 1D 01 BF 60 F4 FF FD 55 B0 54 10 00 D0 61 2D E0 ...`...U.T...a-.
0000DCC0 4D E2 00 A0 0D E4 00 2C DF 55 CF 60 1D 02 EE 0A M......,.U.`....
0000DCD0 1D 01 BF 60 F8 FF FD 55 2D E0 4D D2 00 2C DF 55 ...`...U-.M..,.U
0000DCE0 8F 60 1D 02 EE 0A 00 00 1D 01 BF 60 F8 FF FD 55 .`.........`...U
0000DCF0 2D E0 4D D2 00 2C DF 55 8F 60 1D 02 EE 0A 00 00 -.M..,.U.`......
0000DD00 1D 01 BF 60 FC FF FD 55 2D D0 00 2C DF 55 4F 60 ...`...U-..,.UO`
0000DD10 1D 02 EE 0A 1D 01 BF 60 FC FF FD 55 2D D0 00 2C .......`...U-..,
0000DD20 DF 55 4F 60 1D 02 EE 0A 1D 01 BF 60 FC FF FD 55 .UO`.......`...U
0000DD30 2D D0 00 2C DF 55 4F 60 1D 02 EE 0A 1D 01 BF 60 -..,.UO`.......`
0000DD40 FC FF FD 55 2D D0 00 2C DF 55 4F 60 1D 02 EE 0A ...U-..,.UO`....
0000DD50 1D 01 BF 60 FC FF FD 55 2D D0 00 2C DF 55 4F 60 ...`...U-..,.UO`
0000DD60 1D 02 EE 0A 1D 01 BF 60 FC FF FD 55 2D D0 00 2C .......`...U-..,
0000DD70 DF 55 4F 60 1D 02 EE 0A 1D 01 BF 60 F4 FF FD 55 .UO`.......`...U
0000DD80 2D D0 3D E2 5D E4 00 2C DF 55 CF 60 1D 02 EE 0A -.=.]..,.U.`....

;; fn0000DD90: 0000DD90
;;   Called from:
;;     00001E5C (in fn00001DFA)
;;     00001EB8 (in fn00001DFA)
;;     00001F8E (in fn00001F0C)
;;     00001FFA (in fn00001F0C)
;;     00002E2A (in fn00002D76)
;;     00002EAE (in fn00002D76)
fn0000DD90 proc
	push	$2,r13
	addd	$-12,sp
	movd	r13,sp
	storw	r2,(r13)
	stord	(r4,r3),4(r13)
	stord	(r6,r5),8(r13)
	nop
	movd	sp,r13
	addd	$12,sp
	pop	$2,r13
	jr	ra
0000DDA8                         1D 01 BF 60 F4 FF FD 55         ...`...U
0000DDB0 2D D0 3D E2 5D E4 00 2C DF 55 CF 60 1D 02 EE 0A -.=.]..,.U.`....
0000DDC0 1D 01 BF 60 F4 FF FD 55 2D D0 3D E2 5D E4 00 2C ...`...U-.=.]..,
0000DDD0 DF 55 CF 60 1D 02 EE 0A 1D 01 BF 60 F8 FF FD 55 .U.`.......`...U
0000DDE0 2D D0 3D D1 4D D2 00 2C DF 55 8F 60 1D 02 EE 0A -.=.M..,.U.`....

;; fn0000DDF0: 0000DDF0
;;   Called from:
;;     00001BC2 (in fn00001B74)
;;     00002E78 (in fn00002D76)
fn0000DDF0 proc
	push	$2,r13
	addd	$-4,sp
	movd	r13,sp
	storw	r2,(r13)
	nop
	movd	sp,r13
	addd	$4,sp
	pop	$2,r13
	jr	ra
0000DE04             1D 01 BF 60 FC FF FD 55 2D E0 00 2C     ...`...U-..,
0000DE10 DF 55 4F 60 1D 02 EE 0A 1D 01 BF 60 F8 FF FD 55 .UO`.......`...U
0000DE20 2D D0 3D E2 5D D1 00 2C DF 55 8F 60 1D 02 EE 0A -.=.]..,.U.`....
0000DE30 1D 01 FD 55 00 2C DF 55 1D 02 EE 0A 1D 01 FD 55 ...U.,.U.......U
0000DE40 00 2C DF 55 1D 02 EE 0A 1D 01 BF 60 F8 FF FD 55 .,.U.......`...U
0000DE50 2D D0 3D E2 00 2C DF 55 8F 60 1D 02 EE 0A 00 00 -.=..,.U.`......
0000DE60 1D 01 BF 60 FC FF FD 55 2D E0 00 2C DF 55 4F 60 ...`...U-..,.UO`
0000DE70 1D 02 EE 0A 1D 01 BF 60 F8 FF FD 55 2D E0 4D E2 .......`...U-.M.
0000DE80 00 2C DF 55 8F 60 1D 02 EE 0A 00 00 1D 01 BF 60 .,.U.`.........`
0000DE90 FC FF FD 55 2D E0 00 2C DF 55 4F 60 1D 02 EE 0A ...U-..,.UO`....
0000DEA0 1D 01 BF 60 F8 FF FD 55 2D E0 4D E2 00 2C DF 55 ...`...U-.M..,.U
0000DEB0 8F 60 1D 02 EE 0A 00 00 1D 01 BF 60 FC FF FD 55 .`.........`...U
0000DEC0 2D D0 3D D1 00 2C DF 55 4F 60 1D 02 EE 0A 00 00 -.=..,.UO`......
0000DED0 1D 01 BF 60 FC FF FD 55 2D E0 00 2C DF 55 4F 60 ...`...U-..,.UO`
0000DEE0 1D 02 EE 0A 1D 01 BF 60 F8 FF FD 55 2D E0 4D E2 .......`...U-.M.
0000DEF0 00 2C DF 55 8F 60 1D 02 EE 0A 00 00 1D 01 BF 60 .,.U.`.........`
0000DF00 FC FF FD 55 2D E0 00 2C DF 55 4F 60 1D 02 EE 0A ...U-..,.UO`....
0000DF10 1D 01 BF 60 F8 FF FD 55 2D E0 4D E2 00 2C DF 55 ...`...U-.M..,.U
0000DF20 8F 60 1D 02 EE 0A 00 00 1D 01 BF 60 FC FF FD 55 .`.........`...U
0000DF30 2D E0 00 2C DF 55 4F 60 1D 02 EE 0A 1D 01 BF 60 -..,.UO`.......`
0000DF40 FC FF FD 55 2D E0 00 2C DF 55 4F 60 1D 02 EE 0A ...U-..,.UO`....
0000DF50 1D 01 BF 60 FC FF FD 55 2D E0 00 2C DF 55 4F 60 ...`...U-..,.UO`
0000DF60 1D 02 EE 0A 1D 01 BF 60 F8 FF FD 55 2D D0 3D E2 .......`...U-.=.
0000DF70 00 2C DF 55 8F 60 1D 02 EE 0A 00 00 1D 01 BF 60 .,.U.`.........`
0000DF80 F4 FF FD 55 2D D0 3D E2 5D E4 00 2C DF 55 CF 60 ...U-.=.]..,.U.`
0000DF90 1D 02 EE 0A 1D 01 BF 60 F8 FF FD 55 C0 54 D0 61 .......`...U.T.a
0000DFA0 20 A0 2D E0 00 A2 0D E2 00 2C DF 55 8F 60 1D 02  .-......,.U.`..
0000DFB0 EE 0A 00 00 1D 01 BF 60 F8 FF FD 55 C0 54 D0 61 .......`...U.T.a
0000DFC0 20 A0 2D E0 00 A2 0D E2 00 2C DF 55 8F 60 1D 02  .-......,.U.`..
0000DFD0 EE 0A 00 00 1D 01 BF 60 FC FF FD 55 2D E0 00 2C .......`...U-..,
0000DFE0 DF 55 4F 60 1D 02 EE 0A 1D 01 BF 60 F8 FF FD 55 .UO`.......`...U
0000DFF0 2D E0 4D E2 00 2C DF 55 8F 60 1D 02 EE 0A 00 00 -.M..,.U.`......
0000E000 1E 01 18 01 78 00 01 00 78 1C 08 A0 90 56 07 10 ....x...x....V..
0000E010 D0 00 B8 60 FC FF 08 A0 90 56 1B 1F 18 02 1E 03 ...`.....V......
0000E020 1E 01 1E 03 9D 01 67 01 BF 60 E8 FF 28 5B 3D 55 ......g..`..([=U
0000E030 70 00 36 20 77 62 0F E0 0F 83 04 00 A3 A0 13 00 p.6 wb..........
0000E040 A4 B0 28 00 B4 5A 2F 00 A2 55 FF C0 9F FC 00 56 ..(..Z/..U.....V
0000E050 03 10 1A 54 0A 61 98 32 4D 60 40 05 E0 E2 A2 55 ...T.a.2M`@....U
0000E060 FF C0 01 FC 07 5B 1F C3 14 00 00 52 0A 10 40 05 .....[.....R..@.
0000E070 E8 E2 A2 55 FF C0 ED FB 7F 9A 00 52 10 18 98 01 ...U.......R....
0000E080 08 52 D6 12 C0 05 EE E2 19 5A E6 11 40 05 F2 E2 .R.......Z..@...
0000E090 A2 55 FF C0 CF FB 00 52 0E 13 40 05 F6 E2 A2 55 .U.....R..@....U
0000E0A0 FF C0 C1 FB 00 52 19 13 B0 58 66 00 0F F3 98 32 .....R...Xf....2
0000E0B0 4D 60 08 52 0D 10 AD A0 C4 55 A2 55 FF C0 A5 FB M`.R.....U.U....
0000E0C0 00 52 15 1E 97 5B 98 32 4D 60 08 52 15 1F 0F B3 .R...[.2M`.R....
0000E0D0 B0 50 20 00 00 18 38 01 08 52 18 14 1F 9A 01 52 .P ...8..R.....R
0000E0E0 00 18 3E 01 12 00 24 B0 30 00 FF C0 63 F8 30 05 ..>...$.0...c.0.
0000E0F0 BE E2 02 5B FF C0 0F 25 00 56 00 18 4A 01 12 00 ...[...%.V..J...
0000E100 44 B0 3C 00 02 55 FF C0 8D 20 00 5A BF 60 18 00 D.<..U... .Z.`..
0000E110 67 02 9D 03 9F DA EC 1C 40 05 FA E2 A2 55 FF C0 g.......@....U..
0000E120 43 FB 00 52 15 10 B1 58 68 00 1F F3 E1 1C 40 05 C..R...Xh.....@.
0000E130 FE E2 A2 55 FF C0 2D FB 00 52 15 10 B0 58 52 00 ...U..-..R...XR.
0000E140 0F F3 E6 1B 0A B0 B0 50 2D 00 1C 10 0A B1 B1 58 .......P-......X
0000E150 CF FF 01 31 81 50 A6 10 1A B2 01 50 13 10 0F F2 ...1.P.....P....
0000E160 E7 1A 0F B3 B0 50 20 00 02 15 98 32 88 5F 18 60 .....P ....2._.`
0000E170 28 4C D8 61 C0 05 BE E2 E1 11 07 52 0B 12 C4 55 (L.a.......R...U
0000E180 FF C0 6B 24 00 56 01 13 12 00 44 B0 3C 00 02 55 ..k$.V....D.<..U
0000E190 FF C0 03 20 4D 60 8D 57 09 1B 2D A0 0F 9A 00 52 ... M`.W..-....R
0000E1A0 1D 1E 07 52 0A 11 C4 55 FF C0 C5 F6 0A 55 00 56 ...R...U.....U.V
0000E1B0 08 11 12 00 24 B0 3C 00 FF C0 95 F7 F3 55 02 5B ....$.<......U.[
0000E1C0 FF C0 43 24 00 56 03 14 04 55 A2 55 FF C0 43 1F ..C$.V...U.U..C.
0000E1D0 E2 1E FF C0 01 21 EF 1D F4 55 FF C0 3F 20 EB 1D .....!...U..? ..
0000E1E0 2D A0 FF C0 7F F7 E7 1D 0D A0 10 01 12 00 04 B0 -...............
0000E1F0 28 00 10 01 00 05 C2 E2 10 01 12 00 04 B0 2C 00 (.............,.
0000E200 10 01 FF C0 77 F3 BF 60 10 00 E5 1C 0F 83 03 00 ....w..`........
0000E210 E0 18 C9 FE 0F C3 14 00 7F 9A E0 18 67 FE 12 00 ............g...
0000E220 24 B0 3C 00 FF C0 29 F7 F3 55 02 5B FF C0 D7 23 $.<...)..U.[...#
0000E230 00 56 0D 10 12 00 24 B0 30 00 04 55 FF C0 D3 1E .V....$.0..U....
0000E240 E0 18 CB FE 20 05 02 E3 FF C0 A5 1E 20 05 16 E3 .... ....... ...
0000E250 FF C0 9D 1E                                     ....            
