;;; Segment 1483 (1483:0000)
1483:0000 00 00 00 00 42 6F 72 6C 61 6E 64 20 43 2B 2B 20 ....Borland C++ 
1483:0010 2D 20 43 6F 70 79 72 69 67 68 74 20 31 39 39 31 - Copyright 1991
1483:0020 20 42 6F 72 6C 61 6E 64 20 49 6E 74 6C 2E 00 44  Borland Intl..D
1483:0030 69 76 69 64 65 20 65 72 72 6F 72 0D 0A 41 62 6E ivide error..Abn
1483:0040 6F 72 6D 61 6C 20 70 72 6F 67 72 61 6D 20 74 65 ormal program te
1483:0050 72 6D 69 6E 61 74 69 6F 6E 0D 0A 00 00 00 00 00 rmination.......
1483:0060 00 00 00 00 00 00 00 00 00 00 00 00 00 00 00 00 ................
; ...
1483:0080 00 00 00 00 00 F4 4E 00 00 00 00 00 00 00 00 00 ......N.........
1483:0090 00 00 00 00 50 52 4F 50 41 43 4B 20 28 74 6D 29 ....PROPACK (tm)
1483:00A0 20 32 2E 31 34 20 52 45 47 49 53 54 45 52 45 44  2.14 REGISTERED
1483:00B0 20 54 4F 20 4F 58 46 4F 52 44 20 44 49 47 49 54  TO OXFORD DIGIT
1483:00C0 41 4C 20 45 4E 54 45 52 50 52 49 53 45 53 20 20 AL ENTERPRISES  
1483:00D0 32 39 2D 31 30 2D 39 32 0A 43 6F 70 79 72 69 67 29-10-92.Copyrig
1483:00E0 68 74 20 28 63 29 20 31 39 39 31 2D 39 32 20 52 ht (c) 1991-92 R
1483:00F0 6F 62 20 4E 6F 72 74 68 65 6E 20 43 6F 6D 70 75 ob Northen Compu
1483:0100 74 69 6E 67 2C 20 55 4B 2E 20 41 6C 6C 20 52 69 ting, UK. All Ri
1483:0110 67 68 74 73 20 52 65 73 65 72 76 65 64 2E 0A 0A ghts Reserved...
1483:0120 00 55 53 41 47 45 3A 20 50 50 20 3C 43 4F 4D 4D .USAGE: PP <COMM
1483:0130 41 4E 44 3E 20 5B 2D 4F 50 54 49 4F 4E 28 53 29 AND> [-OPTION(S)
1483:0140 5D 20 5B 3C 46 49 4C 45 28 53 29 3E 20 7C 20 40 ] [<FILE(S)> | @
1483:0150 4C 49 53 54 46 49 4C 45 3E 5D 0A 0A 3C 4E 4F 4E LISTFILE>]..<NON
1483:0160 2D 41 52 43 48 49 56 45 20 43 4F 4D 4D 41 4E 44 -ARCHIVE COMMAND
1483:0170 53 3E 20 20 70 3A 20 50 61 63 6B 20 20 20 75 3A S>  p: Pack   u:
1483:0180 20 55 6E 70 61 63 6B 20 20 20 76 3A 20 56 65 72  Unpack   v: Ver
1483:0190 69 66 79 0A 0A 3C 41 52 43 48 49 56 45 20 43 4F ify..<ARCHIVE CO
1483:01A0 4D 4D 41 4E 44 53 3E 0A 20 61 20 3C 61 72 63 66 MMANDS>. a <arcf
1483:01B0 69 6C 65 3E 3A 20 41 64 64 20 74 6F 20 61 72 63 ile>: Add to arc
1483:01C0 68 69 76 65 20 20 20 20 20 20 20 20 65 20 3C 61 hive        e <a
1483:01D0 72 63 66 69 6C 65 3E 3A 20 45 78 74 72 61 63 74 rcfile>: Extract
1483:01E0 20 66 72 6F 6D 20 61 72 63 68 69 76 65 0A 20 63  from archive. c
1483:01F0 20 3C 61 72 63 66 69 6C 65 3E 3A 20 43 72 65 61  <arcfile>: Crea
1483:0200 74 65 20 61 72 63 68 69 76 65 20 20 20 20 20 20 te archive      
1483:0210 20 20 6C 20 3C 61 72 63 66 69 6C 65 3E 3A 20 4C   l <arcfile>: L
1483:0220 69 73 74 20 26 20 76 65 72 69 66 79 20 61 72 63 ist & verify arc
1483:0230 68 69 76 65 0A 20 64 20 3C 61 72 63 66 69 6C 65 hive. d <arcfile
1483:0240 3E 3A 20 44 65 6C 65 74 65 20 66 72 6F 6D 20 61 >: Delete from a
1483:0250 72 63 68 69 76 65 20 20 20 78 20 3C 61 72 63 66 rchive   x <arcf
1483:0260 69 6C 65 3E 3A 20 65 58 74 72 61 63 74 20 77 69 ile>: eXtract wi
1483:0270 74 68 20 66 75 6C 6C 20 70 61 74 68 6E 61 6D 65 th full pathname
1483:0280 0A 0A 3C 4F 50 54 49 4F 4E 53 3E 0A 2D 66 3A 20 ..<OPTIONS>.-f: 
1483:0290 28 70 75 76 29 20 6E 6F 6E 2D 61 72 63 68 69 76 (puv) non-archiv
1483:02A0 65 20 46 69 6C 65 20 74 79 70 65 20 20 20 20 2D e File type    -
1483:02B0 74 3A 20 28 70 75 65 29 20 54 61 72 67 65 74 2F t: (pue) Target/
1483:02C0 62 61 73 65 20 64 69 72 65 63 74 6F 72 79 0A 20 base directory. 
1483:02D0 20 20 20 20 66 3C 61 7C 64 7C 6C 7C 6D 7C 70 7C     f<a|d|l|m|p|
1483:02E0 73 3E 20 20 20 20 20 20 20 20 20 20 20 20 20 20 s>              
1483:02F0 20 20 20 20 20 20 20 74 3C 64 69 72 3E 0A 2D 6B        t<dir>.-k
1483:0300 3A 20 28 70 75 76 61 63 65 29 20 4B 65 79 20 70 : (puvace) Key p
1483:0310 72 6F 74 65 63 74 20 66 69 6C 65 20 20 20 20 20 rotect file     
1483:0320 20 2D 75 3A 20 28 70 29 20 55 70 64 61 74 65 20  -u: (p) Update 
1483:0330 66 69 6C 65 73 20 69 6E 20 74 61 72 67 65 74 20 files in target 
1483:0340 64 69 72 65 63 74 6F 72 79 0A 20 20 20 20 20 6B directory.     k
1483:0350 3C 6E 3E 20 28 6E 3D 30 2D 30 78 46 46 46 46 29 <n> (n=0-0xFFFF)
1483:0360 20 20 20 20 20 20 20 20 20 20 20 20 20 2D 76 20              -v 
1483:0370 20 28 70 29 20 56 65 72 69 66 79 20 43 52 43 27  (p) Verify CRC'
1483:0380 73 20 64 75 72 69 6E 67 20 73 65 6C 66 2D 65 78 s during self-ex
1483:0390 74 72 61 63 74 0A 2D 6C 3A 20 28 70 61 63 29 20 tract.-l: (pac) 
1483:03A0 6C 6F 63 6B 20 66 69 6C 65 20 20 20 20 20 20 20 lock file       
1483:03B0 20 20 20 20 20 20 20 20 20 2D 77 3A 20 28 61 6C          -w: (al
1483:03C0 6C 29 20 57 6F 72 6B 20 64 69 72 65 63 74 6F 72 l) Work director
1483:03D0 79 0A 2D 6D 3A 20 28 70 61 63 29 20 63 6F 6D 70 y.-m: (pac) comp
1483:03E0 72 65 73 73 69 6F 6E 20 4D 65 74 68 6F 64 20 20 ression Method  
1483:03F0 20 20 20 20 20 20 20 20 20 20 77 3C 64 69 72 3E           w<dir>
1483:0400 0A 20 20 20 20 20 6D 3C 30 7C 31 7C 32 3E 20 20 .     m<0|1|2>  
1483:0410 20 20 20 20 20 20 20 20 20 20 20 20 20 20 20 20                 
1483:0420 20 20 20 20 2D 78 3A 20 28 70 29 20 36 38 30 30     -x: (p) 6800
1483:0430 30 20 65 58 65 63 20 61 64 64 72 65 73 73 20 6F 0 eXec address o
1483:0440 66 66 73 65 74 0A 2D 72 3A 20 28 61 6C 6C 29 20 ffset.-r: (all) 
1483:0450 52 65 63 75 72 73 65 20 73 75 62 64 69 72 65 63 Recurse subdirec
1483:0460 74 6F 72 69 65 73 20 20 20 20 20 20 20 20 78 3C tories        x<
1483:0470 6E 3E 20 28 6E 3D 30 2D 30 78 46 46 46 46 46 46 n> (n=0-0xFFFFFF
1483:0480 46 46 29 0A 0A 20 20 20 20 20 50 52 4F 50 41 43 FF)..     PROPAC
1483:0490 4B 20 69 73 20 6F 6E 6C 79 20 63 68 61 72 67 65 K is only charge
1483:04A0 61 62 6C 65 20 77 68 65 6E 20 75 73 65 64 20 69 able when used i
1483:04B0 6E 20 61 20 63 6F 6D 6D 65 72 63 69 61 6C 20 70 n a commercial p
1483:04C0 72 6F 64 75 63 74 2E 0A 20 20 20 20 20 20 46 6F roduct..      Fo
1483:04D0 72 20 64 65 74 61 69 6C 73 2C 20 54 65 6C 3A 20 r details, Tel: 
1483:04E0 2B 34 34 20 28 30 29 34 32 38 2D 37 30 37 37 37 +44 (0)428-70777
1483:04F0 31 20 46 61 78 3A 20 2B 34 34 20 28 30 29 34 32 1 Fax: +44 (0)42
1483:0500 38 2D 37 30 37 37 37 32 00 D5 05 83 14 DD 05 83 8-707772........
1483:0510 14 E7 05 83 14 F1 05 83 14 FB 05 83 14 04 06 83 ................
1483:0520 14 12 06 83 14 22 06 83 14 12 06 83 14 2A 06 83 .....".......*..
1483:0530 14 30 06 83 14 35 06 83 14 3A 06 83 14 40 06 83 .0...5...:...@..
1483:0540 14 43 06 83 14 46 06 83 14 DC 05 83 14 DC 05 83 .C...F..........
1483:0550 14 49 06 83 14 4E 06 83 14 43 06 83 14 52 06 83 .I...N...C...R..
1483:0560 14 55 06 83 14 61 06 83 14 6C 06 83 14 7A 06 83 .U...a...l...z..
1483:0570 14 82 06 83 14 8D 06 83 14 A1 06 83 14 AC 06 83 ................
1483:0580 14 B7 06 83 14 C3 06 83 14 D0 06 83 14 E3 06 83 ................
1483:0590 14 F3 06 83 14 07 07 83 14 52 06 83 14 16 07 83 .........R......
1483:05A0 14 27 07 83 14 2F 07 83 14 3A 07 83 14 49 07 83 .'.../...:...I..
1483:05B0 14 5F 07 83 14 77 07 83 14 8E 07 83 14 A6 07 83 ._...w..........
1483:05C0 14 B6 07 83 14 BD 07 83 14 CA 07 83 14 D4 07 83 ................
1483:05D0 14 DC 07 83 14 50 41 43 4B 49 4E 47 00 55 4E 50 .....PACKING.UNP
1483:05E0 41 43 4B 49 4E 47 00 56 45 52 49 46 59 49 4E 47 ACKING.VERIFYING
1483:05F0 00 41 44 44 49 4E 47 20 54 4F 00 43 52 45 41 54 .ADDING TO.CREAT
1483:0600 49 4E 47 00 44 45 4C 45 54 49 4E 47 20 46 52 4F ING.DELETING FRO
1483:0610 4D 00 45 58 54 52 41 43 54 49 4E 47 20 46 52 4F M.EXTRACTING FRO
1483:0620 4D 00 4C 49 53 54 49 4E 47 00 41 4D 49 47 41 00 M.LISTING.AMIGA.
1483:0630 44 41 54 41 00 4C 59 4E 58 00 36 38 30 30 30 00 DATA.LYNX.68000.
1483:0640 50 43 00 53 54 00 41 4D 00 4D 43 36 38 00 45 58 PC.ST.AM.MC68.EX
1483:0650 45 00 4F 4B 00 42 61 64 20 43 6F 6D 6D 61 6E 64 E.OK.Bad Command
1483:0660 00 42 61 64 20 4F 70 74 69 6F 6E 00 42 61 64 20 .Bad Option.Bad 
1483:0670 46 69 6C 65 20 54 79 70 65 00 42 61 64 20 4B 65 File Type.Bad Ke
1483:0680 79 00 42 61 64 20 4D 65 74 68 6F 64 00 49 6E 73 y.Bad Method.Ins
1483:0690 75 66 66 69 63 69 65 6E 74 20 4D 65 6D 6F 72 79 ufficient Memory
1483:06A0 00 43 61 6E 27 74 20 4F 70 65 6E 00 43 61 6E 27 .Can't Open.Can'
1483:06B0 74 20 52 65 61 64 00 43 61 6E 27 74 20 57 72 69 t Read.Can't Wri
1483:06C0 74 65 00 43 61 6E 27 74 20 52 65 6E 61 6D 65 00 te.Can't Rename.
1483:06D0 4E 6F 74 20 61 6E 20 52 4E 43 20 41 72 63 68 69 Not an RNC Archi
1483:06E0 76 65 00 43 6F 72 72 75 70 74 20 41 72 63 68 69 ve.Corrupt Archi
1483:06F0 76 65 00 44 69 72 65 63 74 6F 72 79 20 43 52 43 ve.Directory CRC
1483:0700 20 45 72 72 6F 72 00 43 61 6E 27 74 20 4D 61 6B  Error.Can't Mak
1483:0710 65 20 44 69 72 00 57 41 52 4E 49 4E 47 3A 20 4F e Dir.WARNING: O
1483:0720 56 45 52 4C 41 59 00 53 54 4F 52 49 4E 47 00 43 VERLAY.STORING.C
1483:0730 41 4E 27 54 20 50 41 43 4B 00 41 4C 52 45 41 44 AN'T PACK.ALREAD
1483:0740 59 20 50 41 43 4B 45 44 00 50 41 43 4B 45 44 20 Y PACKED.PACKED 
1483:0750 44 41 54 41 20 43 52 43 20 45 52 52 4F 52 00 55 DATA CRC ERROR.U
1483:0760 4E 50 41 43 4B 45 44 20 44 41 54 41 20 43 52 43 NPACKED DATA CRC
1483:0770 20 45 52 52 4F 52 00 4E 4F 54 20 41 4E 20 52 4E  ERROR.NOT AN RN
1483:0780 43 20 50 41 43 4B 45 44 20 46 49 4C 45 00 43 41 C PACKED FILE.CA
1483:0790 4E 27 54 20 50 41 43 4B 20 4F 56 45 52 4C 41 59 N'T PACK OVERLAY
1483:07A0 20 48 55 4E 4B 00 55 4E 45 58 50 45 43 54 45 44  HUNK.UNEXPECTED
1483:07B0 20 48 55 4E 4B 00 4C 4F 43 4B 45 44 00 4B 45 59  HUNK.LOCKED.KEY
1483:07C0 20 52 45 51 55 49 52 45 44 00 57 52 4F 4E 47 20  REQUIRED.WRONG 
1483:07D0 4B 45 59 00 44 45 4C 45 54 45 44 00 4E 4F 54 20 KEY.DELETED.NOT 
1483:07E0 55 50 44 41 54 45 44 00 25 73 00 0A 25 34 75 20 UPDATED.%s..%4u 
1483:07F0 66 69 6C 65 28 73 29 25 2D 2A 73 20 5B 25 38 6C file(s)%-*s [%8l
1483:0800 75 5D 20 5B 25 38 6C 75 5D 20 5B 25 32 75 2E 25 u] [%8lu] [%2u.%
1483:0810 30 32 75 25 25 5D 20 5B 25 6C 75 68 20 25 6C 75 02u%%] [%luh %lu
1483:0820 6D 20 25 6C 75 73 5D 0A 00 50 55 56 41 43 44 45 m %lus]..PUVACDE
1483:0830 4C 58 00 2E 52 4E 43 00 46 4B 4D 54 57 45 4C 52 LX..RNC.FKMTWELR
1483:0840 56 55 53 00 41 44 4C 4D 50 53 00 25 73 5F 00 25 VUS.ADLMPS.%s_.%
1483:0850 68 69 00 25 49 00 25 69 00 5C 00 31 00 32 00 56 hi.%I.%i.\.1.2.V
1483:0860 00 2E 42 49 4E 00 0D 25 2D 2A 2E 2A 73 20 5B 25 ..BIN..%-*.*s [%
1483:0870 38 6C 75 5D 20 5B 25 38 6C 75 5D 20 5B 25 32 75 8lu] [%8lu] [%2u
1483:0880 2E 25 30 32 75 25 25 5D 00 20 5B 25 73 5D 00 44 .%02u%%]. [%s].D
1483:0890 69 72 65 63 74 6F 72 79 3A 20 25 73 0A 00 25 73 irectory: %s..%s
1483:08A0 20 00 0A 25 73 00 3A 20 25 73 00 00 25 73 20 25  ..%s.: %s..%s %
1483:08B0 73 20 46 49 4C 45 28 53 29 00 20 55 53 49 4E 47 s FILE(S). USING
1483:08C0 20 54 48 45 20 4B 45 59 3A 20 30 78 25 78 00 20  THE KEY: 0x%x. 
1483:08D0 41 4E 44 20 4C 4F 43 4B 49 4E 47 00 0A 0A 00 52 AND LOCKING....R
1483:08E0 4E 43 54 45 4D 50 31 2E 24 24 24 00 77 2B 62 00 NCTEMP1.$$$.w+b.
1483:08F0 25 73 20 25 73 20 46 49 4C 45 28 53 29 00 20 55 %s %s FILE(S). U
1483:0900 53 49 4E 47 20 54 48 45 20 4B 45 59 3A 20 30 78 SING THE KEY: 0x
1483:0910 25 78 00 0A 0A 00 25 73 20 41 52 43 48 49 56 45 %x....%s ARCHIVE
1483:0920 3A 20 25 73 00 20 55 53 49 4E 47 20 54 48 45 20 : %s. USING THE 
1483:0930 4B 45 59 3A 20 30 78 25 78 00 0A 0A 00 72 2B 62 KEY: 0x%x....r+b
1483:0940 00 77 2B 62 00 52 4E 43 54 45 4D 50 31 2E 24 24 .w+b.RNCTEMP1.$$
1483:0950 24 00 41 72 63 68 69 76 65 20 44 69 72 65 63 74 $.Archive Direct
1483:0960 6F 72 79 20 46 75 6C 6C 21 0A 00 00 25 73 20 41 ory Full!...%s A
1483:0970 52 43 48 49 56 45 3A 20 25 73 0A 0A 00 72 2B 62 RCHIVE: %s...r+b
1483:0980 00 00 2A 2E 2A 00 25 73 20 41 52 43 48 49 56 45 ..*.*.%s ARCHIVE
1483:0990 3A 20 25 73 0A 0A 00 72 2B 62 00 52 4E 43 54 45 : %s...r+b.RNCTE
1483:09A0 4D 50 32 2E 24 24 24 00 77 2B 62 00 00 00 00 00 MP2.$$$.w+b.....
1483:09B0 00 00 00 00 00 00 00 00 00 00 00 00 00 00 00 00 ................
; ...
1483:0A10 00 00 00 72 2B 62 00 43 61 6E 27 74 20 46 69 6E ...r+b.Can't Fin
1483:0A20 64 3A 20 25 73 0A 00 25 73 25 73 25 73 25 73 00 d: %s..%s%s%s%s.
1483:0A30 5C 00 2A 2E 2A 00 5C 2A 2E 2A 00 2E 00 2E 2E 00 \.*.*.\*.*......
1483:0A40 52 4E 43 54 45 4D 50 32 2E 24 24 24 00 72 62 00 RNCTEMP2.$$$.rb.
1483:0A50 77 2B 62 00 52 4E 43 54 45 4D 50 33 2E 24 24 24 w+b.RNCTEMP3.$$$
1483:0A60 00 77 2B 62 00 72 2B 62 00 72 62 00 00 00 52 4E .w+b.r+b.rb...RN
1483:0A70 43 02 00 00 64 8A 00 00 17 54 12 1D A7 B8 02 03 C...d....T......
1483:0A80 17 43 3C 4F 4D 5F 31 2E 42 49 4E 00 01 F6 83 EC .C<OM_1.BIN.....
1483:0A90 10 8B EC BE FA 02 FC E8 41 00 05 0F 8B 00 C8 E8 ........A.......
1483:0AA0 39 00 8B D0 03 C6 35 05 06 06 C3 F8 E8 2D 00 AD 9.....5......-..
1483:0AB0 88 66 0A 32 E4 89 76 0C 0D F7 03 C1 11 3B 2E FE .f.2..v......;..
1483:0AC0 76 78 0E FD 57 4E 4F 8B CA F3 A4 47 89 7E 00 5E vx..WNO....G.~.^
1483:0AD0 FC 8B FE 56 BE 56 01 B9 A0 01 10                ...V.V.....     

;; fn1483_0ADB: 1483:0ADB
fn1483_0ADB proc
	ret

;; fn1483_0ADC: 1483:0ADC
fn1483_0ADC proc
	call	0D3Fh
	fsubr	dword ptr es:[di+0E086h]
	pusha
	ret
1483:0AE6                   19 02 81 C7 80 64 00 06 04 87       .....d....
1483:0AF0 06 06 8B 01 40 04 89 46 0C BF 80 62 C6 46 0B 00 ....@..F...b.F..
1483:0B00 B0 02 33 E8 AA 10 56 38 05 FA 05 04 38 E8 F4 05 ..3...V8....8...
1483:0B10 06 06 E8 EE 00 E8 93 2B 08 46 08 EB 1C 08 13 57 .......+.F.....W
1483:0B20 00 51 00 14 50 00 83 C1 02 58 40 31 8B D6 7F 2B .Q..P....X@1...+
1483:0B30 F0 88 62 8B F2 06 35 3B 00 E3 25 0B 1B 8A 4E 0B ..b...5;..%...N.
1483:0B40 53 2E 6F D3 7A C0 BA 01 00 D3 E2 4A 21 56 0C 23 S.o.z......J!V.#
1483:0B50 D0 8B 44 02 D3 E3 D3 E0 0B C2 09 5E 0C 4A E1 0E ..D........^.J..
1483:0B60 FF 4E 08 75 B2 FE 4E 0A 75 93 BE 80 78 83 C4 10 .N.u..N.u...x...
1483:0B70 33 C0 FF 30 E6 87 4A 4E 0C AD C0 37 23 D9 AD 3B 3..0..JN...7#..;
1483:0B80 C3 06 75 F6 8B 4C 3C 11 B9 72 8A C5 E8 1A 00 32 ..u..L<..r.....2
1483:0B90 ED 80 F9 02 72 10 FE C9 8A C1 E8 0C 00 BB 54 E1 ....r.........T.
1483:0BA0 E3 0B C3 8B C8 C3 B0 10 51 8A C8 8B 98 4C 8B 52 ........Q....L.R
1483:0BB0 8A 6E 48 0B 6C 23 00 D3 52 2A E9 73 21 02 E9 26 .nH.l#..R*.s!..&
1483:0BC0 86 CD 10 B8 6C D0 D3 CA D3 E8 D3 EB 0B DA 83 C6 ....l...........
1483:0BD0 02 96 16 2A 1B CD B5 10 22 DC 08 1C 93 66 89 46 ...*...."....f.F
1483:0BE0 88 46 07 58 59 C3 57 52 60 7C B0 05 E8 A0 60 FF .F.XY.WR`|....`.
1483:0BF0 64 E3 67 8B FC 35 51 B0 F5 C3 94 FF 36 88 05 47 d.g..5Q.....6..G
1483:0C00 E2 F5 59 56 8B F4 83 48 36 8B 7C 0B 21 01 33 DB ..YV...H6.|.!.3.
1483:0C10 87                                              .               

;; fn1483_0C11: 1483:0C11
;;   Called from:
;;     1483:0C55 (in fn1483_0C55)
fn1483_0C11 proc
	mov	dx,8000h
	push	cx
	push	si
	cmp	al,ss:[si]
	jnz	0C4Dh

l1483_0C1B:
	push	ax
	push	bx
	sbb	al,8Ch
	mov	ax,1955h
	loopne	0C6Ch

l1483_0C24:
	stosw
	cmpsw
	mov	cl,9Bh
	illegal
	push	si
	imul	dx,[bx+si],0D7h
	xchg	cl,dl
	fcmovnbe	st(0),st(1)
	shl	dl,1h
	cli
	stosw
	mov	ax,si
	sub	ax,sp
	sub	ax,2EBCh
	mov	bh,ss:[di+24h]
	mov	es:[di+3Ch],ax
	pop	cx
	pop	bx
	pop	ax
	add	bx,dx
	inc	si
	loop	0C13h

l1483_0C4D:
	pop	si
	pop	cx
	shr	dx,1h
	inc	al
	cmp	al,11h

;; fn1483_0C55: 1483:0C55
;;   Called from:
;;     1483:0C53 (in fn1483_0C11)
;;     1483:0C96 (in fn1483_0C91)
fn1483_0C55 proc
	jnz	0C11h

l1483_0C57:
	pop	si
	test	[si],ax
	pop	dx
	pop	di
	ret
1483:0C5D                                        41 01 4B              A.K
1483:0C60 56 50 03 02 67 6A 86 16 40 03 6E 03             VP..gj..@.n.    

l1483_0C6C:
	cld
	daa
	call	1BB8h
	add	di,[bx]
	add	ax,[bx+3303h]
	xchg	ebx,eax
	adc	dh,[si+147Ch]
	sbb	ax,903h
	pop	sp
	add	[bx+di+20Eh],di
	loopne	0CA0h

l1483_0C87:
	or	dx,cx
	mov	ax,[bx]
	push	si
	adc	ch,al
	movsb
	add	ax,ax

;; fn1483_0C91: 1483:0C91
;;   Called from:
;;     1483:0C8F (in fn1483_0C11)
;;     1483:0D04 (in fn1483_0CFC)
;;     1483:0D04 (in fn1483_0CFC)
fn1483_0C91 proc
	pop	es
	adc	dx,ax
	add	al,ch
	jno	0C55h

l1483_0C98:
	imul	dx,[bx+si],18h
	loope	0CA9h

l1483_0C9D:
	add	[bx+si+2203h],cx

;; fn1483_0CA0: 1483:0CA0
;;   Called from:
;;     1483:0C85 (in fn1483_0C11)
;;     1483:0C9B (in fn1483_0C91)
;;     1483:0C9D (in fn1483_0C91)
fn1483_0CA0 proc
	and	al,[3101h]
	add	ah,[bx+si]
	call	0FD4Eh

l1483_0CA9:
	add	dl,[bx]
	imul	dx,[si+173Eh],0C62h
	add	[bx],dl
	dec	bp
	add	bl,ah
	sub	ax,32ACh
	rol	byte ptr [bx+di-56h],0E2h
	stc
	ror	word ptr [bp+7Ch],1h
	adc	[bx],bl
	and	bl,[bx]
	stosb
	sbb	ax,8B1Fh
	add	[bx],bx
	mov	cx,di
	sub	cx,si
	xchg	[di+14h],ax
	call	4FE0h
	sub	[0F7E3h],dx
	sub	ax,sp
	add	[bx+di],bp
	push	si
	push	cx
	sbb	cl,[bp+di+27Eh]
	push	si
	in	ax,8Bh

l1483_0CE5:
	mov	ax,bx
1483:0CE7                      B9 08 00 D1 E8 73                 .....s   

;; fn1483_0CED: 1483:0CED
;;   Called from:
;;     1483:0D50 (in fn1483_0D3F)
fn1483_0CED proc
	add	si,[di]
	add	[bx+si+0F7E2h],sp
	stosw
	inc	bl
	jnz	0CE5h

l1483_0CF8:
	pop	cx
	rcr	byte ptr [bx+si],0ACh

;; fn1483_0CFA: 1483:0CFA
;;   Called from:
;;     1483:0D40 (in fn1483_0D3F)
fn1483_0CFA proc
	sbb	[si+0D832h],ch

;; fn1483_0CFC: 1483:0CFC
;;   Called from:
;;     1483:0CF9 (in fn1483_0CED)
;;     1483:0CFA (in fn1483_0CFA)
fn1483_0CFC proc
	xor	bl,al
	mov	al,[bx+di]
	mov	word ptr [bp+si],0D1FFh
	jcxz	0C91h

;; fn1483_0D06: 1483:0D06
;;   Called from:
;;     1483:0D02 (in fn1483_0CFC)
;;     1483:0D04 (in fn1483_0CFC)
fn1483_0D06 proc
	sbb	[bx+0E209h],dx
	sub	ax,5EF1h
	cmp	bx,dx
	jz	0D2Bh

l1483_0D11:
	call	0D14h
	pop	dx
	add	dx,0Dh
	mov	ah,9h
	int	21h
	mov	ax,4CFFh
	add	al,70h
	inc	dx
	popa
	and	fs:[bp+di+52h],al
	inc	bx
	or	ax,240Ah

l1483_0D2B:
	ret
1483:0D2C                                     90 94 4A 77             ..Jw
1483:0D30 19 76 04 D3 12 D0 76 08 7D 03 38 5F 7A AE 28    .v....v.}.8_z.( 

;; fn1483_0D3F: 1483:0D3F
;;   Called from:
;;     1483:0ADC (in fn1483_0ADC)
fn1483_0D3F proc
	push	ax
	jpe	0CFAh

l1483_0D42:
	add	al,ch
	mov	bl,0B4h
	sub	ch,[bx+si+2h]
	adc	ax,0FC68h
	push	si
	xor	dh,17h
	jl	0CEDh

l1483_0D52:
	add	ah,[di]
	push	0F5Fh
	push	0C58h
	xchg	[bx+si+43h],bp
	shl	byte ptr [di],68h
	add	sp,12h
	clc
	neg	word ptr [bp-6h]
	push	es
	into

l1483_0D69:
	mov	[si+5C87h],ch
	test	[si],dx
	call	8A82h
	pusha
	adc	bx,[bx+di-79h]
	adc	[bp+di+0F512h],dh
	and	[bx+7Dh],al
	sbb	ax,8747h
	adc	al,ch
	xchg	si,ax
	aad	8h
	xchg	[si+995Dh],si
	push	sp
	add	al,2Ah
	sbb	dh,bh
	add	bx,[bx+si]
	clc
	add	al,ch
	popf
	loope	0D99h

l1483_0D97:
	sbb	[bx+di+28h],ah

l1483_0D99:
	sub	[bx+si],bl

l1483_0D9A:
	sbb	[si+5Ah],bh

l1483_0D9B:
	jl	0DF7h

l1483_0D9D:
	or	al,3Fh
	sbb	[di+2Dh],al
	mov	dl,99h
	stosb
	jns	0DB9h

l1483_0DA7:
	stosb

l1483_0DA8:
	jns	0DBEh

l1483_0DAA:
	clc
	neg	word ptr [bp+si]
	cli
	dec	di
	pop	word ptr [bx+di+45h]
	pop	ax
	inc	bp
	add	[bx+si+0C079h],bp
	dec	bp

l1483_0DB9:
	pop	dx
	shr	byte ptr [bx+di],1h
	add	[bx+di+2h],cl

l1483_0DBE:
	add	al,[0047h]

l1483_0DBF:
	push	es
	inc	di
	add	[03BCh],cl
	or	ax,[0E00h]
	add	[si+8ED3h],cl
	ret
	mov	dx,cs
	mov	ds,dx
1483:0DD2       30 8B 0E 89 8B F1 83 B9 60 EE 02 8B FE D1   0.......`.....
1483:0DE0 E9 FD F3 A5 53 B8 35 00 50 8B 2E 0A 00 03 16 CE ....S.5.P.......
1483:0DF0 CB B8 00                                        ...             

l1483_0DF3:
	adc	[bx+si],bl
	cmp	ax,bp

l1483_0DF7:
	jbe	0E14h

l1483_0DF9:
	lds	bp,[bp+di]
	push	es
	call	0E62Ah
	sub	dx,ax
	lds	si,cs:[si]
	mov	cl,3h
	ret
1483:0E07                      D3 E0 8B C8 D1 E0 48 48 8B        ......HH.
1483:0E10 F0 8B F8 0B                                     ....            

l1483_0E14:
	xor	[bp+di],cl
	in	ax,dx
	jnz	0DA8h

l1483_0E19:
	frndint
	pop	es
	mov	ds,bx
	sub	sp,1Ch
	mov	bp,sp
	sub	sp,180h
	mov	ax,sp
	inc	bx
	push	bp
	add	ax,8FA0h
	inc	si
	or	ah,[bp+si+0C05h]
	loope	0DF3h

l1483_0E35:
	adc	[bx+si],ax
	lodsb
	mov	[bp+14h],al
	xor	di,di
	mov	[bp+15h],di
	adc	[bp+0E16h],dl
	push	es
	mov	[bp+4h],ss
	adc	byte ptr [bp+di+137h],0E8h
	xor	ah,[bx+si+1h]
	push	cs
	sbb	cl,[si+5Eh]
	xor	[si+6346h],cl
	push	si
	or	al,ch
	jz	0ED9h

l1483_0E5E:
	push	cs
	lahf
	or	ch,al
	jnz	0E70h

l1483_0E64:
	add	ax,0E80Ch
	outsw
	sbb	ax,0E014h
	sbb	ax,0EB12h
	and	al,[bp+si+0D213h]

l1483_0E70:
	adc	dx,dx

l1483_0E72:
	and	bx,[bx+143Eh]
	retf
1483:0E77                      04 0E 9F 8E 5E 9C 0D 04 00        ....^....
1483:0E80 88 A5 C9 3B B0 55 BE 1A 55 BE 0F 1A 8A 4E 15 06 ...;.U..U....N..
1483:0E90 87 AD 16 C3 05 AD 16 2E 58 18 BC FF 4E 12 75 A4 ........X...N.u.
1483:0EA0 8B DF 83 E7 0F 81 C7 00 80 B1 04 D3 EB 8C C0 03 ................
1483:0EB0 C3 2D 00 08 8E C0 8B DE 83 E6 0F 0F 62 D8 0F 8E .-..........b...
1483:0EC0 D8 E9 FE 4E 14 74 03 E9 59 FF 1F 1E 07 0E 1F 8C ...N.t..Y.......
1483:0ED0 C2 32 ED BE A0 02                               .2....          

l1483_0ED6:
	lodsb
	mov	cl,al

l1483_0ED9:
	jcxz	0EEEh

l1483_0EDB:
	lodsw
	add	ax,dx
	mov	ch,2Ah
	aad	0C3h
	xor	ah,ah

l1483_0EE4:
	lodsb
	add	di,ax
	add	es:[di],dx
	loop	0EE4h

l1483_0EEC:
	jmp	0ED6h

l1483_0EEE:
	or	al,20h
	mov	si,[9004h]
	add	ds:[0300h],ax
	cli
	add	[8602h],dx
	lodsw
	jmp	far 3024h:8E10h
1483:0F04             DA 33 26 DB FA 8B 01 E6 8E D7 FB 2E     .3&.........
1483:0F10 FF 2F F3 01 BE 12 10 16 CF BF 04 05 9E 13 7C CF ./............|.
1483:0F20 1E 98 16 18 8B C5 8A 6E 7C 15 38 99 16 18 89 46 .......n|.8....F
1483:0F30 88 BA 46 56 16 06 94 17 9F 4A 17 69 52 17 93 F9 ..FV.....J.iR...
1483:0F40 11 17 3E 16 07 44 4A 19 07 C3 89 CC 5C 35 03 EB ..>..DJ.....\5..
1483:0F50 F8 0C CC 7C 12 11 7C CC 17 3E D0 39 30 11 D0 20 ...|..|..>.90.. 
1483:0F60 1B D0 83 E0 09 D0 C7 46 01 1C 3A 00 8C 4E 1E 1E .......F..:..N..
1483:0F70 AE 4D 70 30 CD 21 3C 03 72 63 8C C0 2C 10 8E D8 .Mp0.!<.rc..,...
1483:0F80 8E 1E 2C 00 33 F6 AC 0A C0 75 FB 04 76 F6 30 00 ..,.3....u..v.0.
1483:0F90 89 76 1C 8C 5E 1E 8B D6 30 B4 3D 28 8B D8 B4 00 .v..^...0.=(....
1483:0FA0 3F B9 20 00 06 1F 33 D2 C0 0C 72 29 81 3E 14 E0 ?. ...3...r).>..
1483:0FB0 D3 75 21 83 30 3E 16 BE 75 1A 2E 06 A1 0E 00 39 .u!.0>..u......9
1483:0FC0 06 F0 33 75 10 09 10 8C 09 04 09 06 30 B4 3E 28 ..3u........0.>(
1483:0FD0 EB 06 BA 01 B5 03 E9 94 02 1F BE 85 11 E8 28 01 ..............(.
1483:0FE0 54 C8 10 E8 77 1F 43 49 8B D3 E8 18 0C 0F 5E 1A T...w.CI......^.
1483:0FF0 BE 45 E8 3E 26 02 12 7E 65 02 55 5F 81 2A 5F 7B .E.>&..~e.U_.*_{
1483:1000 90 5F 75 01 E8 1A F9 02 5F 4A D8 5F 5F D1 12 29 ._u....._J.__..)
1483:1010 5F B6 F7 05 E5 1D 57 AC F2 21 57 61 01 FF 1F 33 _.....W..!Wa...3
1483:1020 F6 8B 4E 0E DD B5 03 8B 46 1A E8 5E 01 E4 01 65 ..N.....F..^...e
1483:1030 CB 03 F9 F7 65 F9 4C 65 0C 50 1E 06 51 53 8B 3F ....e.Le.P..QS.?
1483:1040 7E 08 0D BC 84 17 0F 59 E3 01 42 01 EA 87 26 3A ~......Y..B...&:
1483:1050 88 83 00 FE 00 75 07 8C D8 80 C4 E8 E1 5C E2 63 .....u.......\.c
1483:1060 E4 4A 75 E1 07 1F 58 3B C3 74 46 BA B1 03 0E 1F .Ju...X;.tF.....
1483:1070 A0 97 C5 76 1C 0E 07 07 BF CA 03 AC AA 40 F4 FA ...v.........@..
1483:1080 4F B8 03 0D 0A AB B0 24 AA 0F 1B BA BB 03 01 EF O......$........
1483:1090 B6 74 B2 24 56 B9 4A 69 72 75 73 24 20 43 68 65 .t.$V.Jirus$ Che
1483:10A0 63 6B 20 46 61 69 6C 65 64 3A 20 65 F7 D7 C3 B2 ck Failed: e....
1483:10B0 F5 7A C3 1A FD 27 C3 7C 29 03 AA 5D 73 55 5D 6D .z...'.|)..]sU]m
1483:10C0 27 5D 67 01 73 EE F2 01 5D CA 94 BE 5D C3 12 5F ']g.s...]...].._
1483:10D0 5D A8 51 3F 5D 01 2F 4F 92 F7 EF B5 F5 52 B5 4B ].Q?]./O.....R.K
1483:10E0 3E BF B6 F9 7E AF B6 22 11 EA B6 1E 3A B6 20 FE >...~.."....:. .
1483:10F0 1D 87 B6 1E 8C 5E 20 F4 37 B6 C3 03 25 E9 A2 D5 .....^ .7...%...
1483:1100 B6 36 BA B6 2D 97 5D B6 26 D4 B6 1C 75 B6 34 FD .6..-.].&...u.4.
1483:1110 11 B6 0F 45 01 E8 40 06 B1 1C 89 52 5E 83 A9 5E ...E..@....R^..^
1483:1120 67 7D 1D 22 CA 02 5E E0 52 5E D9 F9 12 5E 7D BE g}."..^.R^...^}.
1483:1130 59 9F 1C 02 D7 C4 1C F5 04 C4 D9 FD F7 C4 FE 99 Y...............
1483:1140 BF C4 BF 01 AE C4 1E EB C4 D8 FA 0A C4 C9 FE 1C ................
1483:1150 85 C4 4D 43 36 38 BA C5 32 2E 48 E7 7B FF FF 41 ..MC68..2.H.{..A
1483:1160 FA 02 30 4F EF FE 80 24 4F 20 18 47 E8 00 0A 4B ..0O...$O .G...K
1483:1170 FA FF EA 4D F5 AA 18 0D 49 F3 05 70 00 03 10 2B ...M....I..p...+
1483:1180 FF FE 41 F6 87 0F 08 08 56 05 E1 67 02 52 48 22 ..A.....V..g.RH"
1483:1190 48 B1 CC 63 2C 20 0C 41 0F 04 52 4C BD 11 04 1B H..c, .A..RL....
1483:11A0 72 49 EC FF E0 4C D4 00 FF 48 E0 FF 00 B9 CB 62 rI...L...H.....b
1483:11B0 F0 97 CC D7 C8 C0 63 00 12 2F 09 30 06 3C 00 38 ......c../.0.<.8
1483:11C0 22 D8 01 17 51 C8 FF 1C FA 4E 75 7E 00 1C 2B 00 "...Q....Nu~..+.
1483:11D0 01 E1 5E 1C 13 72 02 61 3C A6 38 20 4A 05 D0 0E ..^..r.a<.8 J...
1483:11E0 41 EA 00 80 61 07 31 EA 01 00 C7 07 C0 00 03 88 A...a.1.........
1483:11F0 53 40 38 00 60 43 1C 19 03 8D 61 42 44 80 43 28 S@8.`C....aBD.C(
1483:1200 9D FF 1F 36 37 1A D9 01 1C 4D FC 3B 60 2A 25 6B ...67....M.;`*%k
1483:1210 1A 1A DB 82 0D 10 17 57 3D 58 10 13 EF A8 72 01 .......W=X....r.
1483:1220 EF 69 53 41 CC 81 8C 80 51 CC FF C0 BB CE 65 9A .iSA....Q.....e.
1483:1230 60 4F 71 F4 30 18 C0 46 90 58 66 F8 12 28 00 3C `Oq.0..F.Xf..(.<
1483:1240 9E 01 6C C1 7D 34 E2 AE 10 8C 0B 3D B0 9F 02 1D ..l.}4.....=....
1483:1250 6D 16 53 51 33 14 00 30 9A 0F 3E 25 8C 1D 16 1D m.SQ3..0..>%....
1483:1260 05 60 C0 AF 70 FF 72 10 99 11 04 B0 11 0F DE 01 .`..p.r.........
1483:1270 EE 01 AE 48 46 58 4B 1C 23 C6 C3 23 09 0D 92 07 ...HFXK.#..#....
1483:1280 7E 10 1D 80 17 72 03 E1 88 10 18 20 51 C9 E3 70 ~....r..... Q..p
1483:1290 07 1F 72 05 61 CA 05 99 7C 34 00 CF 36 00 4F EF ..r.a...|4..6.O.
1483:12A0 FF F0 22 4F 70 0F 72 04 61 B6 12 C0 51 CA FF F6 .."Op.r.a...Q...
1483:12B0 70 01 E2 98 17 A3 74 00 6C 48 E7 07 00 38 03 43 p.....t.lH...8.C
1483:12C0 EF 00 0C B2 19 66 3A 7A 01 E3 6D 53 45 30 C5 2A .....f:z..mSE0.*
1483:12D0 02 48 45 3E 01 53 47 E3 55 E2 56 51 CF 4F 7A 00 .HE>.SG.U.VQ.Oz.
1483:12E0 10 9A 01 EA 6E 30 C6 11 60 41 B7 1A 03 9A 04 33 ....n0..`A.....3
1483:12F0 11 45 B3 7C 00 1F 05 EB 6E 53 46 31 46 CA AF D4 .E.|....nSF1F...
1483:1300 03 E5 E2 88 52 01 B2 00 C9 11 66 AE 4C DF 00 E0 ....R.....f.L...
1483:1310 C6 73 00 10 87 03 20 3A 00 4C 9B C0 1D 0B 01 80 .s.... :.L......
1483:1320 81 89 3A 70 0A 3F 20 1B 27 98 0B 08 08 90 30 8E ..:p.? .'.....0.
1483:1330 DB 07 26 4E D7 81 1D 2E 81 8C 33 FF FF 2F 42 40 ..&N......3../B@
1483:1340 1E 1F 2F 4D 00 00 52 4C EF 7F FF 00 16 E3 45 52 ../M..RL......ER
1483:1350 47 15 65 05 13 3E F5 C9 3E 38 3F 7C 3C 61 3E 3F G.e..>..>8?|<a>?
1483:1360 3A 11 1C 3F B2 03 6A AA E6 84 45 D6 E1 45 CE 38 :..?..j...E..E.8
1483:1370 45 71 C6 03 8E F0 05 45 48 F8 03 45 7C 3C 03 3B Eq.....EH..E|<.;
1483:1380 45 30 03 AB 20 1A DB BB 2D 70 D7 11 F8 E2 7C 5D E0.. ...-p....|]
1483:1390 0F 3A 4B BA 1F 4B 94 F7 1F 4B 40 12 4B A0 92 02 .:K..K...K@.K...
1483:13A0 90 9C 3A 4C 8E 1F 4C 00 0E 00 4C 22 4B 61 00 01 ..:L..L...L"Ka..
1483:13B0 06 DE 72 FF B4 6B 50 67 66 31 3A C3 47 5C 42 E0 ..r..kPgf1:.G\B.
1483:13C0 86 5C 01 2A F8 EB 5C 17 4A 76 00 08 22 03 74 07 .\.*..\.Jv..".t.
1483:13D0 E2 49 64 04 0A 41 A0 01 01 7B 30 C1 52 03 66 EA .Id..A...{0.R.f.
1483:13E0 85 7B 12 19 B3 C3 02 32 02 02 42 00 FF D4 42 34 .{.....2..B...B4
1483:13F0 32 20 30 32 49 0F 53 80 66 54 E8 0B 92 58 9B C0 2 02I.S.fT...X..
1483:1400 86 22 4D 61 C0 72 FE B4 7A 00 54 66 1E 4D 3E 02 ."Ma.r..z.Tf.M>.
1483:1410 00 14 37 9E 1D C4 20 9E E1 9D 84 38 9D 7C 82 17 ..7... ....8.|..
1483:1420 3E 9D D2 01 1F 9D 2E 47 0F 9D 40 7A FF 3A C7 F7 >......G..@z.:..
1483:1430 91 C1 79 91 53 54 6A 47 B9 BC 60 1A 1F 0F 7C 0C ..y.STjG..`...|.
1483:1440 CE A7 42 9C 3F AA 9E 61 EF 95 46 F7 A7 D5 FE 72 ..B.?..a..F....r
1483:1450 89 BA 97 C0 89 24 6F 00 44 22 0D 60 30 0F A4 66 .....$o.D".`0..f
1483:1460 2E 20 01 4D 43 FA 00 8C D1 D9 C0 01 E9 00 04 2C . .MC..........,
1483:1470 07 48 20 18 67 1A 6E 5B C6 F3 D3 91 C1 0E 67 0E .H .g.n[......g.
1483:1480 D3 C0 C1 11 01 66 F2 43 87 1D FD 60 EE 61 C3 60 .....f.C...`.a.`
1483:1490 25 58 B8 A1 03 14 E1 03 1C 25 87 85 08 D2 AA 33 %X.......%.....3
1483:14A0 0F 07 10 8E 07 14 38 07 18 23 3C F8 03 B6 44 4F ......8..#<...DO
1483:14B0 7F B6 04 C6 E3 3F 00 3F 51 1F 4C 4E 41 12 1F B8 .....?.?Q.LNA...
1483:14C0 06 11 9F 13 C6 B1 41 C8 F0 1B C7 AA F8 61 C7 7D ......A......a.}
1483:14D0 47 F7 9F 5D F7 1F D3 39 12 D3 A0 2B 03 1A A8 D4 G..]...9...+....
1483:14E0 7C 8C 15 3E D4 FC 21 C7 E5 94 C3 47 E4 50 EC F7 |..>..!....G.P..
1483:14F0 E5 FA B4 1F 53 C6 03 40 53 C2 66 78 8A 3E 35 6E ....S..@S.fx.>5n
1483:1500 6D 26 47 AD CC 2C 26 E5 25 0E F2 1B 25 F0 FB 21 m&G..,&.%...%..!
1483:1510 5F 6D 88 47 2F 25 4E F7 B7 6D E7 F7 19 E4 6A 19 _m.G/%N..m....j.
1483:1520 41 4D FF 01 18 6B A4 0F 03 E9 E0 14 A6 48 7A 3A AM...k.......Hz:
1483:1530 02 92 52 09 FE 9C 05 0D FF 03 EC 2A 57 4A 95 67 ..R........*WJ.g
1483:1540 03 21 62 2A 55 DB CD 01 01 2E 8D 58 4D 41 ED 8C .!b*U......XMA..
1483:1550 9B 0C 98 52 43 C9 BD E2 4F 27 C8 07 23 CA 20 2B ...RC...O'..#. +
1483:1560 03 FF FA 72 FF B0 42 A4 25 3A 48 66 40 97 2F 0F ...r..B.%:Hf@./.
1483:1570 7C F2 03 FC 2D 0D FC 1D 0C 87 1B 28 4D D9 D4 CA |...-......(M...
1483:1580 07 0B C2 A5 0B E0 39 0B 4E D8 5C 0B D0 03 7C A4 ......9.N.\...|.
1483:1590 05 BE 0B 5E 03 5F 0B 52 03 29 0B 46 76 2B 72 0B ...^._.R.).Fv+r.
1483:15A0 02 DF 9D 05 23 11 A9 53 81 FA 04 2B 20 56 1F E3 ....#..S...+ V..
1483:15B0 CE 5B F8 CC E5 5F CD 01 70 6C DD 22 60 1F 00 FE .[..._..pl."`...
1483:15C0 EC 56 35 27 28 1B D6 91 1B 36 00 38 F2 04 1B C2 .V5'(....6.8....
1483:15D0 E9 1B 11 CB FF F6 36 13 93 1F 36 04 E4 25 1B 04 ......6...6..%..
1483:15E0 9A 7C 03 0B BE 1B CB 44 4E 1B 0C 94 80 4D EC 66 .|.....DN....M.f
1483:15F0 2C 42 06 9C 22 14 67 F2 05 30 20 14 03 41 FA FD ,B..".g..0 ..A..
1483:1600 06 A2 20 50 D1 C8 01 8F 84 A1 24 08 58 82 00 15 .. P......$.X...
1483:1610 D5 B5 08 00 53 81 08 66 F4 60 D6 92 51 FD 80 E1 ....S..f.`..Q...
1483:1620 E5 88 58 80 2F 40 02 40 22 2F 02 04 D0 D7 04 88 ..X./@.@"/......
1483:1630 D7 25 7F FF 04 BB 03 F2 44 AF ED C4 4E 54 1D AF .%......D...NT..
1483:1640 92 09 AF 44 C3 AF 80 E1 05 AF 14 F1 1E AF F1 43 ...D...........C
1483:1650 99 17 8F 4E B8 84 CB D8 E1 9F D0 38 9F 71 C8 03 ...N.......8.q..
1483:1660 9C F0 05 9F 56 F8 03 9F 7C 4A 03 3B 9F 3E 3E F5 ....V...|J.;.>>.
1483:1670 26 07 8F CB 12 87 A5 B4 42 A5 8E 23 A5 86 5F EC &.......B..#.._.
1483:1680 60 A2 7F 04 00 E3 DE 97 E1 0F 61 F0 F0 19 61 CE `.........a...a.
1483:1690 94 01 61 01 C0 22 2F 01 84 D6 BE 7A 84 02 27 61 ..a.."/....z..'a
1483:16A0 13 5F BA 10 B0 70 60 A9 E8 60 7D 9E 0D DF 10 6E ._...p`..`}....n
1483:16B0 23 77 10 D6 DD 03 10 46 F7 47 10 45 CE B3 2A 84 #w.....F.G.E..*.
1483:16C0 76 E6 E1 76 DE 38 76 45 D6 BF 5E 05 0F 76 64 03 v..v.8vE..^..vd.
1483:16D0 87 76 58 C3 03 76 4C E3 2E 76 EE 0D 1C E0 FB F7 .vX..vL..v......
1483:16E0 FD 1C 2C DF 1C 96 19 0F BA 74 1A BC 1C A1 BA 48 ..,......t.....H
1483:16F0 38 BA 74 8F 3E BA 38 0D EF 1B 08 69 BA 1B B4 A1 8.t.>.8....i....
1483:1700 9E D2 38 9E 4E CA 1C 9E C2 03 7C 96 05 3E 9E 50 ..8.N.....|..>.P
1483:1710 03 1F 9E 44 03 0F 9E 38 28 FC B5 EE 0F 10 FB F5 ...D...8(.......
1483:1720 BE 0F FC 19 1F 54 DA 14 70 0F 43 4F 4D 5F 54 32 .....T..p.COM_T2
1483:1730 00 53 01 46 BE 4A 02 FC E8 CC 75 05 0A 8B 00 C8 .S.F.J....u.....
1483:1740 E8 34 00 8B D0 03 C6 32 05 06 06 F8 E1 83 C6 04 .4.....2........
1483:1750 AD 32 E4 8B EE 8B F7 03 C1 8B 0D 3B FE 9E 76 0D .2.........;..v.
1483:1760 FD 57 4E 4F 8B CA F3 A4 47 8B EF 5E FC 8B FE 56 .WNO....G..^...V
1483:1770 BE 4C 01 B9 FA 00 0F                            .L.....         

;; fn1483_1777: 1483:1777
fn1483_1777 proc
	sbb	bl,al
	call	467Eh
	fsubr	dword ptr [di+61B8h]
	xchg	al,ah
	ret
1483:1783          8B F5 F9 AC 12 C0 02 C0 BF 4C E9 8B 00    .........L...
1483:1790 C2 0A EB 31 08 04 32 20 04 33 04 3B 80 04 06 B1 ...1..2 .3.;....
1483:17A0 04 D7 22 1E 74 F5 12 FF E2 F8 B1 03 02 CF 02 C9 ..".t...........
1483:17B0 F3 A5 EB 5E 1C 18 72 6E 16 1C CA 12 C9 05 1C C9 ...^..rn........
1483:17C0 73 0D 05 18 C8 FE C9 0D 80 F9 1C 09 74 CE 0C 18 s...........t...
1483:17D0 C0 73 21 05 75 03 E6 27 38 98 08 72 57 03 0A FF .s!.u..'8..rW...
1483:17E0 75 0B FE C7 C2 01 17 8A 1C 46 00 B0 4E 2B F3 FA u........F..N+..
1483:17F0 F3 1B 26 A4 FB 8E 40 6B 26 0C A4 C7 21 72 05 00 ..&...@k&...!r..
1483:1800 04 73 F6 74 EF B1 02 70 2A 3F 74 8F 38 73 92 05 .s.t...p*?t.8s..
1483:1810 2D 0E 73 CC FE C1 0B 07 2A 73 9D 87 8A 0C 46 0A -.s.....*s....F.
1483:1820 C9 74 26 80 C1 08 EB 91 85 01 50 80 CF 04 82 6B .t&.......P....k
1483:1830 A3 EB 98 08 BC CE 2C 04 D1 14 30 A7 BE E9 33 C0 ......,...0...3.
1483:1840 FF 2B E6 90 4B 51 A1 61 01 A8 BE AC D9 52 3E 3C .+..KQ.a.....R><
1483:1850 52 36 FC 02 52 E8 0F 2A 00 53 50 18 C0 54 4E 01 R6..R..*.SP..TN.
1483:1860 B9 5A 01 FD 06 54 83 1F 5A E8 FE 00 F3 02 5A 8A .Z...T..Z.....Z.
1483:1870 F3 0C 5A 3A F3 10 5A 5D F2 08 5A 0C 32 5A 49 59 ..Z:..Z]..Z.2ZIY
1483:1880 59 CF C7 0B C1 E6 3F 59 B9 B1 FC 03 5A 2C 1F 73 Y.....?Y....Z,.s
1483:1890 CB 41 05 9F 59 83 17 9F 59 CF 09 83 59 8B CF 2B .A..Y...Y...Y..+
1483:18A0 CE 11 F9 04 00 8B 61 56 81 A6 EC 00 02 8B FC 51 ......aV.......Q
1483:18B0 33 DB 8B C3 B9 08 00 D1 E8 73 03 35 01 A0 E2 F7 3........s.5....
1483:18C0 AB FE C3 75 ED 59 18 00 AC 32 D8 8A C7 32 FF D1 ...u.Y...2...2..
1483:18D0 18 E3 8B 19 09 E2 F1 30 81 C4 2D 5E 3B DA B8 E0 .......0..-^;...
1483:18E0 74 1A E8 00 00 5A 83 C2 0D B4 09 CD 21 B8 FF 4C t....Z......!..L
1483:18F0 04 42 61 64 20 01 43 52 43 0D 0A 24 C3 2D B4 2B .Bad .CRC..$.-.+
1483:1900 03 77 01 6A BE 6E E4 34 07 1E 01 F9 0C 07 13 B9 .w.j.n.4........
1483:1910 10 00 04 CF 13 D2 E2 F5 65 BA 9B 64 BA 3C 10 04 ........e..d.<..
1483:1920 3D 04 41 3E 04 45 F8 0D BA A5 26 1C 30 55 FF 03 =.A>.E....&.0U..
1483:1930 60 FE 39 D1 CA EB 63 8C 14 7A E2 21 BF B2 C5 BE `.9...c..z.!....
1483:1940 B2 C5 BD 79 C5 C4 C7 0B B6 E7 0B C5 63 E4 19 C5 ...y........c...
1483:1950 0C 08 26 18 A4 6E 6A 64 CF CB 0B 01 05 0A 73 EA ..&..njd......s.
1483:1960 74 E3 B0 D1 83 73 86 AC D1 BF 96 D1 7E 91 03 D1 t....s......~...
1483:1970 7E 85 0C D1 1F 97 EB 8C 0A 9F D1 A1 05 33 2B A4 ~............3+.
1483:1980 8E 01 CC 3E BE D0 36 5F 2C 7E 0B 27 2C 23 01 EF ...>..6_,~.',#..
1483:1990 F7 7F 10 DF 7F 57 22 51 45 58 45 D7 05 05 03 25 .....W"QEXE....%
1483:19A0 4D 5A 00 12 00 02 51 06 00 16 EF 03 0B 0E 00 00 MZ....Q.........
1483:19B0 0E 8C D3 8E C3 8C CA 0C 8E DA 8B 0E 93 8B 18 F1 ................
1483:19C0 83 EE A2 FE D1 B8 60 E9 FD F3 A5 53 B8 3D 00 50 ......`....S.=.P
1483:19D0 8B 2E 0A 59 16 0C 00 CB 03 B8 00 10 3B C5 76 00 ...Y........;.v.
1483:19E0 1B C5 2B E8 2B D0 2B D8 D8 2E 34 B1 03 B8 65 D3 ..+.+.+...4...e.
1483:19F0 E0 8B C8 D1 E0 48 48 8B F0 8B F8 30 0B CB ED 75 .....HH....0...u
1483:1A00 D9 FC 07 8E DB 2E C7 06 12 00 3E 00 2E 8C 0E 14 ..........>.....
1483:1A10 00 1E 30 37 30 B1 3C 03 72 03 67 8C C0 2C 10 8E ..070.<.r.g..,..
1483:1A20 00 37 1E 2C 00 33 F6 AC 0A 10 C0 75 FB 04 00 F6 .7.,.3.....u....
1483:1A30 83 C6 02 2E 89 36 12 E3 2C 1E 06 2C 8B D6 B4 3D .....6..,..,...=
1483:1A40 2C 00 8B D8 B4 3F B9 20 00 06 18 1F 33 D2 0C 72 ,....?. ....3..r
1483:1A50 29 1C 81 3E 14 C5 0E 75 21 83 3E 00 CB 75 1A 2E )..>...u!.>..u..
1483:1A60 A1 0E 00 39 63 06 E2 75 10 38 09 10 09 04 C3 09 ...9c..u.8......
1483:1A70 06 B4 3E 00 28 EB 06 BA E6 02 E9 D1 18 01 1F BE ..>.(...........
1483:1A80 11 E8 10 06 02 50 53 E8 0B AC 00 C8 8B D3 E8 04 .....PS.........
1483:1A90 02 53 BE C3 5F E8 63 01 82 05 33 FF 06 51 A7 F7 .S.._.c...3..Q..
1483:1AA0 D5 D1 00 50 8B DF 83 E7 0F 81 C7 35 00 80 CA C7 ...P.......5....
1483:1AB0 D3 EB 8C C0 03 C3 2D 00 08 8E C0 8B DE 83 E6 0F ......-.........
1483:1AC0 8C 0F D8 0F 8E 2C D8 58 39 2E 82 1F 38 58 5A 59 .....,.X9...8XZY
1483:1AD0 33 F6 E8 43 00 8C DA 0E 1F 32 ED BE 05 16 8A C8 3..C.....2......
1483:1AE0 06 E3 13 AD 03 C2 32 2E 33 FF 78 32 E4 AC 03 F8 ......2.3.x2....
1483:1AF0 26 01 15 E2 F8 EB E8 8B 36 04 00 8B 3E 06 00 03 &.......6...>...
1483:1B00 FA 01 16 A7 83 EA 31 10 8E 22 DA 33 85 24 DB FA ......1..".3.$..
1483:1B10 8B C3 E6                                        ...             

l1483_1B13:
	mov	ss,di
	sti
	jmp	dword ptr cs:[bx]
1483:1B19                            50 1E 06 16 07 E0 17          P......
1483:1B20 E5 E3 01 7C 42 01 22 E8 26 01 E9 83 FE 00 75 07 ...|B.".&.....u.
1483:1B30 8E 95 80 C4 80 1E E2 E4                         ........        

l1483_1B38:
	dec	dx
	jnz	1B7Fh

l1483_1B3B:
	loope	1B6Dh

l1483_1B3D:
	clc
	pop	es
	xchg	si,ax
	cmp	ax,bx
	jz	1B51h

l1483_1B44:
	dec	ax
	mov	dx,2E2h
	xchg	sp,ax
	adc	al,bh
	jz	1B13h

l1483_1B4E:
	add	[si],ah
	push	cs

l1483_1B51:
	pop	es
	mov	di,2FBh
	lodsb
	stosb
	call	1B91h
	cli
	dec	di
	mov	ax,0A0Dh
	stosw
	mov	al,24h
	popa
	stosb
	sbb	ax,0ECBAh
	add	dh,bl
	add	[bx+di],bx
	rcl	[di],cl

l1483_1B6D:
	and	al,5Ch
	push	si
	mov	si,7269h
	jnz	1BE8h

l1483_1B75:
	and	al,20h
	inc	bx
	push	6365h
	imul	sp,[bx+si],46h
	popa

l1483_1B7F:
	imul	bp,[si+65h],3A64h
	and	[bp+si],al
	mov	ch,0AFh
	xor	dh,[bx+di]
	mov	bx,0D909h
	in	ax,0Ch
	xor	[2CF2h],cl

;; fn1483_1B91: 1483:1B91
;;   Called from:
;;     1483:1B57 (in fn1483_1BB9)
fn1483_1B91 proc
	repne sub	al,28h
	xor	ax,2EF9h
	sub	al,bh
	not	word ptr [bx+di+10F8h]
	xchg	cx,ax
	push	sp
	pop	dx
	pop	ds
	xchg	[bx+di+3201h],di
	adc	ax,0A587h
	in	al,41h
	add	al,[ecx]
	sti
	test	ch,ah
	inc	word ptr [0FF1Fh]
	in	al,dx
	sbb	al,0F8h
	and	al,0Ah

;; fn1483_1BB8: 1483:1BB8
;;   Called from:
;;     1483:0C6E (in fn1483_0C11)
fn1483_1BB8 proc
	or	al,[si]

;; fn1483_1BB9: 1483:1BB9
;;   Called from:
;;     1483:1BB7 (in fn1483_1B91)
;;     1483:1BB8 (in fn1483_1BB8)
fn1483_1BB9 proc
	add	al,73h
	add	bp,cx

l1483_1BBC:
	jmp	1B38h

l1483_1BBF:
	mov	ax,[0E10Dh]
	icebp
	cmp	[di],cx
	aas
	mov	di,4D25h
	mul	ax
	and	ax,0EBAh
	add	bp,cx
	stc
	xchg	di,ax
	shl	word ptr [di],1h
	cmp	ah,dh
	and	ax,0BE33h
	and	ax,972Ch
	iret
	and	ax,18Bh
	test	word ptr [bx+38ADh],0AD8Fh
	or	bl,bh

l1483_1BE8:
	dec	bp
	sub	ax,85FEh
	dec	bp
	or	bh,[bx+3h]
	push	es
	iret
1483:1BF2       4D 23 03 09 F9 4D 14 03 FF 24 4D 27 53 54   M#...M...$M'ST
1483:1C00 F0 4C 02 82 60 1A E9 26 7C 76 0C 86 3B FF FF 48 .L..`..&|v..;..H
1483:1C10 E7 03 B8 EC 41 FA 02 64 20 18 47 E8 00 0A 4B FA ....A..d .G...K.
1483:1C20 FF F0 4D F5 CC 0D 49 60 F3 05 70 00 10 2B 0E FF ..M...I`..p..+..
1483:1C30 FE 41 F6 1C 0F 08 08 2D B8 50 67 02 52 48 22 48 .A.....-.Pg.RH"H
1483:1C40 B1 CC 63 2C 20 0C 0F 04 52 6F 4C 11 04 01 1B 49 ..c, ...RoL....I

;; fn1483_1C50: 1483:1C50
fn1483_1C50 proc
	in	al,dx
	jmp	ax
1483:1C53          4C D4 AE 56 18 48 E0 FF 00 B9 CB 62 F0    L..V.H.....b.
1483:1C60 97 CC D7 C8 5D 00 12 00 2F 09 30 3C 00 3F 22 D8 ....].../.0<.?".
1483:1C70 C5 01 51 C8 C3 FF FA 4E 75 7E 80 DE 07 1E 1B DF ..Q....Nu~......
1483:1C80 07 32 05 60 3A BA 05 09 60 30 1E 05 44 03 05 51 .2.`:...`0..D..Q
1483:1C90 46 05 4C E1 09 05 52 7A 03 AE 37 12 67 CA DD 46 F.L...Rz..7.g..F
1483:1CA0 51 CD FF F8 54 46 1A DB 01 01 51 CE FF F6 60 6C Q...TF....Q...`l
1483:1CB0 C1 19 B6 DB 45 01 05 64 0E 53 06 07 B4 0D 66 BA ....E..d.S....f.
1483:1CC0 7B 09 2F E0 0B AE 64 1A 86 05 39 80 05 65 6E 4A {./...d...9..enJ
1483:1CD0 08 46 66 08 52 35 0B A8 11 C7 E1 5E 1C 1B 20 4D .Ff.R5.....^.. M
1483:1CE0 90 C6 53 48 E2 4D 64 02 1A D8 70 3B 1D 0C 1C 1B ..SH.Md...p;....
1483:1CF0 10 1A C6 01 83 67 FA 60 12 6A 13 01 20 09 08 85 .....g.`.j.. ...
1483:1D00 65 6C 0E 71 39 65 40 06 05 64 F4 03 67 EC 7A 02 el.q9e@..d..g.z.
1483:1D10 7C 00 86 49 2C 64 FC 70 7E 07 2A 64 20 B0 52 7D |..I,d.p~.*d .R}
1483:1D20 28 00 64 88 1A 1B 67 34 50 45 70 60 F1 67 20 CC (.d...g4PEp`.g .
1483:1D30 67 00 01 04 E0 09 1C 65 8E 28 60 86 CD CE A2 05 g......e.(`.....
1483:1D40 D0 8A 05 D2 28 05 DA 05 DE C5 25 66 04 00 69 98 ....(.....%f..i.
1483:1D50 60 0C 72 03 E1 04 88 10 18 51 C9 65 3B 20 C3 3A `.r......Q.e; .:
1483:1D60 00 B6 9B C0 24 6F 00 44 22 0D 30 0C 0B A4 66 2E ....$o.D".0...f.
1483:1D70 B7 43 07 FA 00 8C D1 D9 18 01 E9 5D 2C 48 02 20 .C.........],H. 
1483:1D80 18 67 1A 43 F5 31 BF D3 91 80 35 67 0E D3 C0 B0 .g.C.1....5g....
1483:1D90 3C 06 00 01 66 F2 43 1D 1D FD 60 EE 81 8F 60 25 <...f.C...`...`%
1483:1DA0 58 00 0C C7 03 14 00 03 1C 25 41 00 08 D2 73 AA X........%A...s.
1483:1DB0 0F 38 07 10 07 14 E3 07 18 80 23 3C 70 0A 3F 20 .8........#<p.? 
1483:1DC0 EC AD FC E5 0B CB 4F 20 08 90 8E 4E D7 4F EF 01 ......O ...N.O..
1483:1DD0 80 2E 81 4C DF FF FF 3F 00 3F 02 51 4C 4E 41 42 ...L...?.?.QLNAB
1483:1DE0 1E 00 21 2F 4D 00 52 4C 06 EF 7F FF 00 16 21 DB ..!/M.RL......!.
1483:1DF0 09 A1 E2 0A 65 22 8C 7F F4 7C B8 1B 3E 8D 9A 5B ....e"...|..>..[
1483:1E00 1F 8D 46 0C 05 8D 70 0F B1 75 D9 44 C7 1B F4 43 ..F...p..u.D...C
1483:1E10 9D D2 E1 03 9D 56 E5 03 05 58 1E 05 5E 09 05 7C .....V...X..^..|
1483:1E20 64 06 01 9D 10 1B B9 00 1A C0 EE 0A 05 80 AD E6 d...............
1483:1E30 E2 5C 60 71 72 2B A4 50 AF A4 9C 27 AF A2 0E AF .\`qr+.P...'....
1483:1E40 B8 2A 0B 9C 15 AF 9C 03 AF 9C 65 7E E1 01 AF 96 .*........e~....
1483:1E50 F0 1B AF 18 F8 01 AF 54 0E 24 45 1A 77 DD 73 0F .......T.$E.w.s.
1483:1E60 B5 0C 02 04 0B 64 E8 67 E0 E1 BB 34 D1 BB 01 8F .....d.g...4....
1483:1E70 32 64 A4 50 BB 30 E3 0F 7C A1 BD 3A D1 BD 23 19 2d.P.0..|..:..#.
1483:1E80 24 E0 01 BF 20 65 E8 E7 E2 15 74 8A F3 C6 28 05 $... e....t...(.
1483:1E90 C8 05 CA A2 05 D6 51 C9 F0 01 C3 8A F8 BF C3 9D ......Q.........
1483:1EA0 0A AA 12 87 C4 86 C3 15 C4 F4 E0 0C C4 22 4B 60 ............."K`
1483:1EB0 61 C5 D8 72 FF B4 60 6B 72 66 00 02 92 F8 47 D4 a..r..`krf....G.
1483:1EC0 7C 4F F7 7C D4 68 3E D4 4A 04 2E D4 F8 4F EF FE |O.|.h>.J....O..
1483:1ED0 00 20 4F 76 00 22 03 74 07 E2 49 64 04 0A 41 A0 . Ov.".t..Id..A.
1483:1EE0 01 51 CA FF F6 30 C1 52 03 66 EA 74 00 12 19 B3 .Q...0.R.f.t....
1483:1EF0 02 32 02 02 42 60 D4 42 03 34 37 20 00 E0 49 06 .2..B`.B.47 ..I.
1483:1F00 0F 53 80 66 E8 37 2A 02 00 45 12 C2 9B C0 C3 22 .S.f.7*..E....."
1483:1F10 4D 61 B8 72 FE B4 7A 00 BE 66 74 E7 6E 1E 7C 8B Ma.r..z..ft.n.|.
1483:1F20 32 CA 1E 4F 1D 02 DC 1B 97 1D BE CB 11 1D A2 E5 2..O............
1483:1F30 01 1D 5C F2 47 1D 49 FA F7 3E 80 32 8F 80 F7 8F ..\.G.I..>.2....
1483:1F40 E7 04 8C BF A0 36 4E 38 D2 59 01 F8 50 CC 01 7D .....6N8.Y..P..}
1483:1F50 F6 5B 0F AF 32 F7 8F BC 42 B4 3D 48 9B 76 C0 55 .[..2...B.=H.v.U
1483:1F60 7C 3A 03 22 14 3F 19 14 DB 07 26 F4 04 6F 1F 2B |:.".?....&..o.+
1483:1F70 12 89 12 44 04 EC D1 4E 2E AF D2 2C 5B 87 05 38 ...D...N...,[..8
1483:1F80 FF F7 E0 EC 78 B5 F8 42 3B 9F D3 2B 88 87 3C 86 ....x..B;..+..<.
1483:1F90 D8 1B 2D 38 F8 47 4C 7C 42 F7 7D 4C B6 8F 2D 54 ..-8.GL|B.}L..-T
1483:1FA0 03 F8 45 50 66 1A F8 14 96 B7 7E EB 1A 27 96 09 ..EPf.....~..'..
1483:1FB0 95 52 C3 95 50 E9 1B A5 7C 02 47 3F 95 3B F7 BF .R..P...|.G?.;..
1483:1FC0 E8 80 4F A5 C1 47 5F 41 4D F5 02 F4 63 70 0E 03 ..O..G_AM...cp..
1483:1FD0 E9 80 13 99 48 7A 02 20 E8 6A 60 FE 07 FF F2 2A ....Hz. .j`....*
1483:1FE0 57 1D 4A 95 67 48 53 2A 55 DB 60 CD 01 2E 8D 58 W.J.gHS*U.`....X
1483:1FF0 4D 03 41 ED 00 08 0C 98 04 3F 43 02 66 E2 A3 88 M.A......?C.f...
1483:2000 E0 07 84 E6 20 60 2B EA 72 FF B0 42 60 66 0B D0 .... `+.r..B`f..
1483:2010 48 40 3F 33 00 2F 0F F2 E3 03 8E E3 0D 7E E0 0C H@?3./.......~..
1483:2020 7C 28 4D 22 D9 D4 25 6C BE 4A 0D EA 04 AA CA 6E |(M"..%l.J.....n
1483:2030 06 84 54 F4 A3 54 00 0B DA 46 DA 45 53 45 1A 1A ..T..T...F.ESE..
1483:2040 DB B9 2D FC 4E 05 3A 17 F2 B9 D4 2F 8C 64 41 44 ..-.N.:..../.dAD
1483:2050 66 81 09 64 12 53 45 EA 02 15 87 6E B0 96 01 1B f..d.SE....n....
1483:2060 26 44 09 4F 76 45 D2 47 EE 0C 52 46 BE 02 19 05 &D.OvE.G..RF....
1483:2070 11 7E 08 1F 7E 01 0A 6E 1A 0F 45 0C 60 18 01 24 .~..~..n..E.`..$
1483:2080 3D 0E 91 AA AD E2 F4 59 E2 B3 6D FE 62 C3 01 0B =......Y..m.b...
1483:2090 AC 52 45 CE 03 17 70 85 88 24 55 EE 66 E9 02 77 .RE...p..$U.f..w
1483:20A0 44 8E D9 57 19 7A C7 1D 6C 85 01 0F 8E 20 1F 43 D..W.z..l.... .C
1483:20B0 2A 56 A0 2A 5F 66 1D 46 0C 94 80 DD EC 66 00 FE *V.*_f.F.....f..
1483:20C0 30 42 06 9C 22 14 67 F0 05 30 20 14 03 41 FA FE 0B..".g..0 ..A..
1483:20D0 06 10 20 50 D1 C8 01 EC 4F F8 08 24 08 58 82 5C .. P....O..$.X.\
1483:20E0 15 F1 D5 B5 08 00 53 81 66 F4 60 D6 20 3A FD F0 ......S.f.`. :..
1483:20F0 E5 88 58 80 2F 40 00 40 22 2F 6D 58 4F 10 52 7F ..X./@.@"/mXO.R.
1483:2100 7C FF 38 44 C8 11 7A 03 F2 12 7C B5 B2 F0 38 7A |.8D..z...|...8z
1483:2110 07 79 48 7A 01 DE C3 07 7A B6 E3 1E 7A E3 40 64 .yHz....z...z.@d
1483:2120 A1 24 A0 F1 14 54 D5 AB 8D D8 DE FC 49 1D 3E 4A .$...T......I.>J
1483:2130 BA 15 1F 4A 78 23 09 4A 14 C3 4A 12 CA 01 3D 08 ...Jx#.J..J...=.
1483:2140 A8 BF FA 67 E6 F8 07 44 79 68 01 0B B2 F0 05 44 ...g...Dyh.....D
1483:2150 76 E8 44 54 22 3E 44 6C 0F 11 44 80 FF 39 01 22 v.DT">Dl..D..9."
1483:2160 0D 96 3E 42 01 1F 38 72 07 0F 38 52 00 FC 16 1F ..>B..8r..8R....
1483:2170 38 FE 32 0E 1F 38 02 A7 FA 54 76 4C F3 FB 90 B3 8.2..8...TvL....
1483:2180 FB FE F3 07 FB D6 EA 23 76 C4 FA 03 BE 76 AE 44 .......#v....v.D
1483:2190 BF 76 F7 1F 11 09 1F 11 0B 57 54 52 C3 07 1B 32 .v.......WTR...2
1483:21A0 E1 17 1B 12 F5 4E 54 94 4F 57 C4 00 10 E1 57 81 .....NT.OW....W.
1483:21B0 DD CE 7C 00 07 3E 57 D8 66 BF 53 F7 DF B8 2B EF ..|..>W.f.S...+.
1483:21C0 B8 C3 01 59 50 E1 07 59 30 F0 17 59 10 FA 10 9E ...YP..Y0..Y....
1483:21D0 75 03 F2 00 00 0E 08 0A 12 13 16 00 04 04 04 05 u...............
1483:21E0 05 05 00 06 08 09 15 17 1D 1F 28 29 2C 2D 38 39 ..........(),-89
1483:21F0 3C 3D 01 03 04 04 05 05 05 05 06 06 06 06 06 06 <=..............
1483:2200 06 06 45 58 45 00 43 4F 4D 00 43 4F 44 45 00 44 ..EXE.COM.CODE.D
1483:2210 41 54 41 00 42 53 53 20 00 53 59 4D 42 00 44 42 ATA.BSS .SYMB.DB
1483:2220 55 47 00 48 55 4E 4B 20 25 75 20 28 25 73 29 20 UG.HUNK %u (%s) 
1483:2230 00 08 08 08 08 08 08 08 08 08 08 08 08 08 08 00 ................
1483:2240 20 20 20 00 08 08 08 25 32 75 25 25 00 00 00 00    ....%2u%%....
1483:2250 00 20 20 20 20 20 20 20 20 20 21 21 21 21 21 20 .         !!!!! 
1483:2260 20 20 20 20 20 20 20 20 20 20 20 20 20 20 20 20                 
1483:2270 20 01 40 40 40 40 40 40 40 40 40 40 40 40 40 40  .@@@@@@@@@@@@@@
1483:2280 40 02 02 02 02 02 02 02 02 02 02 40 40 40 40 40 @..........@@@@@
1483:2290 40 40 14 14 14 14 14 14 04 04 04 04 04 04 04 04 @@..............
1483:22A0 04 04 04 04 04 04 04 04 04 04 04 04 40 40 40 40 ............@@@@
1483:22B0 40 40 18 18 18 18 18 18 08 08 08 08 08 08 08 08 @@..............
1483:22C0 08 08 08 08 08 08 08 08 08 08 08 08 40 40 40 40 ............@@@@
1483:22D0 20 00 00 00 00 00 00 00 00 00 00 00 00 00 00 00  ...............
1483:22E0 00 00 00 00 00 00 00 00 00 00 00 00 00 00 00 00 ................
; ...
1483:2350 00 00 0C 8B 0C 8B 0C 8B 00 00 09 02 00 00 00 00 ................
1483:2360 00 00 00 00 00 00 00 00 00 00 58 23 00 00 0A 02 ..........X#....
1483:2370 01 00 00 00 00 00 00 00 00 00 00 00 00 00 6C 23 ..............l#
1483:2380 00 00 02 02 02 00 00 00 00 00 00 00 00 00 00 00 ................
1483:2390 00 00 80 23 00 00 43 02 03 00 00 00 00 00 00 00 ...#..C.........
1483:23A0 00 00 00 00 00 00 94 23 00 00 42 02 04 00 00 00 .......#..B.....
1483:23B0 00 00 00 00 00 00 00 00 00 00 A8 23 00 00 00 00 ...........#....
1483:23C0 00 00 00 00 00 00 00 00 00 00 00 00 00 00 00 00 ................
; ...
1483:24E0 00 00 00 00 00 00 00 00 14 00 01 60 02 60 02 60 ...........`.`.`
1483:24F0 04 A0 02 A0 00 00 00 00 00 00 00 00 00 00 00 00 ................
1483:2500 00 00 00 00 00 00 00 00 00 00 00 00 00 00 00 00 ................
1483:2510 00 00 00 40 FF FF 00 00 00 13 02 02 04 05 06 08 ...@............
1483:2520 08 08 14 15 05 13 FF 16 05 11 02 FF FF FF FF FF ................
1483:2530 FF FF FF FF FF FF FF FF 05 05 FF FF FF FF FF FF ................
1483:2540 FF FF FF FF FF FF FF FF FF FF 0F FF 23 02 FF 0F ............#...
1483:2550 FF FF FF FF 13 FF FF 02 02 05 0F 02 FF FF FF 13 ................
1483:2560 FF FF FF FF FF FF FF FF 23 FF FF FF FF 23 FF 13 ........#....#..
1483:2570 FF 00 54 4D 50 00 2E 24 24 24 00 00 00 02 02 02 ..TMP..$$$......
1483:2580 02 02 02 02 02 01 01 01 01 01 02 02 02 02 02 02 ................
1483:2590 02 02 02 02 02 02 02 02 02 02 02 02 01 02 02 02 ................
1483:25A0 02 03 02 02 02 02 04 02 02 02 02 02 05 05 05 05 ................
1483:25B0 05 05 05 05 05 05 02 02 02 02 02 02 02 02 02 02 ................
1483:25C0 07 0A 15 0A 0C 09 02 02 0B 02 14 0E 02 02 02 02 ................
1483:25D0 02 08 02 02 12 02 02 10 02 10 02 02 02 02 02 06 ................
1483:25E0 07 0A 0A 0A 0C 09 02 02 0D 02 11 0E 13 02 02 0F ................
1483:25F0 02 08 02 02 12 02 02 02 02 02 02 02 00 10 28 6E ..............(n
1483:2600 75 6C 6C 29 00 00 14 14 01 14 15 14 14 14 14 02 ull)............
1483:2610 00 14 03 04 14 09 05 05 05 05 05 05 05 05 05 14 ................
1483:2620 14 14 14 14 14 14 14 14 14 14 0F 17 0F 08 14 14 ................
1483:2630 14 07 14 16 14 14 14 14 14 14 14 14 14 0D 14 14 ................
1483:2640 14 14 14 14 14 14 14 14 10 0A 0F 0F 0F 08 0A 14 ................
1483:2650 14 06 14 12 0B 0E 14 14 11 14 0C 14 14 0D 14 14 ................
1483:2660 14 14 14 14 14 00 70 72 69 6E 74 20 73 63 61 6E ......print scan
1483:2670 66 20 3A 20 66 6C 6F 61 74 69 6E 67 20 70 6F 69 f : floating poi
1483:2680 6E 74 20 66 6F 72 6D 61 74 73 20 6E 6F 74 20 6C nt formats not l
1483:2690 69 6E 6B 65 64 0D 0A 00 00 00 00 00 00 00 00 00 inked...........
1483:26A0 00 00 00 00 00 00 00 00 00 00 00 00 00 00 0D 00 ................
1483:26B0 00 00 00 00 1F 1C 1F 1E 1F 1E 1F 1F 1E 1F 1E 1F ................
1483:26C0 00 00 1F 00 3B 00 5A 00 78 00 97 00 B5 00 D4 00 ....;.Z.x.......
1483:26D0 F3 00 11 01 30 01 4E 01 6D 01 F0 4E 83 14 EC 4E ....0.N.m..N...N
1483:26E0 83 14 50 46 00 00 01 00 54 5A 00 45 53 54 00 45 ..PF....TZ.EST.E
1483:26F0 44 54 00 00 16 9D 1B 9D 1B 9D 1B 9D 00 02 7C 96 DT............|.
1483:2700 00 00 00 10 DE A2 00 00 00 10 1D A4 00 00 00 1E ................
1483:2710 79 C3 00 08 03 BE 50 00 BF 01 00 B9 39 00 8C CD y.....P.....9...
1483:2720 00 00 00 00 00 00 00 00 00 00 00 00 00 00 00 00 ................
; ...
1483:4670 00 00 00 00 00 00 00 00 00 00 00 00 00 00       ..............  

;; fn1483_467E: 1483:467E
;;   Called from:
;;     1483:1779 (in fn1483_1777)
fn1483_467E proc
	add	[bx+si],al
	add	[bx+si],al
	add	[bx+si],al
	add	[bx+si],al
	add	[bx+si],al
	add	[bx+si],al
	add	[bx+si],al
	add	[bx+si],al
	add	[bx+si],al
	add	[bx+si],al
	add	[bx+si],al
	add	[bx+si],al
	add	[bx+si],al
	add	[bx+si],al
	add	[bx+si],al
	add	[bx+si],al
	add	[bx+si],al
	add	[bx+si],al
	add	[bx+si],al
	add	[bx+si],al
	add	[bx+si],al
	add	[bx+si],al
	add	[bx+si],al
	add	[bx+si],al
	add	[bx+si],al
	add	[bx+si],al
	add	[bx+si],al
	add	[bx+si],al
	add	[bx+si],al
	add	[bx+si],al
	add	[bx+si],al
	add	[bx+si],al
	add	[bx+si],al
	add	[bx+si],al
	add	[bx+si],al
	add	[bx+si],al
	add	[bx+si],al
	add	[bx+si],al
	add	[bx+si],al
	add	[bx+si],al
	add	[bx+si],al
	add	[bx+si],al
	add	[bx+si],al
	add	[bx+si],al
	add	[bx+si],al
	add	[bx+si],al
	add	[bx+si],al
	add	[bx+si],al
	add	[bx+si],al
	add	[bx+si],al
	add	[bx+si],al
	add	[bx+si],al
	add	[bx+si],al
	add	[bx+si],al
	add	[bx+si],al
	add	[bx+si],al
	add	[bx+si],al
	add	[bx+si],al
	add	[bx+si],al
	add	[bx+si],al
	add	[bx+si],al
	add	[bx+si],al
	add	[bx+si],al
	add	[bx+si],al
	add	[bx+si],al
	add	[bx+si],al
	add	[bx+si],al
	add	[bx+si],al
	add	[bx+si],al
	add	[bx+si],al
	add	[bx+si],al
	add	[bx+si],al
	add	[bx+si],al
	add	[bx+si],al
	add	[bx+si],al
	add	[bx+si],al
	add	[bx+si],al
	add	[bx+si],al
	add	[bx+si],al
	add	[bx+si],al
	add	[bx+si],al
	add	[bx+si],al
	add	[bx+si],al
	add	[bx+si],al
	add	[bx+si],al
	add	[bx+si],al
	add	[bx+si],al
	add	[bx+si],al
	add	[bx+si],al
	add	[bx+si],al
	add	[bx+si],al
	add	[bx+si],al
	add	[bx+si],al
	add	[bx+si],al
	add	[bx+si],al
	add	[bx+si],al
	add	[bx+si],al
	add	[bx+si],al
	add	[bx+si],al
	add	[bx+si],al
	add	[bx+si],al
	add	[bx+si],al
	add	[bx+si],al
	add	[bx+si],al
	add	[bx+si],al
	add	[bx+si],al
	add	[bx+si],al
	add	[bx+si],al
	add	[bx+si],al
	add	[bx+si],al
	add	[bx+si],al
	add	[bx+si],al
	add	[bx+si],al
	add	[bx+si],al
	add	[bx+si],al
	add	[bx+si],al
	add	[bx+si],al
	add	[bx+si],al
	add	[bx+si],al
	add	[bx+si],al
	add	[bx+si],al
	add	[bx+si],al
	add	[bx+si],al
	add	[bx+si],al
	add	[bx+si],al
	add	[bx+si],al
	add	[bx+si],al
	add	[bx+si],al
	add	[bx+si],al
	add	[bx+si],al
	add	[bx+si],al
	add	[bx+si],al
	add	[bx+si],al
	add	[bx+si],al
	add	[bx+si],al
	add	[bx+si],al
	add	[bx+si],al
	add	[bx+si],al
	add	[bx+si],al
	add	[bx+si],al
	add	[bx+si],al
	add	[bx+si],al
	add	[bx+si],al
	add	[bx+si],al
	add	[bx+si],al
	add	[bx+si],al
	add	[bx+si],al
	add	[bx+si],al
	add	[bx+si],al
	add	[bx+si],al
	add	[bx+si],al
	add	[bx+si],al
	add	[bx+si],al
	add	[bx+si],al
	add	[bx+si],al
	add	[bx+si],al
	add	[bx+si],al
	add	[bx+si],al
	add	[bx+si],al
	add	[bx+si],al
	add	[bx+si],al
	add	[bx+si],al
	add	[bx+si],al
	add	[bx+si],al
	add	[bx+si],al
	add	[bx+si],al
	add	[bx+si],al
	add	[bx+si],al
	add	[bx+si],al
	add	[bx+si],al
	add	[bx+si],al
	add	[bx+si],al
	add	[bx+si],al
	add	[bx+si],al
	add	[bx+si],al
	add	[bx+si],al
	add	[bx+si],al
	add	[bx+si],al
	add	[bx+si],al
	add	[bx+si],al
	add	[bx+si],al
	add	[bx+si],al
	add	[bx+si],al
	add	[bx+si],al
	add	[bx+si],al
	add	[bx+si],al
	add	[bx+si],al
	add	[bx+si],al
	add	[bx+si],al
	add	[bx+si],al
	add	[bx+si],al
	add	[bx+si],al
	add	[bx+si],al
	add	[bx+si],al
	add	[bx+si],al
	add	[bx+si],al
	add	[bx+si],al
	add	[bx+si],al
	add	[bx+si],al
	add	[bx+si],al
	add	[bx+si],al
	add	[bx+si],al
	add	[bx+si],al
	add	[bx+si],al
	add	[bx+si],al
	add	[bx+si],al
	add	[bx+si],al
	add	[bx+si],al
	add	[bx+si],al
	add	[bx+si],al
	add	[bx+si],al
	add	[bx+si],al
	add	[bx+si],al
	add	[bx+si],al
	add	[bx+si],al
	add	[bx+si],al
	add	[bx+si],al
	add	[bx+si],al
	add	[bx+si],al
	add	[bx+si],al
	add	[bx+si],al
	add	[bx+si],al
	add	[bx+si],al
	add	[bx+si],al
	add	[bx+si],al
	add	[bx+si],al
	add	[bx+si],al
	add	[bx+si],al
	add	[bx+si],al
	add	[bx+si],al
	add	[bx+si],al
	add	[bx+si],al
	add	[bx+si],al
	add	[bx+si],al
	add	[bx+si],al
	add	[bx+si],al
	add	[bx+si],al
	add	[bx+si],al
	add	[bx+si],al
	add	[bx+si],al
	add	[bx+si],al
	add	[bx+si],al
	add	[bx+si],al
	add	[bx+si],al
	add	[bx+si],al
	add	[bx+si],al
	add	[bx+si],al
	add	[bx+si],al
	add	[bx+si],al
	add	[bx+si],al
	add	[bx+si],al
	add	[bx+si],al
	add	[bx+si],al
	add	[bx+si],al
	add	[bx+si],al
	add	[bx+si],al
	add	[bx+si],al
	add	[bx+si],al
	add	[bx+si],al
	add	[bx+si],al
	add	[bx+si],al
	add	[bx+si],al
	add	[bx+si],al
	add	[bx+si],al
	add	[bx+si],al
	add	[bx+si],al
	add	[bx+si],al
	add	[bx+si],al
	add	[bx+si],al
	add	[bx+si],al
	add	[bx+si],al
	add	[bx+si],al
	add	[bx+si],al
	add	[bx+si],al
	add	[bx+si],al
	add	[bx+si],al
	add	[bx+si],al
	add	[bx+si],al
	add	[bx+si],al
	add	[bx+si],al
	add	[bx+si],al
	add	[bx+si],al
	add	[bx+si],al
	add	[bx+si],al
	add	[bx+si],al
	add	[bx+si],al
	add	[bx+si],al
	add	[bx+si],al
	add	[bx+si],al
	add	[bx+si],al
	add	[bx+si],al
	add	[bx+si],al
	add	[bx+si],al
	add	[bx+si],al
	add	[bx+si],al
	add	[bx+si],al
	add	[bx+si],al
	add	[bx+si],al
	add	[bx+si],al
	add	[bx+si],al
	add	[bx+si],al
	add	[bx+si],al
	add	[bx+si],al
	add	[bx+si],al
	add	[bx+si],al
	add	[bx+si],al
	add	[bx+si],al
	add	[bx+si],al
	add	[bx+si],al
	add	[bx+si],al
	add	[bx+si],al
	add	[bx+si],al
	add	[bx+si],al
	add	[bx+si],al
	add	[bx+si],al
	add	[bx+si],al
	add	[bx+si],al
	add	[bx+si],al
	add	[bx+si],al
	add	[bx+si],al
	add	[bx+si],al
	add	[bx+si],al
	add	[bx+si],al
	add	[bx+si],al
	add	[bx+si],al
	add	[bx+si],al
	add	[bx+si],al
	add	[bx+si],al
	add	[bx+si],al
	add	[bx+si],al
	add	[bx+si],al
	add	[bx+si],al
	add	[bx+si],al
	add	[bx+si],al
	add	[bx+si],al
	add	[bx+si],al
	add	[bx+si],al
	add	[bx+si],al
	add	[bx+si],al
	add	[bx+si],al
	add	[bx+si],al
	add	[bx+si],al
	add	[bx+si],al
	add	[bx+si],al
	add	[bx+si],al
	add	[bx+si],al
	add	[bx+si],al
	add	[bx+si],al
	add	[bx+si],al
	add	[bx+si],al
	add	[bx+si],al
	add	[bx+si],al
	add	[bx+si],al
	add	[bx+si],al
	add	[bx+si],al
	add	[bx+si],al
	add	[bx+si],al
	add	[bx+si],al
	add	[bx+si],al
	add	[bx+si],al
	add	[bx+si],al
	add	[bx+si],al
	add	[bx+si],al
	add	[bx+si],al
	add	[bx+si],al
	add	[bx+si],al
	add	[bx+si],al
	add	[bx+si],al
	add	[bx+si],al
	add	[bx+si],al
	add	[bx+si],al
	add	[bx+si],al
	add	[bx+si],al
	add	[bx+si],al
	add	[bx+si],al
	add	[bx+si],al
	add	[bx+si],al
	add	[bx+si],al
	add	[bx+si],al
	add	[bx+si],al
	add	[bx+si],al
	add	[bx+si],al
	add	[bx+si],al
	add	[bx+si],al
	add	[bx+si],al
	add	[bx+si],al
	add	[bx+si],al
	add	[bx+si],al
	add	[bx+si],al
	add	[bx+si],al
	add	[bx+si],al
	add	[bx+si],al
	add	[bx+si],al
	add	[bx+si],al
	add	[bx+si],al
	add	[bx+si],al
	add	[bx+si],al
	add	[bx+si],al
	add	[bx+si],al
	add	[bx+si],al
	add	[bx+si],al
	add	[bx+si],al
	add	[bx+si],al
	add	[bx+si],al
	add	[bx+si],al
	add	[bx+si],al
	add	[bx+si],al
	add	[bx+si],al
	add	[bx+si],al
	add	[bx+si],al
	add	[bx+si],al
	add	[bx+si],al
	add	[bx+si],al
	add	[bx+si],al
	add	[bx+si],al
	add	[bx+si],al
	add	[bx+si],al
	add	[bx+si],al
	add	[bx+si],al
	add	[bx+si],al
	add	[bx+si],al
	add	[bx+si],al
	add	[bx+si],al
	add	[bx+si],al
	add	[bx+si],al
	add	[bx+si],al
	add	[bx+si],al
	add	[bx+si],al
	add	[bx+si],al
	add	[bx+si],al
	add	[bx+si],al
	add	[bx+si],al
	add	[bx+si],al
	add	[bx+si],al
	add	[bx+si],al
	add	[bx+si],al
	add	[bx+si],al
	add	[bx+si],al
	add	[bx+si],al
	add	[bx+si],al
	add	[bx+si],al
	add	[bx+si],al
	add	[bx+si],al
	add	[bx+si],al
	add	[bx+si],al
	add	[bx+si],al
	add	[bx+si],al
	add	[bx+si],al
	add	[bx+si],al
	add	[bx+si],al
	add	[bx+si],al
	add	[bx+si],al
	add	[bx+si],al
	add	[bx+si],al
	add	[bx+si],al
	add	[bx+si],al
	add	[bx+si],al
	add	[bx+si],al
	add	[bx+si],al
	add	[bx+si],al
	add	[bx+si],al
	add	[bx+si],al
	add	[bx+si],al
	add	[bx+si],al
	add	[bx+si],al
	add	[bx+si],al
	add	[bx+si],al
	add	[bx+si],al
	add	[bx+si],al
	add	[bx+si],al
	add	[bx+si],al
	add	[bx+si],al
	add	[bx+si],al
	add	[bx+si],al
	add	[bx+si],al
	add	[bx+si],al
	add	[bx+si],al
	add	[bx+si],al
	add	[bx+si],al
	add	[bx+si],al
	add	[bx+si],al
	add	[bx+si],al
	add	[bx+si],al
	add	[bx+si],al
	add	[bx+si],al
	add	[bx+si],al
	add	[bx+si],al
	add	[bx+si],al
	add	[bx+si],al
	add	[bx+si],al
	add	[bx+si],al
	add	[bx+si],al
	add	[bx+si],al
	add	[bx+si],al
	add	[bx+si],al
	add	[bx+si],al
	add	[bx+si],al
	add	[bx+si],al
	add	[bx+si],al
	add	[bx+si],al
	add	[bx+si],al
	add	[bx+si],al
	add	[bx+si],al
	add	[bx+si],al
	add	[bx+si],al
	add	[bx+si],al
	add	[bx+si],al
	add	[bx+si],al
	add	[bx+si],al
	add	[bx+si],al
	add	[bx+si],al
	add	[bx+si],al
	add	[bx+si],al
	add	[bx+si],al
	add	[bx+si],al
	add	[bx+si],al
	add	[bx+si],al
	add	[bx+si],al
	add	[bx+si],al
	add	[bx+si],al
	add	[bx+si],al
	add	[bx+si],al
	add	[bx+si],al
	add	[bx+si],al
	add	[bx+si],al
	add	[bx+si],al
	add	[bx+si],al
	add	[bx+si],al
	add	[bx+si],al
	add	[bx+si],al
	add	[bx+si],al
	add	[bx+si],al
	add	[bx+si],al
	add	[bx+si],al
	add	[bx+si],al
	add	[bx+si],al
	add	[bx+si],al
	add	[bx+si],al
	add	[bx+si],al
	add	[bx+si],al
	add	[bx+si],al
	add	[bx+si],al
	add	[bx+si],al
	add	[bx+si],al
	add	[bx+si],al
	add	[bx+si],al
	add	[bx+si],al
	add	[bx+si],al
	add	[bx+si],al
	add	[bx+si],al
	add	[bx+si],al
	add	[bx+si],al
	add	[bx+si],al
	add	[bx+si],al
	add	[bx+si],al
	add	[bx+si],al
	add	[bx+si],al
	add	[bx+si],al
	add	[bx+si],al
	add	[bx+si],al
	add	[bx+si],al
	add	[bx+si],al
	add	[bx+si],al
	add	[bx+si],al
	add	[bx+si],al
	add	[bx+si],al
	add	[bx+si],al
	add	[bx+si],al
	add	[bx+si],al
	add	[bx+si],al
	add	[bx+si],al
	add	[bx+si],al
	add	[bx+si],al
	add	[bx+si],al
	add	[bx+si],al
	add	[bx+si],al
	add	[bx+si],al
	add	[bx+si],al
	add	[bx+si],al
	add	[bx+si],al
	add	[bx+si],al
	add	[bx+si],al
	add	[bx+si],al
	add	[bx+si],al
	add	[bx+si],al
	add	[bx+si],al
	add	[bx+si],al
	add	[bx+si],al
	add	[bx+si],al
	add	[bx+si],al
	add	[bx+si],al
	add	[bx+si],al
	add	[bx+si],al
	add	[bx+si],al
	add	[bx+si],al
	add	[bx+si],al
	add	[bx+si],al
	add	[bx+si],al
	add	[bx+si],al
	add	[bx+si],al
	add	[bx+si],al
	add	[bx+si],al
	add	[bx+si],al
	add	[bx+si],al
	add	[bx+si],al
	add	[bx+si],al
	add	[bx+si],al
	add	[bx+si],al
	add	[bx+si],al
	add	[bx+si],al
	add	[bx+si],al
	add	[bx+si],al
	add	[bx+si],al
	add	[bx+si],al
	add	[bx+si],al
	add	[bx+si],al
	add	[bx+si],al
	add	[bx+si],al
	add	[bx+si],al
	add	[bx+si],al
	add	[bx+si],al
	add	[bx+si],al
	add	[bx+si],al
	add	[bx+si],al
	add	[bx+si],al
	add	[bx+si],al
	add	[bx+si],al
	add	[bx+si],al
	add	[bx+si],al
	add	[bx+si],al
	add	[bx+si],al
	add	[bx+si],al
	add	[bx+si],al
	add	[bx+si],al
	add	[bx+si],al
	add	[bx+si],al
	add	[bx+si],al
	add	[bx+si],al
	add	[bx+si],al
	add	[bx+si],al
	add	[bx+si],al
	add	[bx+si],al
	add	[bx+si],al
	add	[bx+si],al
	add	[bx+si],al
	add	[bx+si],al
	add	[bx+si],al
	add	[bx+si],al
	add	[bx+si],al
	add	[bx+si],al
	add	[bx+si],al
	add	[bx+si],al
	add	[bx+si],al
	add	[bx+si],al
	add	[bx+si],al
	add	[bx+si],al
	add	[bx+si],al
	add	[bx+si],al
	add	[bx+si],al
	add	[bx+si],al
	add	[bx+si],al
	add	[bx+si],al
	add	[bx+si],al
	add	[bx+si],al
	add	[bx+si],al
	add	[bx+si],al
	add	[bx+si],al
	add	[bx+si],al
	add	[bx+si],al
	add	[bx+si],al
	add	[bx+si],al
	add	[bx+si],al
	add	[bx+si],al
	add	[bx+si],al
	add	[bx+si],al
	add	[bx+si],al
	add	[bx+si],al
	add	[bx+si],al
	add	[bx+si],al
	add	[bx+si],al
	add	[bx+si],al
	add	[bx+si],al
	add	[bx+si],al
	add	[bx+si],al
	add	[bx+si],al
	add	[bx+si],al
	add	[bx+si],al
	add	[bx+si],al
	add	[bx+si],al
	add	[bx+si],al
	add	[bx+si],al
	add	[bx+si],al
	add	[bx+si],al
	add	[bx+si],al
	add	[bx+si],al
	add	[bx+si],al
	add	[bx+si],al
	add	[bx+si],al
	add	[bx+si],al
	add	[bx+si],al
	add	[bx+si],al
	add	[bx+si],al
	add	[bx+si],al
	add	[bx+si],al
	add	[bx+si],al
	add	[bx+si],al
	add	[bx+si],al
	add	[bx+si],al
	add	[bx+si],al
	add	[bx+si],al
	add	[bx+si],al
	add	[bx+si],al
	add	[bx+si],al
	add	[bx+si],al
	add	[bx+si],al
	add	[bx+si],al
	add	[bx+si],al
	add	[bx+si],al
	add	[bx+si],al
	add	[bx+si],al
	add	[bx+si],al
	add	[bx+si],al
	add	[bx+si],al
	add	[bx+si],al
	add	[bx+si],al
	add	[bx+si],al
	add	[bx+si],al
	add	[bx+si],al
	add	[bx+si],al
	add	[bx+si],al
	add	[bx+si],al
	add	[bx+si],al
	add	[bx+si],al
	add	[bx+si],al
	add	[bx+si],al
	add	[bx+si],al
	add	[bx+si],al
	add	[bx+si],al
	add	[bx+si],al
	add	[bx+si],al
	add	[bx+si],al
	add	[bx+si],al
	add	[bx+si],al
	add	[bx+si],al
	add	[bx+si],al
	add	[bx+si],al
	add	[bx+si],al
	add	[bx+si],al
	add	[bx+si],al
	add	[bx+si],al
	add	[bx+si],al
	add	[bx+si],al
	add	[bx+si],al
	add	[bx+si],al
	add	[bx+si],al
	add	[bx+si],al
	add	[bx+si],al
	add	[bx+si],al
	add	[bx+si],al
	add	[bx+si],al
	add	[bx+si],al
	add	[bx+si],al
	add	[bx+si],al
	add	[bx+si],al
	add	[bx+si],al
	add	[bx+si],al
	add	[bx+si],al
	add	[bx+si],al
	add	[bx+si],al
	add	[bx+si],al
	add	[bx+si],al
	add	[bx+si],al
	add	[bx+si],al
	add	[bx+si],al
	add	[bx+si],al
	add	[bx+si],al
	add	[bx+si],al
	add	[bx+si],al
	add	[bx+si],al
	add	[bx+si],al
	add	[bx+si],al
	add	[bx+si],al
	add	[bx+si],al
	add	[bx+si],al
	add	[bx+si],al
	add	[bx+si],al
	add	[bx+si],al
	add	[bx+si],al
	add	[bx+si],al
	add	[bx+si],al
	add	[bx+si],al
	add	[bx+si],al
	add	[bx+si],al
	add	[bx+si],al
	add	[bx+si],al
	add	[bx+si],al
	add	[bx+si],al
	add	[bx+si],al
	add	[bx+si],al
	add	[bx+si],al
	add	[bx+si],al
	add	[bx+si],al
	add	[bx+si],al
	add	[bx+si],al
	add	[bx+si],al
	add	[bx+si],al
	add	[bx+si],al
	add	[bx+si],al
	add	[bx+si],al
	add	[bx+si],al
	add	[bx+si],al
	add	[bx+si],al
	add	[bx+si],al
	add	[bx+si],al
	add	[bx+si],al
	add	[bx+si],al
	add	[bx+si],al
	add	[bx+si],al
	add	[bx+si],al
	add	[bx+si],al
	add	[bx+si],al
	add	[bx+si],al
	add	[bx+si],al
	add	[bx+si],al
	add	[bx+si],al
	add	[bx+si],al
	add	[bx+si],al
	add	[bx+si],al
	add	[bx+si],al
	add	[bx+si],al
	add	[bx+si],al
	add	[bx+si],al
	add	[bx+si],al
	add	[bx+si],al
	add	[bx+si],al
	add	[bx+si],al
	add	[bx+si],al
	add	[bx+si],al
	add	[bx+si],al
	add	[bx+si],al
	add	[bx+si],al
	add	[bx+si],al
	add	[bx+si],al
	add	[bx+si],al
	add	[bx+si],al
	add	[bx+si],al
	add	[bx+si],al
	add	[bx+si],al
	add	[bx+si],al
	add	[bx+si],al
	add	[bx+si],al
	add	[bx+si],al
	add	[bx+si],al
	add	[bx+si],al
	add	[bx+si],al
	add	[bx+si],al
	add	[bx+si],al
	add	[bx+si],al
	add	[bx+si],al
	add	[bx+si],al
	add	[bx+si],al
	add	[bx+si],al
	add	[bx+si],al
	add	[bx+si],al
	add	[bx+si],al
	add	[bx+si],al
	add	[bx+si],al
	add	[bx+si],al
	add	[bx+si],al
	add	[bx+si],al
	add	[bx+si],al
	add	[bx+si],al
	add	[bx+si],al
	add	[bx+si],al
	add	[bx+si],al
	add	[bx+si],al
	add	[bx+si],al
	add	[bx+si],al
	add	[bx+si],al
	add	[bx+si],al
	add	[bx+si],al
	add	[bx+si],al
	add	[bx+si],al
	add	[bx+si],al
	add	[bx+si],al
	add	[bx+si],al
	add	[bx+si],al
	add	[bx+si],al
	add	[bx+si],al
	add	[bx+si],al
	add	[bx+si],al
	add	[bx+si],al
	add	[bx+si],al
	add	[bx+si],al
	add	[bx+si],al
	add	[bx+si],al
	add	[bx+si],al
	add	[bx+si],al
	add	[bx+si],al
	add	[bx+si],al
	add	[bx+si],al
	add	[bx+si],al
	add	[bx+si],al
	add	[bx+si],al
	add	[bx+si],al
	add	[bx+si],al
	add	[bx+si],al
	add	[bx+si],al
	add	[bx+si],al
	add	[bx+si],al
	add	[bx+si],al
	add	[bx+si],al
	add	[bx+si],al
	add	[bx+si],al
	add	[bx+si],al
	add	[bx+si],al
	add	[bx+si],al
	add	[bx+si],al
	add	[bx+si],al
	add	[bx+si],al
	add	[bx+si],al
	add	[bx+si],al
	add	[bx+si],al
	add	[bx+si],al
	add	[bx+si],al
	add	[bx+si],al
	add	[bx+si],al
	add	[bx+si],al
	add	[bx+si],al
	add	[bx+si],al
	add	[bx+si],al
	add	[bx+si],al
	add	[bx+si],al
	add	[bx+si],al
	add	[bx+si],al
	add	[bx+si],al
	add	[bx+si],al
	add	[bx+si],al
	add	[bx+si],al
	add	[bx+si],al
	add	[bx+si],al
	add	[bx+si],al
	add	[bx+si],al
	add	[bx+si],al
	add	[bx+si],al
	add	[bx+si],al
	add	[bx+si],al
	add	[bx+si],al
	add	[bx+si],al
	add	[bx+si],al
	add	[bx+si],al
	add	[bx+si],al
	add	[bx+si],al
	add	[bx+si],al
	add	[bx+si],al
	add	[bx+si],al
	add	[bx+si],al
	add	[bx+si],al
	add	[bx+si],al
	add	[bx+si],al
	add	[bx+si],al
	add	[bx+si],al
	add	[bx+si],al
	add	[bx+si],al
	add	[bx+si],al
	add	[bx+si],al
	add	[bx+si],al
	add	[bx+si],al
	add	[bx+si],al
	add	[bx+si],al
	add	[bx+si],al
	add	[bx+si],al
	add	[bx+si],al
	add	[bx+si],al
	add	[bx+si],al
	add	[bx+si],al
	add	[bx+si],al
	add	[bx+si],al
	add	[bx+si],al
	add	[bx+si],al
	add	[bx+si],al
	add	[bx+si],al
	add	[bx+si],al
	add	[bx+si],al
	add	[bx+si],al
	add	[bx+si],al
	add	[bx+si],al
	add	[bx+si],al
	add	[bx+si],al
	add	[bx+si],al
	add	[bx+si],al
	add	[bx+si],al
	add	[bx+si],al
	add	[bx+si],al
	add	[bx+si],al
	add	[bx+si],al
	add	[bx+si],al
	add	[bx+si],al
	add	[bx+si],al
	add	[bx+si],al
	add	[bx+si],al
	add	[bx+si],al
	add	[bx+si],al
	add	[bx+si],al
	add	[bx+si],al
	add	[bx+si],al
	add	[bx+si],al
	add	[bx+si],al
	add	[bx+si],al
	add	[bx+si],al
	add	[bx+si],al
	add	[bx+si],al
	add	[bx+si],al
	add	[bx+si],al
	add	[bx+si],al
	add	[bx+si],al
	add	[bx+si],al
	add	[bx+si],al
	add	[bx+si],al
	add	[bx+si],al
	add	[bx+si],al
	add	[bx+si],al
	add	[bx+si],al
	add	[bx+si],al
	add	[bx+si],al
	add	[bx+si],al
	add	[bx+si],al
	add	[bx+si],al
	add	[bx+si],al
	add	[bx+si],al
	add	[bx+si],al
	add	[bx+si],al
	add	[bx+si],al
	add	[bx+si],al
	add	[bx+si],al
	add	[bx+si],al
	add	[bx+si],al
	add	[bx+si],al
	add	[bx+si],al
	add	[bx+si],al
	add	[bx+si],al
	add	[bx+si],al
	add	[bx+si],al
	add	[bx+si],al
	add	[bx+si],al
	add	[bx+si],al
	add	[bx+si],al
	add	[bx+si],al
	add	[bx+si],al
	add	[bx+si],al
	add	[bx+si],al
	add	[bx+si],al
	add	[bx+si],al
	add	[bx+si],al
	add	[bx+si],al
	add	[bx+si],al
	add	[bx+si],al
	add	[bx+si],al
	add	[bx+si],al
	add	[bx+si],al
	add	[bx+si],al
	add	[bx+si],al
	add	[bx+si],al
	add	[bx+si],al
	add	[bx+si],al
	add	[bx+si],al
	add	[bx+si],al
	add	[bx+si],al
	add	[bx+si],al
	add	[bx+si],al
	add	[bx+si],al
	add	[bx+si],al
	add	[bx+si],al
	add	[bx+si],al
	add	[bx+si],al
	add	[bx+si],al
	add	[bx+si],al
	add	[bx+si],al
	add	[bx+si],al
	add	[bx+si],al
	add	[bx+si],al
	add	[bx+si],al
	add	[bx+si],al
	add	[bx+si],al
	add	[bx+si],al
	add	[bx+si],al
	add	[bx+si],al
	add	[bx+si],al
	add	[bx+si],al
	add	[bx+si],al
	add	[bx+si],al
	add	[bx+si],al
	add	[bx+si],al
	add	[bx+si],al
	add	[bx+si],al
	add	[bx+si],al
	add	[bx+si],al
	add	[bx+si],al
	add	[bx+si],al
	add	[bx+si],al
	add	[bx+si],al
	add	[bx+si],al
	add	[bx+si],al
	add	[bx+si],al
	add	[bx+si],al
	add	[bx+si],al
	add	[bx+si],al
	add	[bx+si],al
	add	[bx+si],al
	add	[bx+si],al
	add	[bx+si],al
	add	[bx+si],al
	add	[bx+si],al
	add	[bx+si],al
	add	[bx+si],al
	add	[bx+si],al
	add	[bx+si],al
	add	[bx+si],al
	add	[bx+si],al
	add	[bx+si],al
	add	[bx+si],al
	add	[bx+si],al
	add	[bx+si],al
	add	[bx+si],al
	add	[bx+si],al
	add	[bx+si],al
	add	[bx+si],al
	add	[bx+si],al
	add	[bx+si],al
	add	[bx+si],al
	add	[bx+si],al
	add	[bx+si],al
	add	[bx+si],al
	add	[bx+si],al
	add	[bx+si],al
	add	[bx+si],al
	add	[bx+si],al
	add	[bx+si],al
	add	[bx+si],al
	add	[bx+si],al
	add	[bx+si],al
	add	[bx+si],al
	add	[bx+si],al
	add	[bx+si],al
	add	[bx+si],al
	add	[bx+si],al
	add	[bx+si],al
	add	[bx+si],al
	add	[bx+si],al
	add	[bx+si],al
	add	[bx+si],al
	add	[bx+si],al
	add	[bx+si],al
	add	[bx+si],al
	add	[bx+si],al
