;;; Segment .plt (0000000000000DA0)
0000000000000DA0 F0 7B BF A9 F0 00 00 F0 11 46 47 F9 10 22 3A 91 .{.......FG..":.
0000000000000DB0 20 02 1F D6 1F 20 03 D5 1F 20 03 D5 1F 20 03 D5  .... ... ... ..

;; fn0000000000000DC0: 0000000000000DC0
fn0000000000000DC0 proc
0000000000000DC0 F00000F0     	adrp	x16,#&1F000
0000000000000DC4 F9474A11     	ldr	x17,[x16,#&E90]
0000000000000DC8 913A4210     	add	x16,x16,#&E90
0000000000000DCC D61F0220     	br	x17

;; fn0000000000000DD0: 0000000000000DD0
fn0000000000000DD0 proc
0000000000000DD0 F00000F0     	adrp	x16,#&1F000
0000000000000DD4 F9474E11     	ldr	x17,[x16,#&E98]
0000000000000DD8 913A6210     	add	x16,x16,#&E98
0000000000000DDC D61F0220     	br	x17

;; fn0000000000000DE0: 0000000000000DE0
fn0000000000000DE0 proc
0000000000000DE0 F00000F0     	adrp	x16,#&1F000
0000000000000DE4 F9475211     	ldr	x17,[x16,#&EA0]
0000000000000DE8 913A8210     	add	x16,x16,#&EA0
0000000000000DEC D61F0220     	br	x17

;; fn0000000000000DF0: 0000000000000DF0
fn0000000000000DF0 proc
0000000000000DF0 F00000F0     	adrp	x16,#&1F000
0000000000000DF4 F9475611     	ldr	x17,[x16,#&EA8]
0000000000000DF8 913AA210     	add	x16,x16,#&EA8
0000000000000DFC D61F0220     	br	x17

l0000000000000E00:
0000000000000E00 F00000F0     	adrp	x16,#&1F000
0000000000000E04 F9475A11     	ldr	x17,[x16,#&EB0]
0000000000000E08 913AC210     	add	x16,x16,#&EB0
0000000000000E0C D61F0220     	br	x17

;; fn0000000000000E10: 0000000000000E10
fn0000000000000E10 proc
0000000000000E10 F00000F0     	adrp	x16,#&1F000
0000000000000E14 F9475E11     	ldr	x17,[x16,#&EB8]
0000000000000E18 913AE210     	add	x16,x16,#&EB8
0000000000000E1C D61F0220     	br	x17

;; fn0000000000000E20: 0000000000000E20
fn0000000000000E20 proc
0000000000000E20 F00000F0     	adrp	x16,#&1F000
0000000000000E24 F9476211     	ldr	x17,[x16,#&EC0]
0000000000000E28 913B0210     	add	x16,x16,#&EC0
0000000000000E2C D61F0220     	br	x17

;; fn0000000000000E30: 0000000000000E30
fn0000000000000E30 proc
0000000000000E30 F00000F0     	adrp	x16,#&1F000
0000000000000E34 F9476611     	ldr	x17,[x16,#&EC8]
0000000000000E38 913B2210     	add	x16,x16,#&EC8
0000000000000E3C D61F0220     	br	x17

;; fn0000000000000E40: 0000000000000E40
fn0000000000000E40 proc
0000000000000E40 F00000F0     	adrp	x16,#&1F000
0000000000000E44 F9476A11     	ldr	x17,[x16,#&ED0]
0000000000000E48 913B4210     	add	x16,x16,#&ED0
0000000000000E4C D61F0220     	br	x17

;; fn0000000000000E50: 0000000000000E50
fn0000000000000E50 proc
0000000000000E50 F00000F0     	adrp	x16,#&1F000
0000000000000E54 F9476E11     	ldr	x17,[x16,#&ED8]
0000000000000E58 913B6210     	add	x16,x16,#&ED8
0000000000000E5C D61F0220     	br	x17

;; fn0000000000000E60: 0000000000000E60
fn0000000000000E60 proc
0000000000000E60 F00000F0     	adrp	x16,#&1F000
0000000000000E64 F9477211     	ldr	x17,[x16,#&EE0]
0000000000000E68 913B8210     	add	x16,x16,#&EE0
0000000000000E6C D61F0220     	br	x17

;; fn0000000000000E70: 0000000000000E70
;;   Called from:
;;     0000000000001490 (in fn0000000000001460)
fn0000000000000E70 proc
0000000000000E70 F00000F0     	adrp	x16,#&1F000
0000000000000E74 F9477611     	ldr	x17,[x16,#&EE8]
0000000000000E78 913BA210     	add	x16,x16,#&EE8
0000000000000E7C D61F0220     	br	x17

;; fn0000000000000E80: 0000000000000E80
fn0000000000000E80 proc
0000000000000E80 F00000F0     	adrp	x16,#&1F000
0000000000000E84 F9477A11     	ldr	x17,[x16,#&EF0]
0000000000000E88 913BC210     	add	x16,x16,#&EF0
0000000000000E8C D61F0220     	br	x17

;; fn0000000000000E90: 0000000000000E90
fn0000000000000E90 proc
0000000000000E90 F00000F0     	adrp	x16,#&1F000
0000000000000E94 F9477E11     	ldr	x17,[x16,#&EF8]
0000000000000E98 913BE210     	add	x16,x16,#&EF8
0000000000000E9C D61F0220     	br	x17

;; fn0000000000000EA0: 0000000000000EA0
fn0000000000000EA0 proc
0000000000000EA0 F00000F0     	adrp	x16,#&1F000
0000000000000EA4 F9478211     	ldr	x17,[x16,#&F00]
0000000000000EA8 913C0210     	add	x16,x16,#&F00
0000000000000EAC D61F0220     	br	x17

l0000000000000EB0:
0000000000000EB0 F00000F0     	adrp	x16,#&1F000
0000000000000EB4 F9478611     	ldr	x17,[x16,#&F08]
0000000000000EB8 913C2210     	add	x16,x16,#&F08
0000000000000EBC D61F0220     	br	x17

;; fn0000000000000EC0: 0000000000000EC0
;;   Called from:
;;     0000000000001494 (in fn0000000000001460)
fn0000000000000EC0 proc
0000000000000EC0 F00000F0     	adrp	x16,#&1F000
0000000000000EC4 F9478A11     	ldr	x17,[x16,#&F10]
0000000000000EC8 913C4210     	add	x16,x16,#&F10
0000000000000ECC D61F0220     	br	x17

;; fn0000000000000ED0: 0000000000000ED0
fn0000000000000ED0 proc
0000000000000ED0 F00000F0     	adrp	x16,#&1F000
0000000000000ED4 F9478E11     	ldr	x17,[x16,#&F18]
0000000000000ED8 913C6210     	add	x16,x16,#&F18
0000000000000EDC D61F0220     	br	x17

;; fn0000000000000EE0: 0000000000000EE0
fn0000000000000EE0 proc
0000000000000EE0 F00000F0     	adrp	x16,#&1F000
0000000000000EE4 F9479211     	ldr	x17,[x16,#&F20]
0000000000000EE8 913C8210     	add	x16,x16,#&F20
0000000000000EEC D61F0220     	br	x17

;; fn0000000000000EF0: 0000000000000EF0
fn0000000000000EF0 proc
0000000000000EF0 F00000F0     	adrp	x16,#&1F000
0000000000000EF4 F9479611     	ldr	x17,[x16,#&F28]
0000000000000EF8 913CA210     	add	x16,x16,#&F28
0000000000000EFC D61F0220     	br	x17

;; fn0000000000000F00: 0000000000000F00
fn0000000000000F00 proc
0000000000000F00 F00000F0     	adrp	x16,#&1F000
0000000000000F04 F9479A11     	ldr	x17,[x16,#&F30]
0000000000000F08 913CC210     	add	x16,x16,#&F30
0000000000000F0C D61F0220     	br	x17

;; fn0000000000000F10: 0000000000000F10
fn0000000000000F10 proc
0000000000000F10 F00000F0     	adrp	x16,#&1F000
0000000000000F14 F9479E11     	ldr	x17,[x16,#&F38]
0000000000000F18 913CE210     	add	x16,x16,#&F38
0000000000000F1C D61F0220     	br	x17

;; fn0000000000000F20: 0000000000000F20
fn0000000000000F20 proc
0000000000000F20 F00000F0     	adrp	x16,#&1F000
0000000000000F24 F947A211     	ldr	x17,[x16,#&F40]
0000000000000F28 913D0210     	add	x16,x16,#&F40
0000000000000F2C D61F0220     	br	x17

;; fn0000000000000F30: 0000000000000F30
fn0000000000000F30 proc
0000000000000F30 F00000F0     	adrp	x16,#&1F000
0000000000000F34 F947A611     	ldr	x17,[x16,#&F48]
0000000000000F38 913D2210     	add	x16,x16,#&F48
0000000000000F3C D61F0220     	br	x17

;; fn0000000000000F40: 0000000000000F40
fn0000000000000F40 proc
0000000000000F40 F00000F0     	adrp	x16,#&1F000
0000000000000F44 F947AA11     	ldr	x17,[x16,#&F50]
0000000000000F48 913D4210     	add	x16,x16,#&F50
0000000000000F4C D61F0220     	br	x17

;; fn0000000000000F50: 0000000000000F50
fn0000000000000F50 proc
0000000000000F50 F00000F0     	adrp	x16,#&1F000
0000000000000F54 F947AE11     	ldr	x17,[x16,#&F58]
0000000000000F58 913D6210     	add	x16,x16,#&F58
0000000000000F5C D61F0220     	br	x17

;; fn0000000000000F60: 0000000000000F60
fn0000000000000F60 proc
0000000000000F60 F00000F0     	adrp	x16,#&1F000
0000000000000F64 F947B211     	ldr	x17,[x16,#&F60]
0000000000000F68 913D8210     	add	x16,x16,#&F60
0000000000000F6C D61F0220     	br	x17

;; fn0000000000000F70: 0000000000000F70
fn0000000000000F70 proc
0000000000000F70 F00000F0     	adrp	x16,#&1F000
0000000000000F74 F947B611     	ldr	x17,[x16,#&F68]
0000000000000F78 913DA210     	add	x16,x16,#&F68
0000000000000F7C D61F0220     	br	x17

;; fn0000000000000F80: 0000000000000F80
fn0000000000000F80 proc
0000000000000F80 F00000F0     	adrp	x16,#&1F000
0000000000000F84 F947BA11     	ldr	x17,[x16,#&F70]
0000000000000F88 913DC210     	add	x16,x16,#&F70
0000000000000F8C D61F0220     	br	x17

;; fn0000000000000F90: 0000000000000F90
fn0000000000000F90 proc
0000000000000F90 F00000F0     	adrp	x16,#&1F000
0000000000000F94 F947BE11     	ldr	x17,[x16,#&F78]
0000000000000F98 913DE210     	add	x16,x16,#&F78
0000000000000F9C D61F0220     	br	x17

;; fn0000000000000FA0: 0000000000000FA0
fn0000000000000FA0 proc
0000000000000FA0 F00000F0     	adrp	x16,#&1F000
0000000000000FA4 F947C211     	ldr	x17,[x16,#&F80]
0000000000000FA8 913E0210     	add	x16,x16,#&F80
0000000000000FAC D61F0220     	br	x17

;; fn0000000000000FB0: 0000000000000FB0
fn0000000000000FB0 proc
0000000000000FB0 F00000F0     	adrp	x16,#&1F000
0000000000000FB4 F947C611     	ldr	x17,[x16,#&F88]
0000000000000FB8 913E2210     	add	x16,x16,#&F88
0000000000000FBC D61F0220     	br	x17
